
xtest03:     file format elf32-littleriscv


Disassembly of section .init:

00000000 <_start>:
   0:	10001197          	auipc	gp,0x10001
   4:	86018193          	addi	gp,gp,-1952 # 10000860 <__global_pointer$>
   8:	10004117          	auipc	sp,0x10004
   c:	ff810113          	addi	sp,sp,-8 # 10004000 <__dual_issue_riscv_irq_stack_top>
  10:	00000d13          	li	s10,0
  14:	00000d93          	li	s11,0
  18:	00000293          	li	t0,0
  1c:	30029073          	csrw	mstatus,t0
  20:	00002517          	auipc	a0,0x2
  24:	cfc50513          	addi	a0,a0,-772 # 1d1c <_data_lma>
  28:	10000597          	auipc	a1,0x10000
  2c:	fd858593          	addi	a1,a1,-40 # 10000000 <_data>
  30:	10000617          	auipc	a2,0x10000
  34:	03060613          	addi	a2,a2,48 # 10000060 <outptr>
  38:	00c5fc63          	bgeu	a1,a2,50 <_start+0x50>
  3c:	00052283          	lw	t0,0(a0)
  40:	0055a023          	sw	t0,0(a1)
  44:	00450513          	addi	a0,a0,4
  48:	00458593          	addi	a1,a1,4
  4c:	fec5e8e3          	bltu	a1,a2,3c <_start+0x3c>
  50:	10000517          	auipc	a0,0x10000
  54:	01050513          	addi	a0,a0,16 # 10000060 <outptr>
  58:	10000597          	auipc	a1,0x10000
  5c:	01058593          	addi	a1,a1,16 # 10000068 <_end>
  60:	00b57863          	bgeu	a0,a1,70 <_start+0x70>
  64:	00052023          	sw	zero,0(a0)
  68:	00450513          	addi	a0,a0,4
  6c:	feb56ce3          	bltu	a0,a1,64 <_start+0x64>
  70:	010000ef          	jal	ra,80 <main>
  74:	00100d13          	li	s10,1

00000078 <loop>:
  78:	0000006f          	j	78 <loop>

Disassembly of section .text:

00000080 <main>:
      80:	ff010113          	addi	sp,sp,-16
      84:	00112623          	sw	ra,12(sp)
      88:	0a8000ef          	jal	ra,130 <uart_init>
      8c:	10000537          	lui	a0,0x10000
      90:	01e00693          	li	a3,30
      94:	00c00613          	li	a2,12
      98:	7e600593          	li	a1,2022
      9c:	00050513          	mv	a0,a0
      a0:	0b0000ef          	jal	ra,150 <xprintf>
      a4:	000b45b7          	lui	a1,0xb4
      a8:	10000537          	lui	a0,0x10000
      ac:	4d758593          	addi	a1,a1,1239 # b44d7 <__stack_size+0xb24d7>
      b0:	00c50513          	addi	a0,a0,12 # 1000000c <_data+0xc>
      b4:	09c000ef          	jal	ra,150 <xprintf>
      b8:	10000537          	lui	a0,0x10000
      bc:	16c00593          	li	a1,364
      c0:	03050513          	addi	a0,a0,48 # 10000030 <_data+0x30>
      c4:	08c000ef          	jal	ra,150 <xprintf>
      c8:	10000537          	lui	a0,0x10000
      cc:	04450513          	addi	a0,a0,68 # 10000044 <_data+0x44>
      d0:	080000ef          	jal	ra,150 <xprintf>
      d4:	10000537          	lui	a0,0x10000
      d8:	05c50513          	addi	a0,a0,92 # 1000005c <_data+0x5c>
      dc:	074000ef          	jal	ra,150 <xprintf>
      e0:	00c12083          	lw	ra,12(sp)
      e4:	00000513          	li	a0,0
      e8:	01010113          	addi	sp,sp,16
      ec:	00008067          	ret
	...

00000100 <uart_putc>:
     100:	20000737          	lui	a4,0x20000
     104:	00472783          	lw	a5,4(a4) # 20000004 <__dual_issue_riscv_irq_stack_top+0xfffc004>
     108:	0017f793          	andi	a5,a5,1
     10c:	fe079ce3          	bnez	a5,104 <uart_putc+0x4>
     110:	00a72623          	sw	a0,12(a4)
     114:	00008067          	ret
	...

00000130 <uart_init>:
     130:	200007b7          	lui	a5,0x20000
     134:	00300713          	li	a4,3
     138:	00e7a023          	sw	a4,0(a5) # 20000000 <__dual_issue_riscv_irq_stack_top+0xfffc000>
     13c:	10000737          	lui	a4,0x10000
     140:	10000793          	li	a5,256
     144:	06f72223          	sw	a5,100(a4) # 10000064 <xfunc_out>
     148:	00008067          	ret
     14c:	0000                	unimp
	...

00000150 <xprintf>:
     150:	f7010113          	addi	sp,sp,-144
     154:	05812423          	sw	s8,72(sp)
     158:	05912223          	sw	s9,68(sp)
     15c:	06112623          	sw	ra,108(sp)
     160:	06812423          	sw	s0,104(sp)
     164:	06912223          	sw	s1,100(sp)
     168:	07212023          	sw	s2,96(sp)
     16c:	05312e23          	sw	s3,92(sp)
     170:	05412c23          	sw	s4,88(sp)
     174:	05512a23          	sw	s5,84(sp)
     178:	05612823          	sw	s6,80(sp)
     17c:	05712623          	sw	s7,76(sp)
     180:	05a12023          	sw	s10,64(sp)
     184:	03b12e23          	sw	s11,60(sp)
     188:	06b12a23          	sw	a1,116(sp)
     18c:	06c12c23          	sw	a2,120(sp)
     190:	06d12e23          	sw	a3,124(sp)
     194:	08e12023          	sw	a4,128(sp)
     198:	08f12223          	sw	a5,132(sp)
     19c:	09012423          	sw	a6,136(sp)
     1a0:	09112623          	sw	a7,140(sp)
     1a4:	00050c13          	mv	s8,a0
     1a8:	00054503          	lbu	a0,0(a0)
     1ac:	07410c93          	addi	s9,sp,116
     1b0:	01912e23          	sw	s9,28(sp)
     1b4:	04050663          	beqz	a0,200 <xprintf+0xb0>
     1b8:	000c8d93          	mv	s11,s9
     1bc:	001c0713          	addi	a4,s8,1
     1c0:	02500a13          	li	s4,37
     1c4:	03000b13          	li	s6,48
     1c8:	00900413          	li	s0,9
     1cc:	100009b7          	lui	s3,0x10000
     1d0:	100004b7          	lui	s1,0x10000
     1d4:	07450463          	beq	a0,s4,23c <xprintf+0xec>
     1d8:	06098693          	addi	a3,s3,96 # 10000060 <outptr>
     1dc:	0006a783          	lw	a5,0(a3)
     1e0:	6a0780e3          	beqz	a5,1080 <xprintf+0xf30>
     1e4:	00178613          	addi	a2,a5,1
     1e8:	00070c13          	mv	s8,a4
     1ec:	00c6a023          	sw	a2,0(a3)
     1f0:	00a78023          	sb	a0,0(a5)
     1f4:	000c4503          	lbu	a0,0(s8)
     1f8:	001c0713          	addi	a4,s8,1
     1fc:	fc051ce3          	bnez	a0,1d4 <xprintf+0x84>
     200:	06c12083          	lw	ra,108(sp)
     204:	06812403          	lw	s0,104(sp)
     208:	06412483          	lw	s1,100(sp)
     20c:	06012903          	lw	s2,96(sp)
     210:	05c12983          	lw	s3,92(sp)
     214:	05812a03          	lw	s4,88(sp)
     218:	05412a83          	lw	s5,84(sp)
     21c:	05012b03          	lw	s6,80(sp)
     220:	04c12b83          	lw	s7,76(sp)
     224:	04812c03          	lw	s8,72(sp)
     228:	04412c83          	lw	s9,68(sp)
     22c:	04012d03          	lw	s10,64(sp)
     230:	03c12d83          	lw	s11,60(sp)
     234:	09010113          	addi	sp,sp,144
     238:	00008067          	ret
     23c:	001c4503          	lbu	a0,1(s8)
     240:	002c0793          	addi	a5,s8,2
     244:	656508e3          	beq	a0,s6,1094 <xprintf+0xf44>
     248:	02d00713          	li	a4,45
     24c:	00e51463          	bne	a0,a4,254 <xprintf+0x104>
     250:	7c10006f          	j	1210 <xprintf+0x10c0>
     254:	00078c13          	mv	s8,a5
     258:	00000913          	li	s2,0
     25c:	fd050793          	addi	a5,a0,-48
     260:	0ff7f793          	zext.b	a5,a5
     264:	64f464e3          	bltu	s0,a5,10ac <xprintf+0xf5c>
     268:	00000b93          	li	s7,0
     26c:	002b9793          	slli	a5,s7,0x2
     270:	017787b3          	add	a5,a5,s7
     274:	00179793          	slli	a5,a5,0x1
     278:	001c0c13          	addi	s8,s8,1
     27c:	00a787b3          	add	a5,a5,a0
     280:	fffc4503          	lbu	a0,-1(s8)
     284:	fd078b93          	addi	s7,a5,-48
     288:	fd050713          	addi	a4,a0,-48
     28c:	0ff77713          	zext.b	a4,a4
     290:	fce47ee3          	bgeu	s0,a4,26c <xprintf+0x11c>
     294:	0df57793          	andi	a5,a0,223
     298:	04c00713          	li	a4,76
     29c:	36e786e3          	beq	a5,a4,e08 <xprintf+0xcb8>
     2a0:	f60500e3          	beqz	a0,200 <xprintf+0xb0>
     2a4:	06000713          	li	a4,96
     2a8:	00050793          	mv	a5,a0
     2ac:	00a77663          	bgeu	a4,a0,2b8 <xprintf+0x168>
     2b0:	fe050793          	addi	a5,a0,-32
     2b4:	0ff7f793          	zext.b	a5,a5
     2b8:	04f00713          	li	a4,79
     2bc:	00e79463          	bne	a5,a4,2c4 <xprintf+0x174>
     2c0:	1c00106f          	j	1480 <xprintf+0x1330>
     2c4:	34f76ae3          	bltu	a4,a5,e18 <xprintf+0xcc8>
     2c8:	04300713          	li	a4,67
     2cc:	00e79463          	bne	a5,a4,2d4 <xprintf+0x184>
     2d0:	1b80106f          	j	1488 <xprintf+0x1338>
     2d4:	04400713          	li	a4,68
     2d8:	00a00a93          	li	s5,10
     2dc:	56e79ee3          	bne	a5,a4,1058 <xprintf+0xf08>
     2e0:	004d8693          	addi	a3,s11,4
     2e4:	00497713          	andi	a4,s2,4
     2e8:	00d12423          	sw	a3,8(sp)
     2ec:	5c070ae3          	beqz	a4,10c0 <xprintf+0xf70>
     2f0:	000dad03          	lw	s10,0(s11)
     2f4:	04400813          	li	a6,68
     2f8:	000d0713          	mv	a4,s10
     2fc:	01079463          	bne	a5,a6,304 <xprintf+0x1b4>
     300:	0680106f          	j	1368 <xprintf+0x1218>
     304:	00012023          	sw	zero,0(sp)
     308:	07800793          	li	a5,120
     30c:	00700d93          	li	s11,7
     310:	00f51463          	bne	a0,a5,318 <xprintf+0x1c8>
     314:	02700d93          	li	s11,39
     318:	000a8593          	mv	a1,s5
     31c:	000d0513          	mv	a0,s10
     320:	199010ef          	jal	ra,1cb8 <__umodsi3>
     324:	00050793          	mv	a5,a0
     328:	000a8593          	mv	a1,s5
     32c:	000d0513          	mv	a0,s10
     330:	00f12223          	sw	a5,4(sp)
     334:	13d010ef          	jal	ra,1c70 <__udivsi3>
     338:	00412783          	lw	a5,4(sp)
     33c:	018d9d93          	slli	s11,s11,0x18
     340:	418ddd93          	srai	s11,s11,0x18
     344:	00050c93          	mv	s9,a0
     348:	58f476e3          	bgeu	s0,a5,10d4 <xprintf+0xf84>
     34c:	00fd87b3          	add	a5,s11,a5
     350:	01879793          	slli	a5,a5,0x18
     354:	4187d793          	srai	a5,a5,0x18
     358:	03078793          	addi	a5,a5,48
     35c:	02f10023          	sb	a5,32(sp)
     360:	595d64e3          	bltu	s10,s5,10e8 <xprintf+0xf98>
     364:	000a8593          	mv	a1,s5
     368:	000c8513          	mv	a0,s9
     36c:	14d010ef          	jal	ra,1cb8 <__umodsi3>
     370:	00050793          	mv	a5,a0
     374:	000a8593          	mv	a1,s5
     378:	000c8513          	mv	a0,s9
     37c:	00f12223          	sw	a5,4(sp)
     380:	0f1010ef          	jal	ra,1c70 <__udivsi3>
     384:	00412783          	lw	a5,4(sp)
     388:	00050d13          	mv	s10,a0
     38c:	56f474e3          	bgeu	s0,a5,10f4 <xprintf+0xfa4>
     390:	00fd87b3          	add	a5,s11,a5
     394:	01879793          	slli	a5,a5,0x18
     398:	4187d793          	srai	a5,a5,0x18
     39c:	03078793          	addi	a5,a5,48
     3a0:	02f100a3          	sb	a5,33(sp)
     3a4:	575ce2e3          	bltu	s9,s5,1108 <xprintf+0xfb8>
     3a8:	000a8593          	mv	a1,s5
     3ac:	000d0513          	mv	a0,s10
     3b0:	109010ef          	jal	ra,1cb8 <__umodsi3>
     3b4:	00050793          	mv	a5,a0
     3b8:	000a8593          	mv	a1,s5
     3bc:	000d0513          	mv	a0,s10
     3c0:	00f12223          	sw	a5,4(sp)
     3c4:	0ad010ef          	jal	ra,1c70 <__udivsi3>
     3c8:	00412783          	lw	a5,4(sp)
     3cc:	00050c93          	mv	s9,a0
     3d0:	60f470e3          	bgeu	s0,a5,11d0 <xprintf+0x1080>
     3d4:	00fd87b3          	add	a5,s11,a5
     3d8:	01879793          	slli	a5,a5,0x18
     3dc:	4187d793          	srai	a5,a5,0x18
     3e0:	03078793          	addi	a5,a5,48
     3e4:	02f10123          	sb	a5,34(sp)
     3e8:	5f5d6ee3          	bltu	s10,s5,11e4 <xprintf+0x1094>
     3ec:	000a8593          	mv	a1,s5
     3f0:	000c8513          	mv	a0,s9
     3f4:	0c5010ef          	jal	ra,1cb8 <__umodsi3>
     3f8:	00050793          	mv	a5,a0
     3fc:	000a8593          	mv	a1,s5
     400:	000c8513          	mv	a0,s9
     404:	00f12223          	sw	a5,4(sp)
     408:	069010ef          	jal	ra,1c70 <__udivsi3>
     40c:	00412783          	lw	a5,4(sp)
     410:	00050d13          	mv	s10,a0
     414:	5cf47ee3          	bgeu	s0,a5,11f0 <xprintf+0x10a0>
     418:	00fd87b3          	add	a5,s11,a5
     41c:	01879793          	slli	a5,a5,0x18
     420:	4187d793          	srai	a5,a5,0x18
     424:	03078793          	addi	a5,a5,48
     428:	02f101a3          	sb	a5,35(sp)
     42c:	5d5cece3          	bltu	s9,s5,1204 <xprintf+0x10b4>
     430:	000a8593          	mv	a1,s5
     434:	000d0513          	mv	a0,s10
     438:	081010ef          	jal	ra,1cb8 <__umodsi3>
     43c:	00050793          	mv	a5,a0
     440:	000a8593          	mv	a1,s5
     444:	000d0513          	mv	a0,s10
     448:	00f12223          	sw	a5,4(sp)
     44c:	025010ef          	jal	ra,1c70 <__udivsi3>
     450:	00412783          	lw	a5,4(sp)
     454:	00050c93          	mv	s9,a0
     458:	68f47ce3          	bgeu	s0,a5,12f0 <xprintf+0x11a0>
     45c:	00fd87b3          	add	a5,s11,a5
     460:	01879793          	slli	a5,a5,0x18
     464:	4187d793          	srai	a5,a5,0x18
     468:	03078793          	addi	a5,a5,48
     46c:	02f10223          	sb	a5,36(sp)
     470:	695d6ae3          	bltu	s10,s5,1304 <xprintf+0x11b4>
     474:	000a8593          	mv	a1,s5
     478:	000c8513          	mv	a0,s9
     47c:	03d010ef          	jal	ra,1cb8 <__umodsi3>
     480:	00050793          	mv	a5,a0
     484:	000a8593          	mv	a1,s5
     488:	000c8513          	mv	a0,s9
     48c:	00f12223          	sw	a5,4(sp)
     490:	7e0010ef          	jal	ra,1c70 <__udivsi3>
     494:	00412783          	lw	a5,4(sp)
     498:	00050d13          	mv	s10,a0
     49c:	66f47ae3          	bgeu	s0,a5,1310 <xprintf+0x11c0>
     4a0:	00fd87b3          	add	a5,s11,a5
     4a4:	01879793          	slli	a5,a5,0x18
     4a8:	4187d793          	srai	a5,a5,0x18
     4ac:	03078793          	addi	a5,a5,48
     4b0:	02f102a3          	sb	a5,37(sp)
     4b4:	675ce8e3          	bltu	s9,s5,1324 <xprintf+0x11d4>
     4b8:	000a8593          	mv	a1,s5
     4bc:	000d0513          	mv	a0,s10
     4c0:	7f8010ef          	jal	ra,1cb8 <__umodsi3>
     4c4:	00050793          	mv	a5,a0
     4c8:	000a8593          	mv	a1,s5
     4cc:	000d0513          	mv	a0,s10
     4d0:	00f12223          	sw	a5,4(sp)
     4d4:	79c010ef          	jal	ra,1c70 <__udivsi3>
     4d8:	00412783          	lw	a5,4(sp)
     4dc:	00050c93          	mv	s9,a0
     4e0:	66f470e3          	bgeu	s0,a5,1340 <xprintf+0x11f0>
     4e4:	00fd87b3          	add	a5,s11,a5
     4e8:	01879793          	slli	a5,a5,0x18
     4ec:	4187d793          	srai	a5,a5,0x18
     4f0:	03078793          	addi	a5,a5,48
     4f4:	02f10323          	sb	a5,38(sp)
     4f8:	655d6ee3          	bltu	s10,s5,1354 <xprintf+0x1204>
     4fc:	000a8593          	mv	a1,s5
     500:	000c8513          	mv	a0,s9
     504:	7b4010ef          	jal	ra,1cb8 <__umodsi3>
     508:	00050793          	mv	a5,a0
     50c:	000a8593          	mv	a1,s5
     510:	000c8513          	mv	a0,s9
     514:	00f12223          	sw	a5,4(sp)
     518:	758010ef          	jal	ra,1c70 <__udivsi3>
     51c:	00412783          	lw	a5,4(sp)
     520:	00050d13          	mv	s10,a0
     524:	66f472e3          	bgeu	s0,a5,1388 <xprintf+0x1238>
     528:	00fd87b3          	add	a5,s11,a5
     52c:	01879793          	slli	a5,a5,0x18
     530:	4187d793          	srai	a5,a5,0x18
     534:	03078793          	addi	a5,a5,48
     538:	02f103a3          	sb	a5,39(sp)
     53c:	675ce0e3          	bltu	s9,s5,139c <xprintf+0x124c>
     540:	000a8593          	mv	a1,s5
     544:	000d0513          	mv	a0,s10
     548:	770010ef          	jal	ra,1cb8 <__umodsi3>
     54c:	00050793          	mv	a5,a0
     550:	000a8593          	mv	a1,s5
     554:	000d0513          	mv	a0,s10
     558:	00f12223          	sw	a5,4(sp)
     55c:	714010ef          	jal	ra,1c70 <__udivsi3>
     560:	00412783          	lw	a5,4(sp)
     564:	00050c93          	mv	s9,a0
     568:	64f478e3          	bgeu	s0,a5,13b8 <xprintf+0x1268>
     56c:	00fd87b3          	add	a5,s11,a5
     570:	01879793          	slli	a5,a5,0x18
     574:	4187d793          	srai	a5,a5,0x18
     578:	03078793          	addi	a5,a5,48
     57c:	02f10423          	sb	a5,40(sp)
     580:	655d66e3          	bltu	s10,s5,13cc <xprintf+0x127c>
     584:	000a8593          	mv	a1,s5
     588:	000c8513          	mv	a0,s9
     58c:	72c010ef          	jal	ra,1cb8 <__umodsi3>
     590:	00050793          	mv	a5,a0
     594:	000a8593          	mv	a1,s5
     598:	000c8513          	mv	a0,s9
     59c:	00f12223          	sw	a5,4(sp)
     5a0:	6d0010ef          	jal	ra,1c70 <__udivsi3>
     5a4:	00412783          	lw	a5,4(sp)
     5a8:	00050d13          	mv	s10,a0
     5ac:	64f474e3          	bgeu	s0,a5,13f4 <xprintf+0x12a4>
     5b0:	00fd87b3          	add	a5,s11,a5
     5b4:	01879793          	slli	a5,a5,0x18
     5b8:	4187d793          	srai	a5,a5,0x18
     5bc:	03078793          	addi	a5,a5,48
     5c0:	02f104a3          	sb	a5,41(sp)
     5c4:	015cf463          	bgeu	s9,s5,5cc <xprintf+0x47c>
     5c8:	5ac0106f          	j	1b74 <xprintf+0x1a24>
     5cc:	000a8593          	mv	a1,s5
     5d0:	000d0513          	mv	a0,s10
     5d4:	6e4010ef          	jal	ra,1cb8 <__umodsi3>
     5d8:	00050793          	mv	a5,a0
     5dc:	000a8593          	mv	a1,s5
     5e0:	000d0513          	mv	a0,s10
     5e4:	00f12223          	sw	a5,4(sp)
     5e8:	688010ef          	jal	ra,1c70 <__udivsi3>
     5ec:	00412783          	lw	a5,4(sp)
     5f0:	00050713          	mv	a4,a0
     5f4:	60f47ae3          	bgeu	s0,a5,1408 <xprintf+0x12b8>
     5f8:	00fd87b3          	add	a5,s11,a5
     5fc:	01879793          	slli	a5,a5,0x18
     600:	4187d793          	srai	a5,a5,0x18
     604:	03078793          	addi	a5,a5,48
     608:	02f10523          	sb	a5,42(sp)
     60c:	015d7463          	bgeu	s10,s5,614 <xprintf+0x4c4>
     610:	5700106f          	j	1b80 <xprintf+0x1a30>
     614:	000a8593          	mv	a1,s5
     618:	00070513          	mv	a0,a4
     61c:	00e12223          	sw	a4,4(sp)
     620:	698010ef          	jal	ra,1cb8 <__umodsi3>
     624:	00412703          	lw	a4,4(sp)
     628:	00050793          	mv	a5,a0
     62c:	000a8593          	mv	a1,s5
     630:	00070513          	mv	a0,a4
     634:	00e12623          	sw	a4,12(sp)
     638:	00f12223          	sw	a5,4(sp)
     63c:	634010ef          	jal	ra,1c70 <__udivsi3>
     640:	00412783          	lw	a5,4(sp)
     644:	00c12703          	lw	a4,12(sp)
     648:	00050d13          	mv	s10,a0
     64c:	5ef478e3          	bgeu	s0,a5,143c <xprintf+0x12ec>
     650:	00fd87b3          	add	a5,s11,a5
     654:	01879793          	slli	a5,a5,0x18
     658:	4187d793          	srai	a5,a5,0x18
     65c:	03078793          	addi	a5,a5,48
     660:	02f105a3          	sb	a5,43(sp)
     664:	01577463          	bgeu	a4,s5,66c <xprintf+0x51c>
     668:	5240106f          	j	1b8c <xprintf+0x1a3c>
     66c:	000a8593          	mv	a1,s5
     670:	000d0513          	mv	a0,s10
     674:	644010ef          	jal	ra,1cb8 <__umodsi3>
     678:	00050793          	mv	a5,a0
     67c:	000a8593          	mv	a1,s5
     680:	000d0513          	mv	a0,s10
     684:	00f12223          	sw	a5,4(sp)
     688:	5e8010ef          	jal	ra,1c70 <__udivsi3>
     68c:	00412783          	lw	a5,4(sp)
     690:	00050713          	mv	a4,a0
     694:	5af47ae3          	bgeu	s0,a5,1448 <xprintf+0x12f8>
     698:	00fd87b3          	add	a5,s11,a5
     69c:	01879793          	slli	a5,a5,0x18
     6a0:	4187d793          	srai	a5,a5,0x18
     6a4:	03078793          	addi	a5,a5,48
     6a8:	02f10623          	sb	a5,44(sp)
     6ac:	015d7463          	bgeu	s10,s5,6b4 <xprintf+0x564>
     6b0:	4e80106f          	j	1b98 <xprintf+0x1a48>
     6b4:	000a8593          	mv	a1,s5
     6b8:	00070513          	mv	a0,a4
     6bc:	00e12223          	sw	a4,4(sp)
     6c0:	5f8010ef          	jal	ra,1cb8 <__umodsi3>
     6c4:	00412703          	lw	a4,4(sp)
     6c8:	00050793          	mv	a5,a0
     6cc:	000a8593          	mv	a1,s5
     6d0:	00070513          	mv	a0,a4
     6d4:	00e12623          	sw	a4,12(sp)
     6d8:	00f12223          	sw	a5,4(sp)
     6dc:	594010ef          	jal	ra,1c70 <__udivsi3>
     6e0:	00412783          	lw	a5,4(sp)
     6e4:	00c12703          	lw	a4,12(sp)
     6e8:	00050d13          	mv	s10,a0
     6ec:	5cf472e3          	bgeu	s0,a5,14b0 <xprintf+0x1360>
     6f0:	00fd87b3          	add	a5,s11,a5
     6f4:	01879793          	slli	a5,a5,0x18
     6f8:	4187d793          	srai	a5,a5,0x18
     6fc:	03078793          	addi	a5,a5,48
     700:	02f106a3          	sb	a5,45(sp)
     704:	01577463          	bgeu	a4,s5,70c <xprintf+0x5bc>
     708:	4c00106f          	j	1bc8 <xprintf+0x1a78>
     70c:	000a8593          	mv	a1,s5
     710:	000d0513          	mv	a0,s10
     714:	5a4010ef          	jal	ra,1cb8 <__umodsi3>
     718:	00050793          	mv	a5,a0
     71c:	000a8593          	mv	a1,s5
     720:	000d0513          	mv	a0,s10
     724:	00f12223          	sw	a5,4(sp)
     728:	548010ef          	jal	ra,1c70 <__udivsi3>
     72c:	00412783          	lw	a5,4(sp)
     730:	7cf478e3          	bgeu	s0,a5,1700 <xprintf+0x15b0>
     734:	00fd87b3          	add	a5,s11,a5
     738:	01879793          	slli	a5,a5,0x18
     73c:	4187d793          	srai	a5,a5,0x18
     740:	03078793          	addi	a5,a5,48
     744:	02f10723          	sb	a5,46(sp)
     748:	015d7463          	bgeu	s10,s5,750 <xprintf+0x600>
     74c:	4880106f          	j	1bd4 <xprintf+0x1a84>
     750:	000a8593          	mv	a1,s5
     754:	564010ef          	jal	ra,1cb8 <__umodsi3>
     758:	7ca46ee3          	bltu	s0,a0,1734 <xprintf+0x15e4>
     75c:	01851793          	slli	a5,a0,0x18
     760:	4187d793          	srai	a5,a5,0x18
     764:	03078793          	addi	a5,a5,48
     768:	01000a93          	li	s5,16
     76c:	00f00713          	li	a4,15
     770:	02f107a3          	sb	a5,47(sp)
     774:	00012783          	lw	a5,0(sp)
     778:	00078c63          	beqz	a5,790 <xprintf+0x640>
     77c:	03010793          	addi	a5,sp,48
     780:	015787b3          	add	a5,a5,s5
     784:	00270a93          	addi	s5,a4,2
     788:	02d00713          	li	a4,45
     78c:	fee78823          	sb	a4,-16(a5)
     790:	00197513          	andi	a0,s2,1
     794:	fff50513          	addi	a0,a0,-1
     798:	06098d93          	addi	s11,s3,96
     79c:	ff057513          	andi	a0,a0,-16
     7a0:	00297913          	andi	s2,s2,2
     7a4:	000da783          	lw	a5,0(s11)
     7a8:	001a8d13          	addi	s10,s5,1
     7ac:	03050c93          	addi	s9,a0,48
     7b0:	00090463          	beqz	s2,7b8 <xprintf+0x668>
     7b4:	3ac0106f          	j	1b60 <xprintf+0x1a10>
     7b8:	002a8593          	addi	a1,s5,2
     7bc:	017ae463          	bltu	s5,s7,7c4 <xprintf+0x674>
     7c0:	3a80106f          	j	1b68 <xprintf+0x1a18>
     7c4:	41ab8933          	sub	s2,s7,s10
     7c8:	001b8713          	addi	a4,s7,1
     7cc:	00797913          	andi	s2,s2,7
     7d0:	00e12023          	sw	a4,0(sp)
     7d4:	0e090663          	beqz	s2,8c0 <xprintf+0x770>
     7d8:	240784e3          	beqz	a5,1220 <xprintf+0x10d0>
     7dc:	00178593          	addi	a1,a5,1
     7e0:	01978023          	sb	s9,0(a5)
     7e4:	00bda023          	sw	a1,0(s11)
     7e8:	00058793          	mv	a5,a1
     7ec:	001d0593          	addi	a1,s10,1
     7f0:	00100813          	li	a6,1
     7f4:	00058d13          	mv	s10,a1
     7f8:	0d090463          	beq	s2,a6,8c0 <xprintf+0x770>
     7fc:	00200813          	li	a6,2
     800:	0b090463          	beq	s2,a6,8a8 <xprintf+0x758>
     804:	00300813          	li	a6,3
     808:	09090463          	beq	s2,a6,890 <xprintf+0x740>
     80c:	00400813          	li	a6,4
     810:	07090463          	beq	s2,a6,878 <xprintf+0x728>
     814:	00500813          	li	a6,5
     818:	05090263          	beq	s2,a6,85c <xprintf+0x70c>
     81c:	00600813          	li	a6,6
     820:	03090063          	beq	s2,a6,840 <xprintf+0x6f0>
     824:	00079463          	bnez	a5,82c <xprintf+0x6dc>
     828:	2500106f          	j	1a78 <xprintf+0x1928>
     82c:	00178713          	addi	a4,a5,1
     830:	01978023          	sb	s9,0(a5)
     834:	00eda023          	sw	a4,0(s11)
     838:	00070793          	mv	a5,a4
     83c:	00158d13          	addi	s10,a1,1
     840:	00079463          	bnez	a5,848 <xprintf+0x6f8>
     844:	0000106f          	j	1844 <xprintf+0x16f4>
     848:	00178593          	addi	a1,a5,1
     84c:	01978023          	sb	s9,0(a5)
     850:	00bda023          	sw	a1,0(s11)
     854:	00058793          	mv	a5,a1
     858:	001d0d13          	addi	s10,s10,1
     85c:	00079463          	bnez	a5,864 <xprintf+0x714>
     860:	0300106f          	j	1890 <xprintf+0x1740>
     864:	00178593          	addi	a1,a5,1
     868:	01978023          	sb	s9,0(a5)
     86c:	00bda023          	sw	a1,0(s11)
     870:	00058793          	mv	a5,a1
     874:	001d0d13          	addi	s10,s10,1
     878:	6c0786e3          	beqz	a5,1744 <xprintf+0x15f4>
     87c:	00178593          	addi	a1,a5,1
     880:	01978023          	sb	s9,0(a5)
     884:	00bda023          	sw	a1,0(s11)
     888:	00058793          	mv	a5,a1
     88c:	001d0d13          	addi	s10,s10,1
     890:	3c078ae3          	beqz	a5,1464 <xprintf+0x1314>
     894:	00178593          	addi	a1,a5,1
     898:	01978023          	sb	s9,0(a5)
     89c:	00bda023          	sw	a1,0(s11)
     8a0:	00058793          	mv	a5,a1
     8a4:	001d0d13          	addi	s10,s10,1
     8a8:	320788e3          	beqz	a5,13d8 <xprintf+0x1288>
     8ac:	00178593          	addi	a1,a5,1
     8b0:	01978023          	sb	s9,0(a5)
     8b4:	00bda023          	sw	a1,0(s11)
     8b8:	00058793          	mv	a5,a1
     8bc:	001d0d13          	addi	s10,s10,1
     8c0:	0a078863          	beqz	a5,970 <xprintf+0x820>
     8c4:	00178593          	addi	a1,a5,1
     8c8:	01978023          	sb	s9,0(a5)
     8cc:	00bda023          	sw	a1,0(s11)
     8d0:	00058793          	mv	a5,a1
     8d4:	001d0913          	addi	s2,s10,1
     8d8:	0bab8a63          	beq	s7,s10,98c <xprintf+0x83c>
     8dc:	0c0786e3          	beqz	a5,11a8 <xprintf+0x1058>
     8e0:	00178713          	addi	a4,a5,1
     8e4:	01978023          	sb	s9,0(a5)
     8e8:	00eda023          	sw	a4,0(s11)
     8ec:	00070793          	mv	a5,a4
     8f0:	020782e3          	beqz	a5,1114 <xprintf+0xfc4>
     8f4:	00178713          	addi	a4,a5,1
     8f8:	01978023          	sb	s9,0(a5)
     8fc:	00eda023          	sw	a4,0(s11)
     900:	00070793          	mv	a5,a4
     904:	020784e3          	beqz	a5,112c <xprintf+0xfdc>
     908:	00178713          	addi	a4,a5,1
     90c:	01978023          	sb	s9,0(a5)
     910:	00eda023          	sw	a4,0(s11)
     914:	00070793          	mv	a5,a4
     918:	020786e3          	beqz	a5,1144 <xprintf+0xff4>
     91c:	00178713          	addi	a4,a5,1
     920:	01978023          	sb	s9,0(a5)
     924:	00eda023          	sw	a4,0(s11)
     928:	00070793          	mv	a5,a4
     92c:	020788e3          	beqz	a5,115c <xprintf+0x100c>
     930:	00178713          	addi	a4,a5,1
     934:	01978023          	sb	s9,0(a5)
     938:	00eda023          	sw	a4,0(s11)
     93c:	00070793          	mv	a5,a4
     940:	02078ae3          	beqz	a5,1174 <xprintf+0x1024>
     944:	00178713          	addi	a4,a5,1
     948:	01978023          	sb	s9,0(a5)
     94c:	00eda023          	sw	a4,0(s11)
     950:	00070793          	mv	a5,a4
     954:	02078ce3          	beqz	a5,118c <xprintf+0x103c>
     958:	00178713          	addi	a4,a5,1
     95c:	01978023          	sb	s9,0(a5)
     960:	00eda023          	sw	a4,0(s11)
     964:	00070793          	mv	a5,a4
     968:	00790d13          	addi	s10,s2,7
     96c:	f4079ce3          	bnez	a5,8c4 <xprintf+0x774>
     970:	0644a583          	lw	a1,100(s1) # 10000064 <xfunc_out>
     974:	f60580e3          	beqz	a1,8d4 <xprintf+0x784>
     978:	000c8513          	mv	a0,s9
     97c:	000580e7          	jalr	a1
     980:	000da783          	lw	a5,0(s11)
     984:	001d0913          	addi	s2,s10,1
     988:	f5ab9ae3          	bne	s7,s10,8dc <xprintf+0x78c>
     98c:	002b8d13          	addi	s10,s7,2
     990:	fffa8913          	addi	s2,s5,-1
     994:	03010713          	addi	a4,sp,48
     998:	012705b3          	add	a1,a4,s2
     99c:	ff05c503          	lbu	a0,-16(a1)
     9a0:	020780e3          	beqz	a5,11c0 <xprintf+0x1070>
     9a4:	00178593          	addi	a1,a5,1
     9a8:	00bda023          	sw	a1,0(s11)
     9ac:	00a78023          	sb	a0,0(a5)
     9b0:	24090a63          	beqz	s2,c04 <xprintf+0xab4>
     9b4:	000da783          	lw	a5,0(s11)
     9b8:	ffea8913          	addi	s2,s5,-2
     9bc:	03010713          	addi	a4,sp,48
     9c0:	012705b3          	add	a1,a4,s2
     9c4:	ff05c503          	lbu	a0,-16(a1)
     9c8:	080782e3          	beqz	a5,124c <xprintf+0x10fc>
     9cc:	00178593          	addi	a1,a5,1
     9d0:	00bda023          	sw	a1,0(s11)
     9d4:	00a78023          	sb	a0,0(a5)
     9d8:	22090663          	beqz	s2,c04 <xprintf+0xab4>
     9dc:	000da783          	lw	a5,0(s11)
     9e0:	ffda8913          	addi	s2,s5,-3
     9e4:	03010713          	addi	a4,sp,48
     9e8:	012705b3          	add	a1,a4,s2
     9ec:	ff05c503          	lbu	a0,-16(a1)
     9f0:	140780e3          	beqz	a5,1330 <xprintf+0x11e0>
     9f4:	00178593          	addi	a1,a5,1
     9f8:	00bda023          	sw	a1,0(s11)
     9fc:	00a78023          	sb	a0,0(a5)
     a00:	20090263          	beqz	s2,c04 <xprintf+0xab4>
     a04:	000da783          	lw	a5,0(s11)
     a08:	ffca8913          	addi	s2,s5,-4
     a0c:	03010713          	addi	a4,sp,48
     a10:	012705b3          	add	a1,a4,s2
     a14:	ff05c503          	lbu	a0,-16(a1)
     a18:	180788e3          	beqz	a5,13a8 <xprintf+0x1258>
     a1c:	00178593          	addi	a1,a5,1
     a20:	00bda023          	sw	a1,0(s11)
     a24:	00a78023          	sb	a0,0(a5)
     a28:	1c090e63          	beqz	s2,c04 <xprintf+0xab4>
     a2c:	000da783          	lw	a5,0(s11)
     a30:	ffba8913          	addi	s2,s5,-5
     a34:	03010713          	addi	a4,sp,48
     a38:	012705b3          	add	a1,a4,s2
     a3c:	ff05c503          	lbu	a0,-16(a1)
     a40:	1c078ae3          	beqz	a5,1414 <xprintf+0x12c4>
     a44:	00178593          	addi	a1,a5,1
     a48:	00bda023          	sw	a1,0(s11)
     a4c:	00a78023          	sb	a0,0(a5)
     a50:	1a090a63          	beqz	s2,c04 <xprintf+0xab4>
     a54:	000da783          	lw	a5,0(s11)
     a58:	ffaa8913          	addi	s2,s5,-6
     a5c:	03010713          	addi	a4,sp,48
     a60:	012705b3          	add	a1,a4,s2
     a64:	ff05c503          	lbu	a0,-16(a1)
     a68:	1e0786e3          	beqz	a5,1454 <xprintf+0x1304>
     a6c:	00178593          	addi	a1,a5,1
     a70:	00bda023          	sw	a1,0(s11)
     a74:	00a78023          	sb	a0,0(a5)
     a78:	18090663          	beqz	s2,c04 <xprintf+0xab4>
     a7c:	000da783          	lw	a5,0(s11)
     a80:	ff9a8913          	addi	s2,s5,-7
     a84:	03010713          	addi	a4,sp,48
     a88:	012705b3          	add	a1,a4,s2
     a8c:	ff05c503          	lbu	a0,-16(a1)
     a90:	48078ae3          	beqz	a5,1724 <xprintf+0x15d4>
     a94:	00178593          	addi	a1,a5,1
     a98:	00bda023          	sw	a1,0(s11)
     a9c:	00a78023          	sb	a0,0(a5)
     aa0:	16090263          	beqz	s2,c04 <xprintf+0xab4>
     aa4:	000da783          	lw	a5,0(s11)
     aa8:	ff8a8913          	addi	s2,s5,-8
     aac:	03010713          	addi	a4,sp,48
     ab0:	012705b3          	add	a1,a4,s2
     ab4:	ff05c503          	lbu	a0,-16(a1)
     ab8:	4a0784e3          	beqz	a5,1760 <xprintf+0x1610>
     abc:	00178593          	addi	a1,a5,1
     ac0:	00bda023          	sw	a1,0(s11)
     ac4:	00a78023          	sb	a0,0(a5)
     ac8:	12090e63          	beqz	s2,c04 <xprintf+0xab4>
     acc:	000da783          	lw	a5,0(s11)
     ad0:	ff7a8913          	addi	s2,s5,-9
     ad4:	03010713          	addi	a4,sp,48
     ad8:	012705b3          	add	a1,a4,s2
     adc:	ff05c503          	lbu	a0,-16(a1)
     ae0:	4a0784e3          	beqz	a5,1788 <xprintf+0x1638>
     ae4:	00178593          	addi	a1,a5,1
     ae8:	00bda023          	sw	a1,0(s11)
     aec:	00a78023          	sb	a0,0(a5)
     af0:	10090a63          	beqz	s2,c04 <xprintf+0xab4>
     af4:	000da783          	lw	a5,0(s11)
     af8:	ff6a8913          	addi	s2,s5,-10
     afc:	03010713          	addi	a4,sp,48
     b00:	012705b3          	add	a1,a4,s2
     b04:	ff05c503          	lbu	a0,-16(a1)
     b08:	56078ce3          	beqz	a5,1880 <xprintf+0x1730>
     b0c:	00178593          	addi	a1,a5,1
     b10:	00bda023          	sw	a1,0(s11)
     b14:	00a78023          	sb	a0,0(a5)
     b18:	0e090663          	beqz	s2,c04 <xprintf+0xab4>
     b1c:	000da783          	lw	a5,0(s11)
     b20:	ff5a8913          	addi	s2,s5,-11
     b24:	03010713          	addi	a4,sp,48
     b28:	012705b3          	add	a1,a4,s2
     b2c:	ff05c503          	lbu	a0,-16(a1)
     b30:	460784e3          	beqz	a5,1798 <xprintf+0x1648>
     b34:	00178593          	addi	a1,a5,1
     b38:	00bda023          	sw	a1,0(s11)
     b3c:	00a78023          	sb	a0,0(a5)
     b40:	0c090263          	beqz	s2,c04 <xprintf+0xab4>
     b44:	000da783          	lw	a5,0(s11)
     b48:	ff4a8913          	addi	s2,s5,-12
     b4c:	03010713          	addi	a4,sp,48
     b50:	012705b3          	add	a1,a4,s2
     b54:	ff05c503          	lbu	a0,-16(a1)
     b58:	54078ce3          	beqz	a5,18b0 <xprintf+0x1760>
     b5c:	00178593          	addi	a1,a5,1
     b60:	00bda023          	sw	a1,0(s11)
     b64:	00a78023          	sb	a0,0(a5)
     b68:	08090e63          	beqz	s2,c04 <xprintf+0xab4>
     b6c:	000da783          	lw	a5,0(s11)
     b70:	ff3a8913          	addi	s2,s5,-13
     b74:	03010713          	addi	a4,sp,48
     b78:	012705b3          	add	a1,a4,s2
     b7c:	ff05c503          	lbu	a0,-16(a1)
     b80:	540780e3          	beqz	a5,18c0 <xprintf+0x1770>
     b84:	00178593          	addi	a1,a5,1
     b88:	00bda023          	sw	a1,0(s11)
     b8c:	00a78023          	sb	a0,0(a5)
     b90:	06090a63          	beqz	s2,c04 <xprintf+0xab4>
     b94:	000da783          	lw	a5,0(s11)
     b98:	ff2a8913          	addi	s2,s5,-14
     b9c:	03010713          	addi	a4,sp,48
     ba0:	012705b3          	add	a1,a4,s2
     ba4:	ff05c503          	lbu	a0,-16(a1)
     ba8:	660784e3          	beqz	a5,1a10 <xprintf+0x18c0>
     bac:	00178593          	addi	a1,a5,1
     bb0:	00bda023          	sw	a1,0(s11)
     bb4:	00a78023          	sb	a0,0(a5)
     bb8:	04090663          	beqz	s2,c04 <xprintf+0xab4>
     bbc:	000da783          	lw	a5,0(s11)
     bc0:	ff1a8913          	addi	s2,s5,-15
     bc4:	03010713          	addi	a4,sp,48
     bc8:	012705b3          	add	a1,a4,s2
     bcc:	ff05c503          	lbu	a0,-16(a1)
     bd0:	640788e3          	beqz	a5,1a20 <xprintf+0x18d0>
     bd4:	00178593          	addi	a1,a5,1
     bd8:	00bda023          	sw	a1,0(s11)
     bdc:	00a78023          	sb	a0,0(a5)
     be0:	02090263          	beqz	s2,c04 <xprintf+0xab4>
     be4:	000da783          	lw	a5,0(s11)
     be8:	03010713          	addi	a4,sp,48
     bec:	01570633          	add	a2,a4,s5
     bf0:	fe064503          	lbu	a0,-32(a2)
     bf4:	62078ee3          	beqz	a5,1a30 <xprintf+0x18e0>
     bf8:	00178613          	addi	a2,a5,1
     bfc:	00cda023          	sw	a2,0(s11)
     c00:	00a78023          	sb	a0,0(a5)
     c04:	00012783          	lw	a5,0(sp)
     c08:	5577fce3          	bgeu	a5,s7,1960 <xprintf+0x1810>
     c0c:	41ab8933          	sub	s2,s7,s10
     c10:	00797913          	andi	s2,s2,7
     c14:	10090063          	beqz	s2,d14 <xprintf+0xbc4>
     c18:	000da783          	lw	a5,0(s11)
     c1c:	60078e63          	beqz	a5,1238 <xprintf+0x10e8>
     c20:	00178613          	addi	a2,a5,1
     c24:	00cda023          	sw	a2,0(s11)
     c28:	02000613          	li	a2,32
     c2c:	00c78023          	sb	a2,0(a5)
     c30:	001d0c93          	addi	s9,s10,1
     c34:	1d7d7663          	bgeu	s10,s7,e00 <xprintf+0xcb0>
     c38:	00100793          	li	a5,1
     c3c:	000c8d13          	mv	s10,s9
     c40:	0cf90a63          	beq	s2,a5,d14 <xprintf+0xbc4>
     c44:	00200793          	li	a5,2
     c48:	0af90863          	beq	s2,a5,cf8 <xprintf+0xba8>
     c4c:	00300793          	li	a5,3
     c50:	08f90663          	beq	s2,a5,cdc <xprintf+0xb8c>
     c54:	00400793          	li	a5,4
     c58:	06f90463          	beq	s2,a5,cc0 <xprintf+0xb70>
     c5c:	00500793          	li	a5,5
     c60:	04f90263          	beq	s2,a5,ca4 <xprintf+0xb54>
     c64:	00600793          	li	a5,6
     c68:	02f90063          	beq	s2,a5,c88 <xprintf+0xb38>
     c6c:	000da783          	lw	a5,0(s11)
     c70:	640788e3          	beqz	a5,1ac0 <xprintf+0x1970>
     c74:	00178713          	addi	a4,a5,1
     c78:	00eda023          	sw	a4,0(s11)
     c7c:	02000713          	li	a4,32
     c80:	00e78023          	sb	a4,0(a5)
     c84:	001c8d13          	addi	s10,s9,1
     c88:	000da783          	lw	a5,0(s11)
     c8c:	3c078ae3          	beqz	a5,1860 <xprintf+0x1710>
     c90:	00178613          	addi	a2,a5,1
     c94:	00cda023          	sw	a2,0(s11)
     c98:	02000613          	li	a2,32
     c9c:	00c78023          	sb	a2,0(a5)
     ca0:	001d0d13          	addi	s10,s10,1
     ca4:	000da783          	lw	a5,0(s11)
     ca8:	300780e3          	beqz	a5,17a8 <xprintf+0x1658>
     cac:	00178613          	addi	a2,a5,1
     cb0:	00cda023          	sw	a2,0(s11)
     cb4:	02000613          	li	a2,32
     cb8:	00c78023          	sb	a2,0(a5)
     cbc:	001d0d13          	addi	s10,s10,1
     cc0:	000da783          	lw	a5,0(s11)
     cc4:	2a0786e3          	beqz	a5,1770 <xprintf+0x1620>
     cc8:	00178613          	addi	a2,a5,1
     ccc:	00cda023          	sw	a2,0(s11)
     cd0:	02000613          	li	a2,32
     cd4:	00c78023          	sb	a2,0(a5)
     cd8:	001d0d13          	addi	s10,s10,1
     cdc:	000da783          	lw	a5,0(s11)
     ce0:	220786e3          	beqz	a5,170c <xprintf+0x15bc>
     ce4:	00178613          	addi	a2,a5,1
     ce8:	00cda023          	sw	a2,0(s11)
     cec:	02000613          	li	a2,32
     cf0:	00c78023          	sb	a2,0(a5)
     cf4:	001d0d13          	addi	s10,s10,1
     cf8:	000da783          	lw	a5,0(s11)
     cfc:	72078463          	beqz	a5,1424 <xprintf+0x12d4>
     d00:	00178613          	addi	a2,a5,1
     d04:	00cda023          	sw	a2,0(s11)
     d08:	02000613          	li	a2,32
     d0c:	00c78023          	sb	a2,0(a5)
     d10:	001d0d13          	addi	s10,s10,1
     d14:	000da783          	lw	a5,0(s11)
     d18:	0c078863          	beqz	a5,de8 <xprintf+0xc98>
     d1c:	00178613          	addi	a2,a5,1
     d20:	00cda023          	sw	a2,0(s11)
     d24:	02000613          	li	a2,32
     d28:	00c78023          	sb	a2,0(a5)
     d2c:	001d0913          	addi	s2,s10,1
     d30:	0d7d7863          	bgeu	s10,s7,e00 <xprintf+0xcb0>
     d34:	000da783          	lw	a5,0(s11)
     d38:	5a078263          	beqz	a5,12dc <xprintf+0x118c>
     d3c:	00178713          	addi	a4,a5,1
     d40:	00eda023          	sw	a4,0(s11)
     d44:	02000713          	li	a4,32
     d48:	00e78023          	sb	a4,0(a5)
     d4c:	000da783          	lw	a5,0(s11)
     d50:	56078c63          	beqz	a5,12c8 <xprintf+0x1178>
     d54:	00178713          	addi	a4,a5,1
     d58:	00eda023          	sw	a4,0(s11)
     d5c:	02000713          	li	a4,32
     d60:	00e78023          	sb	a4,0(a5)
     d64:	000da783          	lw	a5,0(s11)
     d68:	54078663          	beqz	a5,12b4 <xprintf+0x1164>
     d6c:	00178713          	addi	a4,a5,1
     d70:	00eda023          	sw	a4,0(s11)
     d74:	02000713          	li	a4,32
     d78:	00e78023          	sb	a4,0(a5)
     d7c:	000da783          	lw	a5,0(s11)
     d80:	52078063          	beqz	a5,12a0 <xprintf+0x1150>
     d84:	00178713          	addi	a4,a5,1
     d88:	00eda023          	sw	a4,0(s11)
     d8c:	02000713          	li	a4,32
     d90:	00e78023          	sb	a4,0(a5)
     d94:	000da783          	lw	a5,0(s11)
     d98:	4e078a63          	beqz	a5,128c <xprintf+0x113c>
     d9c:	00178713          	addi	a4,a5,1
     da0:	00eda023          	sw	a4,0(s11)
     da4:	02000713          	li	a4,32
     da8:	00e78023          	sb	a4,0(a5)
     dac:	000da783          	lw	a5,0(s11)
     db0:	4a078663          	beqz	a5,125c <xprintf+0x110c>
     db4:	00178713          	addi	a4,a5,1
     db8:	00eda023          	sw	a4,0(s11)
     dbc:	02000713          	li	a4,32
     dc0:	00e78023          	sb	a4,0(a5)
     dc4:	000da783          	lw	a5,0(s11)
     dc8:	4a078663          	beqz	a5,1274 <xprintf+0x1124>
     dcc:	00178713          	addi	a4,a5,1
     dd0:	00eda023          	sw	a4,0(s11)
     dd4:	02000713          	li	a4,32
     dd8:	00e78023          	sb	a4,0(a5)
     ddc:	00790d13          	addi	s10,s2,7
     de0:	000da783          	lw	a5,0(s11)
     de4:	f2079ce3          	bnez	a5,d1c <xprintf+0xbcc>
     de8:	0644a783          	lw	a5,100(s1)
     dec:	f40780e3          	beqz	a5,d2c <xprintf+0xbdc>
     df0:	02000513          	li	a0,32
     df4:	000780e7          	jalr	a5
     df8:	001d0913          	addi	s2,s10,1
     dfc:	f37d6ce3          	bltu	s10,s7,d34 <xprintf+0xbe4>
     e00:	00812d83          	lw	s11,8(sp)
     e04:	bf0ff06f          	j	1f4 <xprintf+0xa4>
     e08:	000c4503          	lbu	a0,0(s8)
     e0c:	00496913          	ori	s2,s2,4
     e10:	001c0c13          	addi	s8,s8,1
     e14:	c8cff06f          	j	2a0 <xprintf+0x150>
     e18:	05500713          	li	a4,85
     e1c:	5ee78263          	beq	a5,a4,1400 <xprintf+0x12b0>
     e20:	05800713          	li	a4,88
     e24:	01000a93          	li	s5,16
     e28:	cae78c63          	beq	a5,a4,2e0 <xprintf+0x190>
     e2c:	05300713          	li	a4,83
     e30:	22e79a63          	bne	a5,a4,1064 <xprintf+0xf14>
     e34:	000dad03          	lw	s10,0(s11)
     e38:	004d8a93          	addi	s5,s11,4
     e3c:	000d4503          	lbu	a0,0(s10)
     e40:	560502e3          	beqz	a0,1ba4 <xprintf+0x1a54>
     e44:	00000793          	li	a5,0
     e48:	00078613          	mv	a2,a5
     e4c:	00178793          	addi	a5,a5,1
     e50:	00fd0733          	add	a4,s10,a5
     e54:	00074703          	lbu	a4,0(a4)
     e58:	00260c93          	addi	s9,a2,2
     e5c:	fe0716e3          	bnez	a4,e48 <xprintf+0xcf8>
     e60:	00297913          	andi	s2,s2,2
     e64:	5e0916e3          	bnez	s2,1c50 <xprintf+0x1b00>
     e68:	001c8d93          	addi	s11,s9,1
     e6c:	6777f663          	bgeu	a5,s7,14d8 <xprintf+0x1388>
     e70:	419b8933          	sub	s2,s7,s9
     e74:	00797913          	andi	s2,s2,7
     e78:	000c8793          	mv	a5,s9
     e7c:	06098d93          	addi	s11,s3,96
     e80:	10090063          	beqz	s2,f80 <xprintf+0xe30>
     e84:	000da783          	lw	a5,0(s11)
     e88:	18078ae3          	beqz	a5,181c <xprintf+0x16cc>
     e8c:	00178713          	addi	a4,a5,1
     e90:	00eda023          	sw	a4,0(s11)
     e94:	02000713          	li	a4,32
     e98:	00e78023          	sb	a4,0(a5)
     e9c:	001c8713          	addi	a4,s9,1
     ea0:	617cfe63          	bgeu	s9,s7,14bc <xprintf+0x136c>
     ea4:	00100593          	li	a1,1
     ea8:	00070793          	mv	a5,a4
     eac:	0cb90a63          	beq	s2,a1,f80 <xprintf+0xe30>
     eb0:	00200593          	li	a1,2
     eb4:	0ab90863          	beq	s2,a1,f64 <xprintf+0xe14>
     eb8:	00300593          	li	a1,3
     ebc:	08b90663          	beq	s2,a1,f48 <xprintf+0xdf8>
     ec0:	00400593          	li	a1,4
     ec4:	06b90463          	beq	s2,a1,f2c <xprintf+0xddc>
     ec8:	00500593          	li	a1,5
     ecc:	04b90263          	beq	s2,a1,f10 <xprintf+0xdc0>
     ed0:	00600593          	li	a1,6
     ed4:	02b90063          	beq	s2,a1,ef4 <xprintf+0xda4>
     ed8:	000da783          	lw	a5,0(s11)
     edc:	54078ae3          	beqz	a5,1c30 <xprintf+0x1ae0>
     ee0:	00178593          	addi	a1,a5,1
     ee4:	00bda023          	sw	a1,0(s11)
     ee8:	02000593          	li	a1,32
     eec:	00b78023          	sb	a1,0(a5)
     ef0:	00170793          	addi	a5,a4,1
     ef4:	000da703          	lw	a4,0(s11)
     ef8:	4e0704e3          	beqz	a4,1be0 <xprintf+0x1a90>
     efc:	00170593          	addi	a1,a4,1
     f00:	00bda023          	sw	a1,0(s11)
     f04:	02000593          	li	a1,32
     f08:	00b70023          	sb	a1,0(a4)
     f0c:	00178793          	addi	a5,a5,1
     f10:	000da703          	lw	a4,0(s11)
     f14:	3c070ee3          	beqz	a4,1af0 <xprintf+0x19a0>
     f18:	00170593          	addi	a1,a4,1
     f1c:	00bda023          	sw	a1,0(s11)
     f20:	02000593          	li	a1,32
     f24:	00b70023          	sb	a1,0(a4)
     f28:	00178793          	addi	a5,a5,1
     f2c:	000da703          	lw	a4,0(s11)
     f30:	360708e3          	beqz	a4,1aa0 <xprintf+0x1950>
     f34:	00170593          	addi	a1,a4,1
     f38:	00bda023          	sw	a1,0(s11)
     f3c:	02000593          	li	a1,32
     f40:	00b70023          	sb	a1,0(a4)
     f44:	00178793          	addi	a5,a5,1
     f48:	000da703          	lw	a4,0(s11)
     f4c:	3e070ae3          	beqz	a4,1b40 <xprintf+0x19f0>
     f50:	00170593          	addi	a1,a4,1
     f54:	00bda023          	sw	a1,0(s11)
     f58:	02000593          	li	a1,32
     f5c:	00b70023          	sb	a1,0(a4)
     f60:	00178793          	addi	a5,a5,1
     f64:	000da703          	lw	a4,0(s11)
     f68:	2c070ce3          	beqz	a4,1a40 <xprintf+0x18f0>
     f6c:	00170593          	addi	a1,a4,1
     f70:	00bda023          	sw	a1,0(s11)
     f74:	02000593          	li	a1,32
     f78:	00b70023          	sb	a1,0(a4)
     f7c:	00178793          	addi	a5,a5,1
     f80:	000da703          	lw	a4,0(s11)
     f84:	02070ee3          	beqz	a4,17c0 <xprintf+0x1670>
     f88:	00170593          	addi	a1,a4,1
     f8c:	00bda023          	sw	a1,0(s11)
     f90:	02000593          	li	a1,32
     f94:	00b70023          	sb	a1,0(a4)
     f98:	00178913          	addi	s2,a5,1
     f9c:	5377f063          	bgeu	a5,s7,14bc <xprintf+0x136c>
     fa0:	000da783          	lw	a5,0(s11)
     fa4:	1a0784e3          	beqz	a5,194c <xprintf+0x17fc>
     fa8:	00178713          	addi	a4,a5,1
     fac:	00eda023          	sw	a4,0(s11)
     fb0:	02000713          	li	a4,32
     fb4:	00e78023          	sb	a4,0(a5)
     fb8:	000da783          	lw	a5,0(s11)
     fbc:	16078ee3          	beqz	a5,1938 <xprintf+0x17e8>
     fc0:	00178713          	addi	a4,a5,1
     fc4:	00eda023          	sw	a4,0(s11)
     fc8:	02000713          	li	a4,32
     fcc:	00e78023          	sb	a4,0(a5)
     fd0:	000da783          	lw	a5,0(s11)
     fd4:	140788e3          	beqz	a5,1924 <xprintf+0x17d4>
     fd8:	00178713          	addi	a4,a5,1
     fdc:	00eda023          	sw	a4,0(s11)
     fe0:	02000713          	li	a4,32
     fe4:	00e78023          	sb	a4,0(a5)
     fe8:	000da783          	lw	a5,0(s11)
     fec:	120782e3          	beqz	a5,1910 <xprintf+0x17c0>
     ff0:	00178713          	addi	a4,a5,1
     ff4:	00eda023          	sw	a4,0(s11)
     ff8:	02000713          	li	a4,32
     ffc:	00e78023          	sb	a4,0(a5)
    1000:	000da783          	lw	a5,0(s11)
    1004:	0e078ce3          	beqz	a5,18fc <xprintf+0x17ac>
    1008:	00178713          	addi	a4,a5,1
    100c:	00eda023          	sw	a4,0(s11)
    1010:	02000713          	li	a4,32
    1014:	00e78023          	sb	a4,0(a5)
    1018:	000da783          	lw	a5,0(s11)
    101c:	0c0786e3          	beqz	a5,18e8 <xprintf+0x1798>
    1020:	00178713          	addi	a4,a5,1
    1024:	00eda023          	sw	a4,0(s11)
    1028:	02000713          	li	a4,32
    102c:	00e78023          	sb	a4,0(a5)
    1030:	000da783          	lw	a5,0(s11)
    1034:	08078ee3          	beqz	a5,18d0 <xprintf+0x1780>
    1038:	00178713          	addi	a4,a5,1
    103c:	00eda023          	sw	a4,0(s11)
    1040:	02000713          	li	a4,32
    1044:	00e78023          	sb	a4,0(a5)
    1048:	00790793          	addi	a5,s2,7
    104c:	000da703          	lw	a4,0(s11)
    1050:	f2071ce3          	bnez	a4,f88 <xprintf+0xe38>
    1054:	76c0006f          	j	17c0 <xprintf+0x1670>
    1058:	04200713          	li	a4,66
    105c:	00200a93          	li	s5,2
    1060:	a8e78063          	beq	a5,a4,2e0 <xprintf+0x190>
    1064:	06098713          	addi	a4,s3,96
    1068:	00072783          	lw	a5,0(a4)
    106c:	78078e63          	beqz	a5,1808 <xprintf+0x16b8>
    1070:	00178693          	addi	a3,a5,1
    1074:	00d72023          	sw	a3,0(a4)
    1078:	00a78023          	sb	a0,0(a5)
    107c:	978ff06f          	j	1f4 <xprintf+0xa4>
    1080:	0644a783          	lw	a5,100(s1)
    1084:	00070c13          	mv	s8,a4
    1088:	96078663          	beqz	a5,1f4 <xprintf+0xa4>
    108c:	000780e7          	jalr	a5
    1090:	964ff06f          	j	1f4 <xprintf+0xa4>
    1094:	002c4503          	lbu	a0,2(s8)
    1098:	00100913          	li	s2,1
    109c:	003c0c13          	addi	s8,s8,3
    10a0:	fd050793          	addi	a5,a0,-48
    10a4:	0ff7f793          	zext.b	a5,a5
    10a8:	9cf47063          	bgeu	s0,a5,268 <xprintf+0x118>
    10ac:	0df57793          	andi	a5,a0,223
    10b0:	04c00713          	li	a4,76
    10b4:	00000b93          	li	s7,0
    10b8:	9ee79463          	bne	a5,a4,2a0 <xprintf+0x150>
    10bc:	d4dff06f          	j	e08 <xprintf+0xcb8>
    10c0:	04400713          	li	a4,68
    10c4:	28e78e63          	beq	a5,a4,1360 <xprintf+0x1210>
    10c8:	000dad03          	lw	s10,0(s11)
    10cc:	00012023          	sw	zero,0(sp)
    10d0:	a38ff06f          	j	308 <xprintf+0x1b8>
    10d4:	01879793          	slli	a5,a5,0x18
    10d8:	4187d793          	srai	a5,a5,0x18
    10dc:	03078793          	addi	a5,a5,48
    10e0:	02f10023          	sb	a5,32(sp)
    10e4:	a95d7063          	bgeu	s10,s5,364 <xprintf+0x214>
    10e8:	00100a93          	li	s5,1
    10ec:	00000713          	li	a4,0
    10f0:	e84ff06f          	j	774 <xprintf+0x624>
    10f4:	01879793          	slli	a5,a5,0x18
    10f8:	4187d793          	srai	a5,a5,0x18
    10fc:	03078793          	addi	a5,a5,48
    1100:	02f100a3          	sb	a5,33(sp)
    1104:	ab5cf263          	bgeu	s9,s5,3a8 <xprintf+0x258>
    1108:	00200a93          	li	s5,2
    110c:	00100713          	li	a4,1
    1110:	e64ff06f          	j	774 <xprintf+0x624>
    1114:	0644a703          	lw	a4,100(s1)
    1118:	00070a63          	beqz	a4,112c <xprintf+0xfdc>
    111c:	000c8513          	mv	a0,s9
    1120:	000700e7          	jalr	a4
    1124:	000da783          	lw	a5,0(s11)
    1128:	fe079063          	bnez	a5,908 <xprintf+0x7b8>
    112c:	0644a703          	lw	a4,100(s1)
    1130:	00070a63          	beqz	a4,1144 <xprintf+0xff4>
    1134:	000c8513          	mv	a0,s9
    1138:	000700e7          	jalr	a4
    113c:	000da783          	lw	a5,0(s11)
    1140:	fc079e63          	bnez	a5,91c <xprintf+0x7cc>
    1144:	0644a703          	lw	a4,100(s1)
    1148:	00070a63          	beqz	a4,115c <xprintf+0x100c>
    114c:	000c8513          	mv	a0,s9
    1150:	000700e7          	jalr	a4
    1154:	000da783          	lw	a5,0(s11)
    1158:	fc079c63          	bnez	a5,930 <xprintf+0x7e0>
    115c:	0644a703          	lw	a4,100(s1)
    1160:	00070a63          	beqz	a4,1174 <xprintf+0x1024>
    1164:	000c8513          	mv	a0,s9
    1168:	000700e7          	jalr	a4
    116c:	000da783          	lw	a5,0(s11)
    1170:	fc079a63          	bnez	a5,944 <xprintf+0x7f4>
    1174:	0644a703          	lw	a4,100(s1)
    1178:	00070a63          	beqz	a4,118c <xprintf+0x103c>
    117c:	000c8513          	mv	a0,s9
    1180:	000700e7          	jalr	a4
    1184:	000da783          	lw	a5,0(s11)
    1188:	fc079863          	bnez	a5,958 <xprintf+0x808>
    118c:	0644a703          	lw	a4,100(s1)
    1190:	fc070c63          	beqz	a4,968 <xprintf+0x818>
    1194:	000c8513          	mv	a0,s9
    1198:	000700e7          	jalr	a4
    119c:	000da783          	lw	a5,0(s11)
    11a0:	00790d13          	addi	s10,s2,7
    11a4:	fc8ff06f          	j	96c <xprintf+0x81c>
    11a8:	0644a703          	lw	a4,100(s1)
    11ac:	f60704e3          	beqz	a4,1114 <xprintf+0xfc4>
    11b0:	000c8513          	mv	a0,s9
    11b4:	000700e7          	jalr	a4
    11b8:	000da783          	lw	a5,0(s11)
    11bc:	f34ff06f          	j	8f0 <xprintf+0x7a0>
    11c0:	0644a783          	lw	a5,100(s1)
    11c4:	fe078663          	beqz	a5,9b0 <xprintf+0x860>
    11c8:	000780e7          	jalr	a5
    11cc:	fe4ff06f          	j	9b0 <xprintf+0x860>
    11d0:	01879793          	slli	a5,a5,0x18
    11d4:	4187d793          	srai	a5,a5,0x18
    11d8:	03078793          	addi	a5,a5,48
    11dc:	02f10123          	sb	a5,34(sp)
    11e0:	a15d7663          	bgeu	s10,s5,3ec <xprintf+0x29c>
    11e4:	00300a93          	li	s5,3
    11e8:	00200713          	li	a4,2
    11ec:	d88ff06f          	j	774 <xprintf+0x624>
    11f0:	01879793          	slli	a5,a5,0x18
    11f4:	4187d793          	srai	a5,a5,0x18
    11f8:	03078793          	addi	a5,a5,48
    11fc:	02f101a3          	sb	a5,35(sp)
    1200:	a35cf863          	bgeu	s9,s5,430 <xprintf+0x2e0>
    1204:	00400a93          	li	s5,4
    1208:	00300713          	li	a4,3
    120c:	d68ff06f          	j	774 <xprintf+0x624>
    1210:	002c4503          	lbu	a0,2(s8)
    1214:	00200913          	li	s2,2
    1218:	003c0c13          	addi	s8,s8,3
    121c:	840ff06f          	j	25c <xprintf+0x10c>
    1220:	0644a583          	lw	a1,100(s1)
    1224:	dc058463          	beqz	a1,7ec <xprintf+0x69c>
    1228:	000c8513          	mv	a0,s9
    122c:	000580e7          	jalr	a1
    1230:	000da783          	lw	a5,0(s11)
    1234:	db8ff06f          	j	7ec <xprintf+0x69c>
    1238:	0644a783          	lw	a5,100(s1)
    123c:	9e078ae3          	beqz	a5,c30 <xprintf+0xae0>
    1240:	02000513          	li	a0,32
    1244:	000780e7          	jalr	a5
    1248:	9e9ff06f          	j	c30 <xprintf+0xae0>
    124c:	0644a783          	lw	a5,100(s1)
    1250:	f8078463          	beqz	a5,9d8 <xprintf+0x888>
    1254:	000780e7          	jalr	a5
    1258:	f80ff06f          	j	9d8 <xprintf+0x888>
    125c:	0644a783          	lw	a5,100(s1)
    1260:	b60782e3          	beqz	a5,dc4 <xprintf+0xc74>
    1264:	02000513          	li	a0,32
    1268:	000780e7          	jalr	a5
    126c:	000da783          	lw	a5,0(s11)
    1270:	b4079ee3          	bnez	a5,dcc <xprintf+0xc7c>
    1274:	0644a783          	lw	a5,100(s1)
    1278:	b60782e3          	beqz	a5,ddc <xprintf+0xc8c>
    127c:	02000513          	li	a0,32
    1280:	000780e7          	jalr	a5
    1284:	00790d13          	addi	s10,s2,7
    1288:	b59ff06f          	j	de0 <xprintf+0xc90>
    128c:	0644a783          	lw	a5,100(s1)
    1290:	b0078ee3          	beqz	a5,dac <xprintf+0xc5c>
    1294:	02000513          	li	a0,32
    1298:	000780e7          	jalr	a5
    129c:	b11ff06f          	j	dac <xprintf+0xc5c>
    12a0:	0644a783          	lw	a5,100(s1)
    12a4:	ae0788e3          	beqz	a5,d94 <xprintf+0xc44>
    12a8:	02000513          	li	a0,32
    12ac:	000780e7          	jalr	a5
    12b0:	ae5ff06f          	j	d94 <xprintf+0xc44>
    12b4:	0644a783          	lw	a5,100(s1)
    12b8:	ac0782e3          	beqz	a5,d7c <xprintf+0xc2c>
    12bc:	02000513          	li	a0,32
    12c0:	000780e7          	jalr	a5
    12c4:	ab9ff06f          	j	d7c <xprintf+0xc2c>
    12c8:	0644a783          	lw	a5,100(s1)
    12cc:	a8078ce3          	beqz	a5,d64 <xprintf+0xc14>
    12d0:	02000513          	li	a0,32
    12d4:	000780e7          	jalr	a5
    12d8:	a8dff06f          	j	d64 <xprintf+0xc14>
    12dc:	0644a783          	lw	a5,100(s1)
    12e0:	a60786e3          	beqz	a5,d4c <xprintf+0xbfc>
    12e4:	02000513          	li	a0,32
    12e8:	000780e7          	jalr	a5
    12ec:	a61ff06f          	j	d4c <xprintf+0xbfc>
    12f0:	01879793          	slli	a5,a5,0x18
    12f4:	4187d793          	srai	a5,a5,0x18
    12f8:	03078793          	addi	a5,a5,48
    12fc:	02f10223          	sb	a5,36(sp)
    1300:	975d7a63          	bgeu	s10,s5,474 <xprintf+0x324>
    1304:	00500a93          	li	s5,5
    1308:	00400713          	li	a4,4
    130c:	c68ff06f          	j	774 <xprintf+0x624>
    1310:	01879793          	slli	a5,a5,0x18
    1314:	4187d793          	srai	a5,a5,0x18
    1318:	03078793          	addi	a5,a5,48
    131c:	02f102a3          	sb	a5,37(sp)
    1320:	995cfc63          	bgeu	s9,s5,4b8 <xprintf+0x368>
    1324:	00600a93          	li	s5,6
    1328:	00500713          	li	a4,5
    132c:	c48ff06f          	j	774 <xprintf+0x624>
    1330:	0644a783          	lw	a5,100(s1)
    1334:	ec078663          	beqz	a5,a00 <xprintf+0x8b0>
    1338:	000780e7          	jalr	a5
    133c:	ec4ff06f          	j	a00 <xprintf+0x8b0>
    1340:	01879793          	slli	a5,a5,0x18
    1344:	4187d793          	srai	a5,a5,0x18
    1348:	03078793          	addi	a5,a5,48
    134c:	02f10323          	sb	a5,38(sp)
    1350:	9b5d7663          	bgeu	s10,s5,4fc <xprintf+0x3ac>
    1354:	00700a93          	li	s5,7
    1358:	00600713          	li	a4,6
    135c:	c18ff06f          	j	774 <xprintf+0x624>
    1360:	000da703          	lw	a4,0(s11)
    1364:	00070d13          	mv	s10,a4
    1368:	00012023          	sw	zero,0(sp)
    136c:	00074463          	bltz	a4,1374 <xprintf+0x1224>
    1370:	f99fe06f          	j	308 <xprintf+0x1b8>
    1374:	00800793          	li	a5,8
    1378:	00f12023          	sw	a5,0(sp)
    137c:	41a00d33          	neg	s10,s10
    1380:	00896913          	ori	s2,s2,8
    1384:	f85fe06f          	j	308 <xprintf+0x1b8>
    1388:	01879793          	slli	a5,a5,0x18
    138c:	4187d793          	srai	a5,a5,0x18
    1390:	03078793          	addi	a5,a5,48
    1394:	02f103a3          	sb	a5,39(sp)
    1398:	9b5cf463          	bgeu	s9,s5,540 <xprintf+0x3f0>
    139c:	00800a93          	li	s5,8
    13a0:	00700713          	li	a4,7
    13a4:	bd0ff06f          	j	774 <xprintf+0x624>
    13a8:	0644a783          	lw	a5,100(s1)
    13ac:	e6078e63          	beqz	a5,a28 <xprintf+0x8d8>
    13b0:	000780e7          	jalr	a5
    13b4:	e74ff06f          	j	a28 <xprintf+0x8d8>
    13b8:	01879793          	slli	a5,a5,0x18
    13bc:	4187d793          	srai	a5,a5,0x18
    13c0:	03078793          	addi	a5,a5,48
    13c4:	02f10423          	sb	a5,40(sp)
    13c8:	9b5d7e63          	bgeu	s10,s5,584 <xprintf+0x434>
    13cc:	00800713          	li	a4,8
    13d0:	00900a93          	li	s5,9
    13d4:	ba0ff06f          	j	774 <xprintf+0x624>
    13d8:	0644a583          	lw	a1,100(s1)
    13dc:	ce058063          	beqz	a1,8bc <xprintf+0x76c>
    13e0:	000c8513          	mv	a0,s9
    13e4:	000580e7          	jalr	a1
    13e8:	000da783          	lw	a5,0(s11)
    13ec:	001d0d13          	addi	s10,s10,1
    13f0:	cd0ff06f          	j	8c0 <xprintf+0x770>
    13f4:	01879793          	slli	a5,a5,0x18
    13f8:	4187d793          	srai	a5,a5,0x18
    13fc:	9c0ff06f          	j	5bc <xprintf+0x46c>
    1400:	00a00a93          	li	s5,10
    1404:	eddfe06f          	j	2e0 <xprintf+0x190>
    1408:	01879793          	slli	a5,a5,0x18
    140c:	4187d793          	srai	a5,a5,0x18
    1410:	9f4ff06f          	j	604 <xprintf+0x4b4>
    1414:	0644a783          	lw	a5,100(s1)
    1418:	e2078c63          	beqz	a5,a50 <xprintf+0x900>
    141c:	000780e7          	jalr	a5
    1420:	e30ff06f          	j	a50 <xprintf+0x900>
    1424:	0644a783          	lw	a5,100(s1)
    1428:	8e0784e3          	beqz	a5,d10 <xprintf+0xbc0>
    142c:	02000513          	li	a0,32
    1430:	000780e7          	jalr	a5
    1434:	001d0d13          	addi	s10,s10,1
    1438:	8ddff06f          	j	d14 <xprintf+0xbc4>
    143c:	01879793          	slli	a5,a5,0x18
    1440:	4187d793          	srai	a5,a5,0x18
    1444:	a18ff06f          	j	65c <xprintf+0x50c>
    1448:	01879793          	slli	a5,a5,0x18
    144c:	4187d793          	srai	a5,a5,0x18
    1450:	a54ff06f          	j	6a4 <xprintf+0x554>
    1454:	0644a783          	lw	a5,100(s1)
    1458:	e2078063          	beqz	a5,a78 <xprintf+0x928>
    145c:	000780e7          	jalr	a5
    1460:	e18ff06f          	j	a78 <xprintf+0x928>
    1464:	0644a583          	lw	a1,100(s1)
    1468:	c2058e63          	beqz	a1,8a4 <xprintf+0x754>
    146c:	000c8513          	mv	a0,s9
    1470:	000580e7          	jalr	a1
    1474:	000da783          	lw	a5,0(s11)
    1478:	001d0d13          	addi	s10,s10,1
    147c:	c2cff06f          	j	8a8 <xprintf+0x758>
    1480:	00800a93          	li	s5,8
    1484:	e5dfe06f          	j	2e0 <xprintf+0x190>
    1488:	06098713          	addi	a4,s3,96
    148c:	00072783          	lw	a5,0(a4)
    1490:	000dc503          	lbu	a0,0(s11)
    1494:	004d8c93          	addi	s9,s11,4
    1498:	34078263          	beqz	a5,17dc <xprintf+0x168c>
    149c:	00178693          	addi	a3,a5,1
    14a0:	000c8d93          	mv	s11,s9
    14a4:	00d72023          	sw	a3,0(a4)
    14a8:	00a78023          	sb	a0,0(a5)
    14ac:	d49fe06f          	j	1f4 <xprintf+0xa4>
    14b0:	01879793          	slli	a5,a5,0x18
    14b4:	4187d793          	srai	a5,a5,0x18
    14b8:	a44ff06f          	j	6fc <xprintf+0x5ac>
    14bc:	00000d93          	li	s11,0
    14c0:	019be463          	bltu	s7,s9,14c8 <xprintf+0x1378>
    14c4:	419b8db3          	sub	s11,s7,s9
    14c8:	000d4503          	lbu	a0,0(s10)
    14cc:	019d8db3          	add	s11,s11,s9
    14d0:	001d8c93          	addi	s9,s11,1
    14d4:	002d8d93          	addi	s11,s11,2
    14d8:	04050063          	beqz	a0,1518 <xprintf+0x13c8>
    14dc:	06098913          	addi	s2,s3,96
    14e0:	0180006f          	j	14f8 <xprintf+0x13a8>
    14e4:	00178713          	addi	a4,a5,1
    14e8:	00e92023          	sw	a4,0(s2)
    14ec:	00a78023          	sb	a0,0(a5)
    14f0:	000d4503          	lbu	a0,0(s10)
    14f4:	02050263          	beqz	a0,1518 <xprintf+0x13c8>
    14f8:	00092783          	lw	a5,0(s2)
    14fc:	0644a703          	lw	a4,100(s1)
    1500:	001d0d13          	addi	s10,s10,1
    1504:	fe0790e3          	bnez	a5,14e4 <xprintf+0x1394>
    1508:	fe0704e3          	beqz	a4,14f0 <xprintf+0x13a0>
    150c:	000700e7          	jalr	a4
    1510:	000d4503          	lbu	a0,0(s10)
    1514:	fe0512e3          	bnez	a0,14f8 <xprintf+0x13a8>
    1518:	06098913          	addi	s2,s3,96
    151c:	6b7cf263          	bgeu	s9,s7,1bc0 <xprintf+0x1a70>
    1520:	41bb8d33          	sub	s10,s7,s11
    1524:	007d7d13          	andi	s10,s10,7
    1528:	100d0063          	beqz	s10,1628 <xprintf+0x14d8>
    152c:	00092783          	lw	a5,0(s2)
    1530:	30078063          	beqz	a5,1830 <xprintf+0x16e0>
    1534:	00178713          	addi	a4,a5,1
    1538:	00e92023          	sw	a4,0(s2)
    153c:	02000713          	li	a4,32
    1540:	00e78023          	sb	a4,0(a5)
    1544:	001d8c93          	addi	s9,s11,1
    1548:	337df863          	bgeu	s11,s7,1878 <xprintf+0x1728>
    154c:	00100713          	li	a4,1
    1550:	000c8d93          	mv	s11,s9
    1554:	0ced0a63          	beq	s10,a4,1628 <xprintf+0x14d8>
    1558:	00200713          	li	a4,2
    155c:	0aed0863          	beq	s10,a4,160c <xprintf+0x14bc>
    1560:	00300713          	li	a4,3
    1564:	08ed0663          	beq	s10,a4,15f0 <xprintf+0x14a0>
    1568:	00400713          	li	a4,4
    156c:	06ed0463          	beq	s10,a4,15d4 <xprintf+0x1484>
    1570:	00500713          	li	a4,5
    1574:	04ed0263          	beq	s10,a4,15b8 <xprintf+0x1468>
    1578:	00600713          	li	a4,6
    157c:	02ed0063          	beq	s10,a4,159c <xprintf+0x144c>
    1580:	00092703          	lw	a4,0(s2)
    1584:	68070a63          	beqz	a4,1c18 <xprintf+0x1ac8>
    1588:	00170613          	addi	a2,a4,1
    158c:	00c92023          	sw	a2,0(s2)
    1590:	02000613          	li	a2,32
    1594:	00c70023          	sb	a2,0(a4)
    1598:	001c8d93          	addi	s11,s9,1
    159c:	00092783          	lw	a5,0(s2)
    15a0:	66078063          	beqz	a5,1c00 <xprintf+0x1ab0>
    15a4:	00178713          	addi	a4,a5,1
    15a8:	00e92023          	sw	a4,0(s2)
    15ac:	02000713          	li	a4,32
    15b0:	00e78023          	sb	a4,0(a5)
    15b4:	001d8d93          	addi	s11,s11,1
    15b8:	00092783          	lw	a5,0(s2)
    15bc:	54078a63          	beqz	a5,1b10 <xprintf+0x19c0>
    15c0:	00178713          	addi	a4,a5,1
    15c4:	00e92023          	sw	a4,0(s2)
    15c8:	02000713          	li	a4,32
    15cc:	00e78023          	sb	a4,0(a5)
    15d0:	001d8d93          	addi	s11,s11,1
    15d4:	00092783          	lw	a5,0(s2)
    15d8:	50078063          	beqz	a5,1ad8 <xprintf+0x1988>
    15dc:	00178713          	addi	a4,a5,1
    15e0:	00e92023          	sw	a4,0(s2)
    15e4:	02000713          	li	a4,32
    15e8:	00e78023          	sb	a4,0(a5)
    15ec:	001d8d93          	addi	s11,s11,1
    15f0:	00092783          	lw	a5,0(s2)
    15f4:	46078663          	beqz	a5,1a60 <xprintf+0x1910>
    15f8:	00178713          	addi	a4,a5,1
    15fc:	00e92023          	sw	a4,0(s2)
    1600:	02000713          	li	a4,32
    1604:	00e78023          	sb	a4,0(a5)
    1608:	001d8d93          	addi	s11,s11,1
    160c:	00092783          	lw	a5,0(s2)
    1610:	50078c63          	beqz	a5,1b28 <xprintf+0x19d8>
    1614:	00178713          	addi	a4,a5,1
    1618:	00e92023          	sw	a4,0(s2)
    161c:	02000713          	li	a4,32
    1620:	00e78023          	sb	a4,0(a5)
    1624:	001d8d93          	addi	s11,s11,1
    1628:	00092783          	lw	a5,0(s2)
    162c:	1c078463          	beqz	a5,17f4 <xprintf+0x16a4>
    1630:	00178713          	addi	a4,a5,1
    1634:	00e92023          	sw	a4,0(s2)
    1638:	02000713          	li	a4,32
    163c:	00e78023          	sb	a4,0(a5)
    1640:	001d8d13          	addi	s10,s11,1
    1644:	237dfa63          	bgeu	s11,s7,1878 <xprintf+0x1728>
    1648:	00092783          	lw	a5,0(s2)
    164c:	30078e63          	beqz	a5,1968 <xprintf+0x1818>
    1650:	00178713          	addi	a4,a5,1
    1654:	00e92023          	sw	a4,0(s2)
    1658:	02000713          	li	a4,32
    165c:	00e78023          	sb	a4,0(a5)
    1660:	00092783          	lw	a5,0(s2)
    1664:	30078e63          	beqz	a5,1980 <xprintf+0x1830>
    1668:	00178713          	addi	a4,a5,1
    166c:	00e92023          	sw	a4,0(s2)
    1670:	02000713          	li	a4,32
    1674:	00e78023          	sb	a4,0(a5)
    1678:	00092783          	lw	a5,0(s2)
    167c:	30078e63          	beqz	a5,1998 <xprintf+0x1848>
    1680:	00178713          	addi	a4,a5,1
    1684:	00e92023          	sw	a4,0(s2)
    1688:	02000713          	li	a4,32
    168c:	00e78023          	sb	a4,0(a5)
    1690:	00092783          	lw	a5,0(s2)
    1694:	30078e63          	beqz	a5,19b0 <xprintf+0x1860>
    1698:	00178713          	addi	a4,a5,1
    169c:	00e92023          	sw	a4,0(s2)
    16a0:	02000713          	li	a4,32
    16a4:	00e78023          	sb	a4,0(a5)
    16a8:	00092783          	lw	a5,0(s2)
    16ac:	30078e63          	beqz	a5,19c8 <xprintf+0x1878>
    16b0:	00178713          	addi	a4,a5,1
    16b4:	00e92023          	sw	a4,0(s2)
    16b8:	02000713          	li	a4,32
    16bc:	00e78023          	sb	a4,0(a5)
    16c0:	00092783          	lw	a5,0(s2)
    16c4:	30078e63          	beqz	a5,19e0 <xprintf+0x1890>
    16c8:	00178713          	addi	a4,a5,1
    16cc:	00e92023          	sw	a4,0(s2)
    16d0:	02000713          	li	a4,32
    16d4:	00e78023          	sb	a4,0(a5)
    16d8:	00092783          	lw	a5,0(s2)
    16dc:	30078e63          	beqz	a5,19f8 <xprintf+0x18a8>
    16e0:	00178713          	addi	a4,a5,1
    16e4:	00e92023          	sw	a4,0(s2)
    16e8:	02000713          	li	a4,32
    16ec:	00e78023          	sb	a4,0(a5)
    16f0:	007d0d93          	addi	s11,s10,7
    16f4:	00092783          	lw	a5,0(s2)
    16f8:	f2079ce3          	bnez	a5,1630 <xprintf+0x14e0>
    16fc:	0f80006f          	j	17f4 <xprintf+0x16a4>
    1700:	01879793          	slli	a5,a5,0x18
    1704:	4187d793          	srai	a5,a5,0x18
    1708:	838ff06f          	j	740 <xprintf+0x5f0>
    170c:	0644a783          	lw	a5,100(s1)
    1710:	de078263          	beqz	a5,cf4 <xprintf+0xba4>
    1714:	02000513          	li	a0,32
    1718:	000780e7          	jalr	a5
    171c:	001d0d13          	addi	s10,s10,1
    1720:	dd8ff06f          	j	cf8 <xprintf+0xba8>
    1724:	0644a783          	lw	a5,100(s1)
    1728:	b6078c63          	beqz	a5,aa0 <xprintf+0x950>
    172c:	000780e7          	jalr	a5
    1730:	b70ff06f          	j	aa0 <xprintf+0x950>
    1734:	00ad87b3          	add	a5,s11,a0
    1738:	01879793          	slli	a5,a5,0x18
    173c:	4187d793          	srai	a5,a5,0x18
    1740:	824ff06f          	j	764 <xprintf+0x614>
    1744:	0644a583          	lw	a1,100(s1)
    1748:	94058263          	beqz	a1,88c <xprintf+0x73c>
    174c:	000c8513          	mv	a0,s9
    1750:	000580e7          	jalr	a1
    1754:	000da783          	lw	a5,0(s11)
    1758:	001d0d13          	addi	s10,s10,1
    175c:	934ff06f          	j	890 <xprintf+0x740>
    1760:	0644a783          	lw	a5,100(s1)
    1764:	b6078263          	beqz	a5,ac8 <xprintf+0x978>
    1768:	000780e7          	jalr	a5
    176c:	b5cff06f          	j	ac8 <xprintf+0x978>
    1770:	0644a783          	lw	a5,100(s1)
    1774:	d6078263          	beqz	a5,cd8 <xprintf+0xb88>
    1778:	02000513          	li	a0,32
    177c:	000780e7          	jalr	a5
    1780:	001d0d13          	addi	s10,s10,1
    1784:	d58ff06f          	j	cdc <xprintf+0xb8c>
    1788:	0644a783          	lw	a5,100(s1)
    178c:	b6078263          	beqz	a5,af0 <xprintf+0x9a0>
    1790:	000780e7          	jalr	a5
    1794:	b5cff06f          	j	af0 <xprintf+0x9a0>
    1798:	0644a783          	lw	a5,100(s1)
    179c:	ba078263          	beqz	a5,b40 <xprintf+0x9f0>
    17a0:	000780e7          	jalr	a5
    17a4:	b9cff06f          	j	b40 <xprintf+0x9f0>
    17a8:	0644a783          	lw	a5,100(s1)
    17ac:	d0078863          	beqz	a5,cbc <xprintf+0xb6c>
    17b0:	02000513          	li	a0,32
    17b4:	000780e7          	jalr	a5
    17b8:	001d0d13          	addi	s10,s10,1
    17bc:	d04ff06f          	j	cc0 <xprintf+0xb70>
    17c0:	0644a703          	lw	a4,100(s1)
    17c4:	fc070a63          	beqz	a4,f98 <xprintf+0xe48>
    17c8:	02000513          	li	a0,32
    17cc:	00f12023          	sw	a5,0(sp)
    17d0:	000700e7          	jalr	a4
    17d4:	00012783          	lw	a5,0(sp)
    17d8:	fc0ff06f          	j	f98 <xprintf+0xe48>
    17dc:	0644a783          	lw	a5,100(s1)
    17e0:	000c8d93          	mv	s11,s9
    17e4:	00079463          	bnez	a5,17ec <xprintf+0x169c>
    17e8:	a0dfe06f          	j	1f4 <xprintf+0xa4>
    17ec:	000780e7          	jalr	a5
    17f0:	a05fe06f          	j	1f4 <xprintf+0xa4>
    17f4:	0644a783          	lw	a5,100(s1)
    17f8:	e40784e3          	beqz	a5,1640 <xprintf+0x14f0>
    17fc:	02000513          	li	a0,32
    1800:	000780e7          	jalr	a5
    1804:	e3dff06f          	j	1640 <xprintf+0x14f0>
    1808:	0644a783          	lw	a5,100(s1)
    180c:	00079463          	bnez	a5,1814 <xprintf+0x16c4>
    1810:	9e5fe06f          	j	1f4 <xprintf+0xa4>
    1814:	000780e7          	jalr	a5
    1818:	9ddfe06f          	j	1f4 <xprintf+0xa4>
    181c:	0644a783          	lw	a5,100(s1)
    1820:	e6078e63          	beqz	a5,e9c <xprintf+0xd4c>
    1824:	02000513          	li	a0,32
    1828:	000780e7          	jalr	a5
    182c:	e70ff06f          	j	e9c <xprintf+0xd4c>
    1830:	0644a783          	lw	a5,100(s1)
    1834:	d00788e3          	beqz	a5,1544 <xprintf+0x13f4>
    1838:	02000513          	li	a0,32
    183c:	000780e7          	jalr	a5
    1840:	d05ff06f          	j	1544 <xprintf+0x13f4>
    1844:	0644a583          	lw	a1,100(s1)
    1848:	80058863          	beqz	a1,858 <xprintf+0x708>
    184c:	000c8513          	mv	a0,s9
    1850:	000580e7          	jalr	a1
    1854:	000da783          	lw	a5,0(s11)
    1858:	001d0d13          	addi	s10,s10,1
    185c:	800ff06f          	j	85c <xprintf+0x70c>
    1860:	0644a783          	lw	a5,100(s1)
    1864:	c2078e63          	beqz	a5,ca0 <xprintf+0xb50>
    1868:	02000513          	li	a0,32
    186c:	000780e7          	jalr	a5
    1870:	001d0d13          	addi	s10,s10,1
    1874:	c30ff06f          	j	ca4 <xprintf+0xb54>
    1878:	000a8d93          	mv	s11,s5
    187c:	979fe06f          	j	1f4 <xprintf+0xa4>
    1880:	0644a783          	lw	a5,100(s1)
    1884:	a8078a63          	beqz	a5,b18 <xprintf+0x9c8>
    1888:	000780e7          	jalr	a5
    188c:	a8cff06f          	j	b18 <xprintf+0x9c8>
    1890:	0644a583          	lw	a1,100(s1)
    1894:	00059463          	bnez	a1,189c <xprintf+0x174c>
    1898:	fddfe06f          	j	874 <xprintf+0x724>
    189c:	000c8513          	mv	a0,s9
    18a0:	000580e7          	jalr	a1
    18a4:	000da783          	lw	a5,0(s11)
    18a8:	001d0d13          	addi	s10,s10,1
    18ac:	fcdfe06f          	j	878 <xprintf+0x728>
    18b0:	0644a783          	lw	a5,100(s1)
    18b4:	aa078a63          	beqz	a5,b68 <xprintf+0xa18>
    18b8:	000780e7          	jalr	a5
    18bc:	aacff06f          	j	b68 <xprintf+0xa18>
    18c0:	0644a783          	lw	a5,100(s1)
    18c4:	ac078663          	beqz	a5,b90 <xprintf+0xa40>
    18c8:	000780e7          	jalr	a5
    18cc:	ac4ff06f          	j	b90 <xprintf+0xa40>
    18d0:	0644a783          	lw	a5,100(s1)
    18d4:	f6078a63          	beqz	a5,1048 <xprintf+0xef8>
    18d8:	02000513          	li	a0,32
    18dc:	000780e7          	jalr	a5
    18e0:	00790793          	addi	a5,s2,7
    18e4:	f68ff06f          	j	104c <xprintf+0xefc>
    18e8:	0644a783          	lw	a5,100(s1)
    18ec:	f4078263          	beqz	a5,1030 <xprintf+0xee0>
    18f0:	02000513          	li	a0,32
    18f4:	000780e7          	jalr	a5
    18f8:	f38ff06f          	j	1030 <xprintf+0xee0>
    18fc:	0644a783          	lw	a5,100(s1)
    1900:	f0078c63          	beqz	a5,1018 <xprintf+0xec8>
    1904:	02000513          	li	a0,32
    1908:	000780e7          	jalr	a5
    190c:	f0cff06f          	j	1018 <xprintf+0xec8>
    1910:	0644a783          	lw	a5,100(s1)
    1914:	ee078663          	beqz	a5,1000 <xprintf+0xeb0>
    1918:	02000513          	li	a0,32
    191c:	000780e7          	jalr	a5
    1920:	ee0ff06f          	j	1000 <xprintf+0xeb0>
    1924:	0644a783          	lw	a5,100(s1)
    1928:	ec078063          	beqz	a5,fe8 <xprintf+0xe98>
    192c:	02000513          	li	a0,32
    1930:	000780e7          	jalr	a5
    1934:	eb4ff06f          	j	fe8 <xprintf+0xe98>
    1938:	0644a783          	lw	a5,100(s1)
    193c:	e8078a63          	beqz	a5,fd0 <xprintf+0xe80>
    1940:	02000513          	li	a0,32
    1944:	000780e7          	jalr	a5
    1948:	e88ff06f          	j	fd0 <xprintf+0xe80>
    194c:	0644a783          	lw	a5,100(s1)
    1950:	e6078463          	beqz	a5,fb8 <xprintf+0xe68>
    1954:	02000513          	li	a0,32
    1958:	000780e7          	jalr	a5
    195c:	e5cff06f          	j	fb8 <xprintf+0xe68>
    1960:	00812d83          	lw	s11,8(sp)
    1964:	891fe06f          	j	1f4 <xprintf+0xa4>
    1968:	0644a783          	lw	a5,100(s1)
    196c:	ce078ae3          	beqz	a5,1660 <xprintf+0x1510>
    1970:	02000513          	li	a0,32
    1974:	000780e7          	jalr	a5
    1978:	00092783          	lw	a5,0(s2)
    197c:	ce0796e3          	bnez	a5,1668 <xprintf+0x1518>
    1980:	0644a783          	lw	a5,100(s1)
    1984:	ce078ae3          	beqz	a5,1678 <xprintf+0x1528>
    1988:	02000513          	li	a0,32
    198c:	000780e7          	jalr	a5
    1990:	00092783          	lw	a5,0(s2)
    1994:	ce0796e3          	bnez	a5,1680 <xprintf+0x1530>
    1998:	0644a783          	lw	a5,100(s1)
    199c:	ce078ae3          	beqz	a5,1690 <xprintf+0x1540>
    19a0:	02000513          	li	a0,32
    19a4:	000780e7          	jalr	a5
    19a8:	00092783          	lw	a5,0(s2)
    19ac:	ce0796e3          	bnez	a5,1698 <xprintf+0x1548>
    19b0:	0644a783          	lw	a5,100(s1)
    19b4:	ce078ae3          	beqz	a5,16a8 <xprintf+0x1558>
    19b8:	02000513          	li	a0,32
    19bc:	000780e7          	jalr	a5
    19c0:	00092783          	lw	a5,0(s2)
    19c4:	ce0796e3          	bnez	a5,16b0 <xprintf+0x1560>
    19c8:	0644a783          	lw	a5,100(s1)
    19cc:	ce078ae3          	beqz	a5,16c0 <xprintf+0x1570>
    19d0:	02000513          	li	a0,32
    19d4:	000780e7          	jalr	a5
    19d8:	00092783          	lw	a5,0(s2)
    19dc:	ce0796e3          	bnez	a5,16c8 <xprintf+0x1578>
    19e0:	0644a783          	lw	a5,100(s1)
    19e4:	ce078ae3          	beqz	a5,16d8 <xprintf+0x1588>
    19e8:	02000513          	li	a0,32
    19ec:	000780e7          	jalr	a5
    19f0:	00092783          	lw	a5,0(s2)
    19f4:	ce0796e3          	bnez	a5,16e0 <xprintf+0x1590>
    19f8:	0644a783          	lw	a5,100(s1)
    19fc:	ce078ae3          	beqz	a5,16f0 <xprintf+0x15a0>
    1a00:	02000513          	li	a0,32
    1a04:	000780e7          	jalr	a5
    1a08:	007d0d93          	addi	s11,s10,7
    1a0c:	ce9ff06f          	j	16f4 <xprintf+0x15a4>
    1a10:	0644a783          	lw	a5,100(s1)
    1a14:	9a078263          	beqz	a5,bb8 <xprintf+0xa68>
    1a18:	000780e7          	jalr	a5
    1a1c:	99cff06f          	j	bb8 <xprintf+0xa68>
    1a20:	0644a783          	lw	a5,100(s1)
    1a24:	9a078e63          	beqz	a5,be0 <xprintf+0xa90>
    1a28:	000780e7          	jalr	a5
    1a2c:	9b4ff06f          	j	be0 <xprintf+0xa90>
    1a30:	0644a783          	lw	a5,100(s1)
    1a34:	9c078863          	beqz	a5,c04 <xprintf+0xab4>
    1a38:	000780e7          	jalr	a5
    1a3c:	9c8ff06f          	j	c04 <xprintf+0xab4>
    1a40:	0644a703          	lw	a4,100(s1)
    1a44:	d2070c63          	beqz	a4,f7c <xprintf+0xe2c>
    1a48:	02000513          	li	a0,32
    1a4c:	00f12023          	sw	a5,0(sp)
    1a50:	000700e7          	jalr	a4
    1a54:	00012783          	lw	a5,0(sp)
    1a58:	00178793          	addi	a5,a5,1
    1a5c:	d24ff06f          	j	f80 <xprintf+0xe30>
    1a60:	0644a783          	lw	a5,100(s1)
    1a64:	ba0782e3          	beqz	a5,1608 <xprintf+0x14b8>
    1a68:	02000513          	li	a0,32
    1a6c:	000780e7          	jalr	a5
    1a70:	001d8d93          	addi	s11,s11,1
    1a74:	b99ff06f          	j	160c <xprintf+0x14bc>
    1a78:	0644a703          	lw	a4,100(s1)
    1a7c:	00071463          	bnez	a4,1a84 <xprintf+0x1934>
    1a80:	dbdfe06f          	j	83c <xprintf+0x6ec>
    1a84:	000c8513          	mv	a0,s9
    1a88:	00b12223          	sw	a1,4(sp)
    1a8c:	000700e7          	jalr	a4
    1a90:	00412583          	lw	a1,4(sp)
    1a94:	000da783          	lw	a5,0(s11)
    1a98:	00158d13          	addi	s10,a1,1
    1a9c:	da5fe06f          	j	840 <xprintf+0x6f0>
    1aa0:	0644a703          	lw	a4,100(s1)
    1aa4:	ca070063          	beqz	a4,f44 <xprintf+0xdf4>
    1aa8:	02000513          	li	a0,32
    1aac:	00f12023          	sw	a5,0(sp)
    1ab0:	000700e7          	jalr	a4
    1ab4:	00012783          	lw	a5,0(sp)
    1ab8:	00178793          	addi	a5,a5,1
    1abc:	c8cff06f          	j	f48 <xprintf+0xdf8>
    1ac0:	0644a783          	lw	a5,100(s1)
    1ac4:	9c078063          	beqz	a5,c84 <xprintf+0xb34>
    1ac8:	02000513          	li	a0,32
    1acc:	000780e7          	jalr	a5
    1ad0:	001c8d13          	addi	s10,s9,1
    1ad4:	9b4ff06f          	j	c88 <xprintf+0xb38>
    1ad8:	0644a783          	lw	a5,100(s1)
    1adc:	b00788e3          	beqz	a5,15ec <xprintf+0x149c>
    1ae0:	02000513          	li	a0,32
    1ae4:	000780e7          	jalr	a5
    1ae8:	001d8d93          	addi	s11,s11,1
    1aec:	b05ff06f          	j	15f0 <xprintf+0x14a0>
    1af0:	0644a703          	lw	a4,100(s1)
    1af4:	c2070a63          	beqz	a4,f28 <xprintf+0xdd8>
    1af8:	02000513          	li	a0,32
    1afc:	00f12023          	sw	a5,0(sp)
    1b00:	000700e7          	jalr	a4
    1b04:	00012783          	lw	a5,0(sp)
    1b08:	00178793          	addi	a5,a5,1
    1b0c:	c20ff06f          	j	f2c <xprintf+0xddc>
    1b10:	0644a783          	lw	a5,100(s1)
    1b14:	aa078ee3          	beqz	a5,15d0 <xprintf+0x1480>
    1b18:	02000513          	li	a0,32
    1b1c:	000780e7          	jalr	a5
    1b20:	001d8d93          	addi	s11,s11,1
    1b24:	ab1ff06f          	j	15d4 <xprintf+0x1484>
    1b28:	0644a783          	lw	a5,100(s1)
    1b2c:	ae078ce3          	beqz	a5,1624 <xprintf+0x14d4>
    1b30:	02000513          	li	a0,32
    1b34:	000780e7          	jalr	a5
    1b38:	001d8d93          	addi	s11,s11,1
    1b3c:	aedff06f          	j	1628 <xprintf+0x14d8>
    1b40:	0644a703          	lw	a4,100(s1)
    1b44:	c0070e63          	beqz	a4,f60 <xprintf+0xe10>
    1b48:	02000513          	li	a0,32
    1b4c:	00f12023          	sw	a5,0(sp)
    1b50:	000700e7          	jalr	a4
    1b54:	00012783          	lw	a5,0(sp)
    1b58:	00178793          	addi	a5,a5,1
    1b5c:	c08ff06f          	j	f64 <xprintf+0xe14>
    1b60:	01512023          	sw	s5,0(sp)
    1b64:	e2dfe06f          	j	990 <xprintf+0x840>
    1b68:	01a12023          	sw	s10,0(sp)
    1b6c:	00058d13          	mv	s10,a1
    1b70:	e21fe06f          	j	990 <xprintf+0x840>
    1b74:	00a00a93          	li	s5,10
    1b78:	00900713          	li	a4,9
    1b7c:	bf9fe06f          	j	774 <xprintf+0x624>
    1b80:	00b00a93          	li	s5,11
    1b84:	00a00713          	li	a4,10
    1b88:	bedfe06f          	j	774 <xprintf+0x624>
    1b8c:	00c00a93          	li	s5,12
    1b90:	00b00713          	li	a4,11
    1b94:	be1fe06f          	j	774 <xprintf+0x624>
    1b98:	00d00a93          	li	s5,13
    1b9c:	00c00713          	li	a4,12
    1ba0:	bd5fe06f          	j	774 <xprintf+0x624>
    1ba4:	00297913          	andi	s2,s2,2
    1ba8:	00000793          	li	a5,0
    1bac:	00100c93          	li	s9,1
    1bb0:	aa090c63          	beqz	s2,e68 <xprintf+0xd18>
    1bb4:	00000c93          	li	s9,0
    1bb8:	00100d93          	li	s11,1
    1bbc:	95dff06f          	j	1518 <xprintf+0x13c8>
    1bc0:	000a8d93          	mv	s11,s5
    1bc4:	e30fe06f          	j	1f4 <xprintf+0xa4>
    1bc8:	00e00a93          	li	s5,14
    1bcc:	00d00713          	li	a4,13
    1bd0:	ba5fe06f          	j	774 <xprintf+0x624>
    1bd4:	00f00a93          	li	s5,15
    1bd8:	00e00713          	li	a4,14
    1bdc:	b99fe06f          	j	774 <xprintf+0x624>
    1be0:	0644a703          	lw	a4,100(s1)
    1be4:	b2070463          	beqz	a4,f0c <xprintf+0xdbc>
    1be8:	02000513          	li	a0,32
    1bec:	00f12023          	sw	a5,0(sp)
    1bf0:	000700e7          	jalr	a4
    1bf4:	00012783          	lw	a5,0(sp)
    1bf8:	00178793          	addi	a5,a5,1
    1bfc:	b14ff06f          	j	f10 <xprintf+0xdc0>
    1c00:	0644a783          	lw	a5,100(s1)
    1c04:	9a0788e3          	beqz	a5,15b4 <xprintf+0x1464>
    1c08:	02000513          	li	a0,32
    1c0c:	000780e7          	jalr	a5
    1c10:	001d8d93          	addi	s11,s11,1
    1c14:	9a5ff06f          	j	15b8 <xprintf+0x1468>
    1c18:	0644a703          	lw	a4,100(s1)
    1c1c:	96070ee3          	beqz	a4,1598 <xprintf+0x1448>
    1c20:	02000513          	li	a0,32
    1c24:	000700e7          	jalr	a4
    1c28:	001c8d93          	addi	s11,s9,1
    1c2c:	971ff06f          	j	159c <xprintf+0x144c>
    1c30:	0644a783          	lw	a5,100(s1)
    1c34:	aa078e63          	beqz	a5,ef0 <xprintf+0xda0>
    1c38:	02000513          	li	a0,32
    1c3c:	00e12023          	sw	a4,0(sp)
    1c40:	000780e7          	jalr	a5
    1c44:	00012703          	lw	a4,0(sp)
    1c48:	00170793          	addi	a5,a4,1
    1c4c:	aa8ff06f          	j	ef4 <xprintf+0xda4>
    1c50:	000c8d93          	mv	s11,s9
    1c54:	00078c93          	mv	s9,a5
    1c58:	885ff06f          	j	14dc <xprintf+0x138c>
	...

00001c68 <__divsi3>:
    1c68:	06054063          	bltz	a0,1cc8 <__umodsi3+0x10>
    1c6c:	0605c663          	bltz	a1,1cd8 <__umodsi3+0x20>

00001c70 <__udivsi3>:
    1c70:	00058613          	mv	a2,a1
    1c74:	00050593          	mv	a1,a0
    1c78:	fff00513          	li	a0,-1
    1c7c:	02060c63          	beqz	a2,1cb4 <__udivsi3+0x44>
    1c80:	00100693          	li	a3,1
    1c84:	00b67a63          	bgeu	a2,a1,1c98 <__udivsi3+0x28>
    1c88:	00c05863          	blez	a2,1c98 <__udivsi3+0x28>
    1c8c:	00161613          	slli	a2,a2,0x1
    1c90:	00169693          	slli	a3,a3,0x1
    1c94:	feb66ae3          	bltu	a2,a1,1c88 <__udivsi3+0x18>
    1c98:	00000513          	li	a0,0
    1c9c:	00c5e663          	bltu	a1,a2,1ca8 <__udivsi3+0x38>
    1ca0:	40c585b3          	sub	a1,a1,a2
    1ca4:	00d56533          	or	a0,a0,a3
    1ca8:	0016d693          	srli	a3,a3,0x1
    1cac:	00165613          	srli	a2,a2,0x1
    1cb0:	fe0696e3          	bnez	a3,1c9c <__udivsi3+0x2c>
    1cb4:	00008067          	ret

00001cb8 <__umodsi3>:
    1cb8:	00008293          	mv	t0,ra
    1cbc:	fb5ff0ef          	jal	ra,1c70 <__udivsi3>
    1cc0:	00058513          	mv	a0,a1
    1cc4:	00028067          	jr	t0
    1cc8:	40a00533          	neg	a0,a0
    1ccc:	00b04863          	bgtz	a1,1cdc <__umodsi3+0x24>
    1cd0:	40b005b3          	neg	a1,a1
    1cd4:	f9dff06f          	j	1c70 <__udivsi3>
    1cd8:	40b005b3          	neg	a1,a1
    1cdc:	00008293          	mv	t0,ra
    1ce0:	f91ff0ef          	jal	ra,1c70 <__udivsi3>
    1ce4:	40a00533          	neg	a0,a0
    1ce8:	00028067          	jr	t0

00001cec <__modsi3>:
    1cec:	00008293          	mv	t0,ra
    1cf0:	0005ca63          	bltz	a1,1d04 <__modsi3+0x18>
    1cf4:	00054c63          	bltz	a0,1d0c <__modsi3+0x20>
    1cf8:	f79ff0ef          	jal	ra,1c70 <__udivsi3>
    1cfc:	00058513          	mv	a0,a1
    1d00:	00028067          	jr	t0
    1d04:	40b005b3          	neg	a1,a1
    1d08:	fe0558e3          	bgez	a0,1cf8 <__modsi3+0xc>
    1d0c:	40a00533          	neg	a0,a0
    1d10:	f61ff0ef          	jal	ra,1c70 <__udivsi3>
    1d14:	40b00533          	neg	a0,a1
    1d18:	00028067          	jr	t0
