
coremark:     file format elf32-littleriscv


Disassembly of section .init:

00000000 <_start>:
   0:	10001197          	auipc	gp,0x10001
   4:	ed818193          	addi	gp,gp,-296 # 10000ed8 <__global_pointer$>
   8:	10004117          	auipc	sp,0x10004
   c:	ff810113          	addi	sp,sp,-8 # 10004000 <__dual_issue_riscv_irq_stack_top>
  10:	00000293          	li	t0,0
  14:	30029073          	csrw	mstatus,t0
  18:	00007517          	auipc	a0,0x7
  1c:	8a050513          	addi	a0,a0,-1888 # 68b8 <_data_lma>
  20:	10000597          	auipc	a1,0x10000
  24:	fe058593          	addi	a1,a1,-32 # 10000000 <_data>
  28:	81018613          	addi	a2,gp,-2032 # 100006e8 <seed1_volatile>
  2c:	00c5fc63          	bgeu	a1,a2,44 <_start+0x44>
  30:	00052283          	lw	t0,0(a0)
  34:	0055a023          	sw	t0,0(a1)
  38:	00450513          	addi	a0,a0,4
  3c:	00458593          	addi	a1,a1,4
  40:	fec5e8e3          	bltu	a1,a2,30 <_start+0x30>
  44:	81018513          	addi	a0,gp,-2032 # 100006e8 <seed1_volatile>
  48:	00818593          	addi	a1,gp,8 # 10000ee0 <_end>
  4c:	00b57863          	bgeu	a0,a1,5c <_start+0x5c>
  50:	00052023          	sw	zero,0(a0)
  54:	00450513          	addi	a0,a0,4
  58:	feb56ce3          	bltu	a0,a1,50 <_start+0x50>
  5c:	024000ef          	jal	ra,80 <main>

00000060 <loop>:
  60:	0000006f          	j	60 <loop>

Disassembly of section .text:

00000070 <core_bench_list.cold>:
      70:	00002783          	lw	a5,0(zero) # 0 <_start>
      74:	00100073          	ebreak
	...

00000080 <main>:
      80:	f8010113          	addi	sp,sp,-128
      84:	00058613          	mv	a2,a1
      88:	00a12623          	sw	a0,12(sp)
      8c:	00c10593          	addi	a1,sp,12
      90:	05c10513          	addi	a0,sp,92
      94:	06112e23          	sw	ra,124(sp)
      98:	06812c23          	sw	s0,120(sp)
      9c:	06912a23          	sw	s1,116(sp)
      a0:	07212823          	sw	s2,112(sp)
      a4:	07312623          	sw	s3,108(sp)
      a8:	07412423          	sw	s4,104(sp)
      ac:	4e4040ef          	jal	ra,4590 <portable_init>
      b0:	10000537          	lui	a0,0x10000
      b4:	00050513          	mv	a0,a0
      b8:	558040ef          	jal	ra,4610 <xprintf>
      bc:	00100513          	li	a0,1
      c0:	0f1030ef          	jal	ra,39b0 <get_seed_32>
      c4:	00050793          	mv	a5,a0
      c8:	00200513          	li	a0,2
      cc:	00f11c23          	sh	a5,24(sp)
      d0:	0e1030ef          	jal	ra,39b0 <get_seed_32>
      d4:	00050793          	mv	a5,a0
      d8:	00300513          	li	a0,3
      dc:	00f11d23          	sh	a5,26(sp)
      e0:	0d1030ef          	jal	ra,39b0 <get_seed_32>
      e4:	00050793          	mv	a5,a0
      e8:	00400513          	li	a0,4
      ec:	00f11e23          	sh	a5,28(sp)
      f0:	0c1030ef          	jal	ra,39b0 <get_seed_32>
      f4:	00050793          	mv	a5,a0
      f8:	00500513          	li	a0,5
      fc:	02f12a23          	sw	a5,52(sp)
     100:	0b1030ef          	jal	ra,39b0 <get_seed_32>
     104:	3c050263          	beqz	a0,4c8 <main+0x448>
     108:	02a12c23          	sw	a0,56(sp)
     10c:	01812783          	lw	a5,24(sp)
     110:	00079663          	bnez	a5,11c <main+0x9c>
     114:	01c11703          	lh	a4,28(sp)
     118:	42070263          	beqz	a4,53c <main+0x4bc>
     11c:	00100713          	li	a4,1
     120:	42e78463          	beq	a5,a4,548 <main+0x4c8>
     124:	03812783          	lw	a5,56(sp)
     128:	83818693          	addi	a3,gp,-1992 # 10000710 <static_memblk>
     12c:	0027f713          	andi	a4,a5,2
     130:	00e03333          	snez	t1,a4
     134:	0017f813          	andi	a6,a5,1
     138:	0047f893          	andi	a7,a5,4
     13c:	01103533          	snez	a0,a7
     140:	00680633          	add	a2,a6,t1
     144:	00a60333          	add	t1,a2,a0
     148:	7d000513          	li	a0,2000
     14c:	02655533          	divu	a0,a0,t1
     150:	02d12023          	sw	a3,32(sp)
     154:	04011c23          	sh	zero,88(sp)
     158:	00080593          	mv	a1,a6
     15c:	02a12823          	sw	a0,48(sp)
     160:	38081e63          	bnez	a6,4fc <main+0x47c>
     164:	38071263          	bnez	a4,4e8 <main+0x468>
     168:	36089663          	bnez	a7,4d4 <main+0x454>
     16c:	2e081663          	bnez	a6,458 <main+0x3d8>
     170:	30071263          	bnez	a4,474 <main+0x3f4>
     174:	0047f793          	andi	a5,a5,4
     178:	00078a63          	beqz	a5,18c <main+0x10c>
     17c:	02c12603          	lw	a2,44(sp)
     180:	01811583          	lh	a1,24(sp)
     184:	03012503          	lw	a0,48(sp)
     188:	038030ef          	jal	ra,31c0 <core_init_state>
     18c:	03412783          	lw	a5,52(sp)
     190:	04079a63          	bnez	a5,1e4 <main+0x164>
     194:	00100793          	li	a5,1
     198:	02f12a23          	sw	a5,52(sp)
     19c:	03412703          	lw	a4,52(sp)
     1a0:	00271793          	slli	a5,a4,0x2
     1a4:	00e787b3          	add	a5,a5,a4
     1a8:	00179793          	slli	a5,a5,0x1
     1ac:	02f12a23          	sw	a5,52(sp)
     1b0:	310040ef          	jal	ra,44c0 <start_time>
     1b4:	01810513          	addi	a0,sp,24
     1b8:	6a9000ef          	jal	ra,1060 <iterate>
     1bc:	334040ef          	jal	ra,44f0 <stop_time>
     1c0:	360040ef          	jal	ra,4520 <get_time>
     1c4:	38c040ef          	jal	ra,4550 <time_in_secs>
     1c8:	fc050ae3          	beqz	a0,19c <main+0x11c>
     1cc:	00a00793          	li	a5,10
     1d0:	02a7d533          	divu	a0,a5,a0
     1d4:	03412783          	lw	a5,52(sp)
     1d8:	00150513          	addi	a0,a0,1 # 10000001 <_data+0x1>
     1dc:	02a78533          	mul	a0,a5,a0
     1e0:	02a12a23          	sw	a0,52(sp)
     1e4:	2dc040ef          	jal	ra,44c0 <start_time>
     1e8:	01810513          	addi	a0,sp,24
     1ec:	675000ef          	jal	ra,1060 <iterate>
     1f0:	300040ef          	jal	ra,44f0 <stop_time>
     1f4:	32c040ef          	jal	ra,4520 <get_time>
     1f8:	00050913          	mv	s2,a0
     1fc:	01811503          	lh	a0,24(sp)
     200:	00058993          	mv	s3,a1
     204:	00000593          	li	a1,0
     208:	7f9030ef          	jal	ra,4200 <crc16>
     20c:	00050593          	mv	a1,a0
     210:	01a11503          	lh	a0,26(sp)
     214:	7ed030ef          	jal	ra,4200 <crc16>
     218:	00050593          	mv	a1,a0
     21c:	01c11503          	lh	a0,28(sp)
     220:	7e1030ef          	jal	ra,4200 <crc16>
     224:	00050593          	mv	a1,a0
     228:	03011503          	lh	a0,48(sp)
     22c:	7d5030ef          	jal	ra,4200 <crc16>
     230:	000087b7          	lui	a5,0x8
     234:	b0578793          	addi	a5,a5,-1275 # 7b05 <_data_lma+0x124d>
     238:	00050493          	mv	s1,a0
     23c:	3cf50663          	beq	a0,a5,608 <main+0x588>
     240:	24a7ee63          	bltu	a5,a0,49c <main+0x41c>
     244:	000027b7          	lui	a5,0x2
     248:	8f278793          	addi	a5,a5,-1806 # 18f2 <matrix_mul_matrix_bitextract+0x72>
     24c:	3cf50863          	beq	a0,a5,61c <main+0x59c>
     250:	000057b7          	lui	a5,0x5
     254:	eaf78793          	addi	a5,a5,-337 # 4eaf <xprintf+0x89f>
     258:	3ef51a63          	bne	a0,a5,64c <main+0x5cc>
     25c:	10000537          	lui	a0,0x10000
     260:	07450513          	addi	a0,a0,116 # 10000074 <_data+0x74>
     264:	00200413          	li	s0,2
     268:	3a8040ef          	jal	ra,4610 <xprintf>
     26c:	03812783          	lw	a5,56(sp)
     270:	04011c23          	sh	zero,88(sp)
     274:	0017f713          	andi	a4,a5,1
     278:	04070063          	beqz	a4,2b8 <main+0x238>
     27c:	100006b7          	lui	a3,0x10000
     280:	48468693          	addi	a3,a3,1156 # 10000484 <list_known_crc>
     284:	00141713          	slli	a4,s0,0x1
     288:	00e68733          	add	a4,a3,a4
     28c:	05215603          	lhu	a2,82(sp)
     290:	00075683          	lhu	a3,0(a4)
     294:	02d60263          	beq	a2,a3,2b8 <main+0x238>
     298:	10000537          	lui	a0,0x10000
     29c:	00000593          	li	a1,0
     2a0:	10450513          	addi	a0,a0,260 # 10000104 <_data+0x104>
     2a4:	36c040ef          	jal	ra,4610 <xprintf>
     2a8:	05815703          	lhu	a4,88(sp)
     2ac:	03812783          	lw	a5,56(sp)
     2b0:	00170713          	addi	a4,a4,1
     2b4:	04e11c23          	sh	a4,88(sp)
     2b8:	0027f713          	andi	a4,a5,2
     2bc:	04070063          	beqz	a4,2fc <main+0x27c>
     2c0:	100006b7          	lui	a3,0x10000
     2c4:	49068693          	addi	a3,a3,1168 # 10000490 <matrix_known_crc>
     2c8:	00141713          	slli	a4,s0,0x1
     2cc:	00e68733          	add	a4,a3,a4
     2d0:	05415603          	lhu	a2,84(sp)
     2d4:	00075683          	lhu	a3,0(a4)
     2d8:	02d60263          	beq	a2,a3,2fc <main+0x27c>
     2dc:	10000537          	lui	a0,0x10000
     2e0:	00000593          	li	a1,0
     2e4:	13450513          	addi	a0,a0,308 # 10000134 <_data+0x134>
     2e8:	328040ef          	jal	ra,4610 <xprintf>
     2ec:	05815703          	lhu	a4,88(sp)
     2f0:	03812783          	lw	a5,56(sp)
     2f4:	00170713          	addi	a4,a4,1
     2f8:	04e11c23          	sh	a4,88(sp)
     2fc:	0047f793          	andi	a5,a5,4
     300:	02078063          	beqz	a5,320 <main+0x2a0>
     304:	100007b7          	lui	a5,0x10000
     308:	00141413          	slli	s0,s0,0x1
     30c:	49c78793          	addi	a5,a5,1180 # 1000049c <state_known_crc>
     310:	008787b3          	add	a5,a5,s0
     314:	05615603          	lhu	a2,86(sp)
     318:	0007d683          	lhu	a3,0(a5)
     31c:	1ed61663          	bne	a2,a3,508 <main+0x488>
     320:	05811403          	lh	s0,88(sp)
     324:	17c040ef          	jal	ra,44a0 <check_data_types>
     328:	03012583          	lw	a1,48(sp)
     32c:	00a40433          	add	s0,s0,a0
     330:	10000537          	lui	a0,0x10000
     334:	19850513          	addi	a0,a0,408 # 10000198 <_data+0x198>
     338:	2d8040ef          	jal	ra,4610 <xprintf>
     33c:	10000537          	lui	a0,0x10000
     340:	00090593          	mv	a1,s2
     344:	1b050513          	addi	a0,a0,432 # 100001b0 <_data+0x1b0>
     348:	2c8040ef          	jal	ra,4610 <xprintf>
     34c:	00098593          	mv	a1,s3
     350:	00090513          	mv	a0,s2
     354:	1fc040ef          	jal	ra,4550 <time_in_secs>
     358:	00050593          	mv	a1,a0
     35c:	10000537          	lui	a0,0x10000
     360:	1c850513          	addi	a0,a0,456 # 100001c8 <_data+0x1c8>
     364:	2ac040ef          	jal	ra,4610 <xprintf>
     368:	01041413          	slli	s0,s0,0x10
     36c:	00090513          	mv	a0,s2
     370:	00098593          	mv	a1,s3
     374:	41045413          	srai	s0,s0,0x10
     378:	1d8040ef          	jal	ra,4550 <time_in_secs>
     37c:	1e051663          	bnez	a0,568 <main+0x4e8>
     380:	00090513          	mv	a0,s2
     384:	00098593          	mv	a1,s3
     388:	1c8040ef          	jal	ra,4550 <time_in_secs>
     38c:	00900793          	li	a5,9
     390:	20a7fc63          	bgeu	a5,a0,5a8 <main+0x528>
     394:	03412583          	lw	a1,52(sp)
     398:	10000537          	lui	a0,0x10000
     39c:	36c50513          	addi	a0,a0,876 # 1000036c <_data+0x36c>
     3a0:	270040ef          	jal	ra,4610 <xprintf>
     3a4:	100005b7          	lui	a1,0x10000
     3a8:	10000537          	lui	a0,0x10000
     3ac:	38458593          	addi	a1,a1,900 # 10000384 <_data+0x384>
     3b0:	39050513          	addi	a0,a0,912 # 10000390 <_data+0x390>
     3b4:	25c040ef          	jal	ra,4610 <xprintf>
     3b8:	100005b7          	lui	a1,0x10000
     3bc:	10000537          	lui	a0,0x10000
     3c0:	3a858593          	addi	a1,a1,936 # 100003a8 <_data+0x3a8>
     3c4:	43050513          	addi	a0,a0,1072 # 10000430 <_data+0x430>
     3c8:	248040ef          	jal	ra,4610 <xprintf>
     3cc:	100005b7          	lui	a1,0x10000
     3d0:	10000537          	lui	a0,0x10000
     3d4:	44858593          	addi	a1,a1,1096 # 10000448 <_data+0x448>
     3d8:	45050513          	addi	a0,a0,1104 # 10000450 <_data+0x450>
     3dc:	234040ef          	jal	ra,4610 <xprintf>
     3e0:	10000537          	lui	a0,0x10000
     3e4:	00048593          	mv	a1,s1
     3e8:	46850513          	addi	a0,a0,1128 # 10000468 <_data+0x468>
     3ec:	224040ef          	jal	ra,4610 <xprintf>
     3f0:	03812783          	lw	a5,56(sp)
     3f4:	0017f713          	andi	a4,a5,1
     3f8:	18071a63          	bnez	a4,58c <main+0x50c>
     3fc:	0027f713          	andi	a4,a5,2
     400:	1e071663          	bnez	a4,5ec <main+0x56c>
     404:	0047f793          	andi	a5,a5,4
     408:	1c079663          	bnez	a5,5d4 <main+0x554>
     40c:	05015603          	lhu	a2,80(sp)
     410:	10000537          	lui	a0,0x10000
     414:	00000593          	li	a1,0
     418:	2fc50513          	addi	a0,a0,764 # 100002fc <_data+0x2fc>
     41c:	1f4040ef          	jal	ra,4610 <xprintf>
     420:	1a040263          	beqz	s0,5c4 <main+0x544>
     424:	10805263          	blez	s0,528 <main+0x4a8>
     428:	10000537          	lui	a0,0x10000
     42c:	28450513          	addi	a0,a0,644 # 10000284 <_data+0x284>
     430:	1e0040ef          	jal	ra,4610 <xprintf>
     434:	07c12083          	lw	ra,124(sp)
     438:	07812403          	lw	s0,120(sp)
     43c:	07412483          	lw	s1,116(sp)
     440:	07012903          	lw	s2,112(sp)
     444:	06c12983          	lw	s3,108(sp)
     448:	06812a03          	lw	s4,104(sp)
     44c:	00000513          	li	a0,0
     450:	08010113          	addi	sp,sp,128
     454:	00008067          	ret
     458:	01811603          	lh	a2,24(sp)
     45c:	02412583          	lw	a1,36(sp)
     460:	101000ef          	jal	ra,d60 <core_list_init>
     464:	03812783          	lw	a5,56(sp)
     468:	02a12e23          	sw	a0,60(sp)
     46c:	0027f713          	andi	a4,a5,2
     470:	d00702e3          	beqz	a4,174 <main+0xf4>
     474:	01a11783          	lh	a5,26(sp)
     478:	01811603          	lh	a2,24(sp)
     47c:	02812583          	lw	a1,40(sp)
     480:	03012503          	lw	a0,48(sp)
     484:	01079793          	slli	a5,a5,0x10
     488:	00c7e633          	or	a2,a5,a2
     48c:	04010693          	addi	a3,sp,64
     490:	621000ef          	jal	ra,12b0 <core_init_matrix>
     494:	03812783          	lw	a5,56(sp)
     498:	cddff06f          	j	174 <main+0xf4>
     49c:	000097b7          	lui	a5,0x9
     4a0:	a0278793          	addi	a5,a5,-1534 # 8a02 <_data_lma+0x214a>
     4a4:	18f50663          	beq	a0,a5,630 <main+0x5b0>
     4a8:	0000f7b7          	lui	a5,0xf
     4ac:	9f578793          	addi	a5,a5,-1547 # e9f5 <_data_lma+0x813d>
     4b0:	18f51a63          	bne	a0,a5,644 <main+0x5c4>
     4b4:	10000537          	lui	a0,0x10000
     4b8:	0a850513          	addi	a0,a0,168 # 100000a8 <_data+0xa8>
     4bc:	00300413          	li	s0,3
     4c0:	150040ef          	jal	ra,4610 <xprintf>
     4c4:	da9ff06f          	j	26c <main+0x1ec>
     4c8:	00700793          	li	a5,7
     4cc:	02f12c23          	sw	a5,56(sp)
     4d0:	c3dff06f          	j	10c <main+0x8c>
     4d4:	02a60633          	mul	a2,a2,a0
     4d8:	00c686b3          	add	a3,a3,a2
     4dc:	02d12623          	sw	a3,44(sp)
     4e0:	c80808e3          	beqz	a6,170 <main+0xf0>
     4e4:	f75ff06f          	j	458 <main+0x3d8>
     4e8:	02a585b3          	mul	a1,a1,a0
     4ec:	00b685b3          	add	a1,a3,a1
     4f0:	02b12423          	sw	a1,40(sp)
     4f4:	c6088ce3          	beqz	a7,16c <main+0xec>
     4f8:	fddff06f          	j	4d4 <main+0x454>
     4fc:	02d12223          	sw	a3,36(sp)
     500:	c60704e3          	beqz	a4,168 <main+0xe8>
     504:	fe5ff06f          	j	4e8 <main+0x468>
     508:	10000537          	lui	a0,0x10000
     50c:	00000593          	li	a1,0
     510:	16850513          	addi	a0,a0,360 # 10000168 <_data+0x168>
     514:	0fc040ef          	jal	ra,4610 <xprintf>
     518:	05815783          	lhu	a5,88(sp)
     51c:	00178793          	addi	a5,a5,1
     520:	04f11c23          	sh	a5,88(sp)
     524:	dfdff06f          	j	320 <main+0x2a0>
     528:	f00456e3          	bgez	s0,434 <main+0x3b4>
     52c:	10000537          	lui	a0,0x10000
     530:	29850513          	addi	a0,a0,664 # 10000298 <_data+0x298>
     534:	0dc040ef          	jal	ra,4610 <xprintf>
     538:	efdff06f          	j	434 <main+0x3b4>
     53c:	06600713          	li	a4,102
     540:	00e11e23          	sh	a4,28(sp)
     544:	bd9ff06f          	j	11c <main+0x9c>
     548:	01c11783          	lh	a5,28(sp)
     54c:	bc079ce3          	bnez	a5,124 <main+0xa4>
     550:	341537b7          	lui	a5,0x34153
     554:	41578793          	addi	a5,a5,1045 # 34153415 <__dual_issue_riscv_irq_stack_top+0x2414f415>
     558:	00f12c23          	sw	a5,24(sp)
     55c:	06600793          	li	a5,102
     560:	00f11e23          	sh	a5,28(sp)
     564:	bc1ff06f          	j	124 <main+0xa4>
     568:	03412a03          	lw	s4,52(sp)
     56c:	00098593          	mv	a1,s3
     570:	00090513          	mv	a0,s2
     574:	7dd030ef          	jal	ra,4550 <time_in_secs>
     578:	02aa55b3          	divu	a1,s4,a0
     57c:	10000537          	lui	a0,0x10000
     580:	1e050513          	addi	a0,a0,480 # 100001e0 <_data+0x1e0>
     584:	08c040ef          	jal	ra,4610 <xprintf>
     588:	df9ff06f          	j	380 <main+0x300>
     58c:	05215603          	lhu	a2,82(sp)
     590:	10000537          	lui	a0,0x10000
     594:	00000593          	li	a1,0
     598:	35050513          	addi	a0,a0,848 # 10000350 <_data+0x350>
     59c:	074040ef          	jal	ra,4610 <xprintf>
     5a0:	03812783          	lw	a5,56(sp)
     5a4:	e59ff06f          	j	3fc <main+0x37c>
     5a8:	10000537          	lui	a0,0x10000
     5ac:	00140413          	addi	s0,s0,1
     5b0:	1f850513          	addi	a0,a0,504 # 100001f8 <_data+0x1f8>
     5b4:	01041413          	slli	s0,s0,0x10
     5b8:	058040ef          	jal	ra,4610 <xprintf>
     5bc:	41045413          	srai	s0,s0,0x10
     5c0:	dd5ff06f          	j	394 <main+0x314>
     5c4:	10000537          	lui	a0,0x10000
     5c8:	23850513          	addi	a0,a0,568 # 10000238 <_data+0x238>
     5cc:	044040ef          	jal	ra,4610 <xprintf>
     5d0:	e65ff06f          	j	434 <main+0x3b4>
     5d4:	05615603          	lhu	a2,86(sp)
     5d8:	10000537          	lui	a0,0x10000
     5dc:	00000593          	li	a1,0
     5e0:	31850513          	addi	a0,a0,792 # 10000318 <_data+0x318>
     5e4:	02c040ef          	jal	ra,4610 <xprintf>
     5e8:	e25ff06f          	j	40c <main+0x38c>
     5ec:	05415603          	lhu	a2,84(sp)
     5f0:	10000537          	lui	a0,0x10000
     5f4:	00000593          	li	a1,0
     5f8:	33450513          	addi	a0,a0,820 # 10000334 <_data+0x334>
     5fc:	014040ef          	jal	ra,4610 <xprintf>
     600:	03812783          	lw	a5,56(sp)
     604:	e01ff06f          	j	404 <main+0x384>
     608:	10000537          	lui	a0,0x10000
     60c:	04850513          	addi	a0,a0,72 # 10000048 <_data+0x48>
     610:	00100413          	li	s0,1
     614:	7fd030ef          	jal	ra,4610 <xprintf>
     618:	c55ff06f          	j	26c <main+0x1ec>
     61c:	10000537          	lui	a0,0x10000
     620:	0d850513          	addi	a0,a0,216 # 100000d8 <_data+0xd8>
     624:	00400413          	li	s0,4
     628:	7e9030ef          	jal	ra,4610 <xprintf>
     62c:	c41ff06f          	j	26c <main+0x1ec>
     630:	10000537          	lui	a0,0x10000
     634:	01850513          	addi	a0,a0,24 # 10000018 <_data+0x18>
     638:	00000413          	li	s0,0
     63c:	7d5030ef          	jal	ra,4610 <xprintf>
     640:	c2dff06f          	j	26c <main+0x1ec>
     644:	fff00413          	li	s0,-1
     648:	cddff06f          	j	324 <main+0x2a4>
     64c:	fff00413          	li	s0,-1
     650:	cd5ff06f          	j	324 <main+0x2a4>
	...

00000660 <cmp_idx>:
     660:	00060a63          	beqz	a2,674 <cmp_idx+0x14>
     664:	00251503          	lh	a0,2(a0)
     668:	00259783          	lh	a5,2(a1)
     66c:	40f50533          	sub	a0,a0,a5
     670:	00008067          	ret
     674:	00051783          	lh	a5,0(a0)
     678:	01079713          	slli	a4,a5,0x10
     67c:	01075713          	srli	a4,a4,0x10
     680:	00875713          	srli	a4,a4,0x8
     684:	f007f793          	andi	a5,a5,-256
     688:	00e7e7b3          	or	a5,a5,a4
     68c:	00f51023          	sh	a5,0(a0)
     690:	00059783          	lh	a5,0(a1)
     694:	00251503          	lh	a0,2(a0)
     698:	01079713          	slli	a4,a5,0x10
     69c:	01075713          	srli	a4,a4,0x10
     6a0:	00875713          	srli	a4,a4,0x8
     6a4:	f007f793          	andi	a5,a5,-256
     6a8:	00e7e7b3          	or	a5,a5,a4
     6ac:	00f59023          	sh	a5,0(a1)
     6b0:	00259783          	lh	a5,2(a1)
     6b4:	40f50533          	sub	a0,a0,a5
     6b8:	00008067          	ret
	...

000006d0 <calc_func>:
     6d0:	fe010113          	addi	sp,sp,-32
     6d4:	00812c23          	sw	s0,24(sp)
     6d8:	00051403          	lh	s0,0(a0)
     6dc:	00112e23          	sw	ra,28(sp)
     6e0:	00912a23          	sw	s1,20(sp)
     6e4:	40745793          	srai	a5,s0,0x7
     6e8:	01212823          	sw	s2,16(sp)
     6ec:	01312623          	sw	s3,12(sp)
     6f0:	0017f793          	andi	a5,a5,1
     6f4:	02078263          	beqz	a5,718 <calc_func+0x48>
     6f8:	01c12083          	lw	ra,28(sp)
     6fc:	07f47513          	andi	a0,s0,127
     700:	01812403          	lw	s0,24(sp)
     704:	01412483          	lw	s1,20(sp)
     708:	01012903          	lw	s2,16(sp)
     70c:	00c12983          	lw	s3,12(sp)
     710:	02010113          	addi	sp,sp,32
     714:	00008067          	ret
     718:	00058493          	mv	s1,a1
     71c:	40345593          	srai	a1,s0,0x3
     720:	00f5f593          	andi	a1,a1,15
     724:	00459713          	slli	a4,a1,0x4
     728:	00747693          	andi	a3,s0,7
     72c:	0384d783          	lhu	a5,56(s1)
     730:	00050993          	mv	s3,a0
     734:	00b765b3          	or	a1,a4,a1
     738:	04068c63          	beqz	a3,790 <calc_func+0xc0>
     73c:	00100713          	li	a4,1
     740:	08e68863          	beq	a3,a4,7d0 <calc_func+0x100>
     744:	01041513          	slli	a0,s0,0x10
     748:	00040913          	mv	s2,s0
     74c:	01055513          	srli	a0,a0,0x10
     750:	00078593          	mv	a1,a5
     754:	2dc030ef          	jal	ra,3a30 <crcu16>
     758:	00050793          	mv	a5,a0
     75c:	f0047413          	andi	s0,s0,-256
     760:	07f97513          	andi	a0,s2,127
     764:	00856433          	or	s0,a0,s0
     768:	02f49c23          	sh	a5,56(s1)
     76c:	08046413          	ori	s0,s0,128
     770:	00899023          	sh	s0,0(s3)
     774:	01c12083          	lw	ra,28(sp)
     778:	01812403          	lw	s0,24(sp)
     77c:	01412483          	lw	s1,20(sp)
     780:	01012903          	lw	s2,16(sp)
     784:	00c12983          	lw	s3,12(sp)
     788:	02010113          	addi	sp,sp,32
     78c:	00008067          	ret
     790:	02200693          	li	a3,34
     794:	00058713          	mv	a4,a1
     798:	00d5d463          	bge	a1,a3,7a0 <calc_func+0xd0>
     79c:	02200713          	li	a4,34
     7a0:	00249683          	lh	a3,2(s1)
     7a4:	00049603          	lh	a2,0(s1)
     7a8:	0144a583          	lw	a1,20(s1)
     7ac:	0184a503          	lw	a0,24(s1)
     7b0:	0ff77713          	zext.b	a4,a4
     7b4:	03c030ef          	jal	ra,37f0 <core_bench_state>
     7b8:	03e4d783          	lhu	a5,62(s1)
     7bc:	01051913          	slli	s2,a0,0x10
     7c0:	41095913          	srai	s2,s2,0x10
     7c4:	02078863          	beqz	a5,7f4 <calc_func+0x124>
     7c8:	0384d783          	lhu	a5,56(s1)
     7cc:	f85ff06f          	j	750 <calc_func+0x80>
     7d0:	00078613          	mv	a2,a5
     7d4:	02848513          	addi	a0,s1,40
     7d8:	199020ef          	jal	ra,3170 <core_bench_matrix>
     7dc:	03c4d783          	lhu	a5,60(s1)
     7e0:	01051913          	slli	s2,a0,0x10
     7e4:	41095913          	srai	s2,s2,0x10
     7e8:	00078c63          	beqz	a5,800 <calc_func+0x130>
     7ec:	0384d783          	lhu	a5,56(s1)
     7f0:	f61ff06f          	j	750 <calc_func+0x80>
     7f4:	0384d783          	lhu	a5,56(s1)
     7f8:	02a49f23          	sh	a0,62(s1)
     7fc:	f55ff06f          	j	750 <calc_func+0x80>
     800:	0384d783          	lhu	a5,56(s1)
     804:	02a49e23          	sh	a0,60(s1)
     808:	f49ff06f          	j	750 <calc_func+0x80>
	...

00000820 <cmp_complex>:
     820:	ff010113          	addi	sp,sp,-16
     824:	00912223          	sw	s1,4(sp)
     828:	00058493          	mv	s1,a1
     82c:	00060593          	mv	a1,a2
     830:	00112623          	sw	ra,12(sp)
     834:	00812423          	sw	s0,8(sp)
     838:	00060413          	mv	s0,a2
     83c:	e95ff0ef          	jal	ra,6d0 <calc_func>
     840:	00050793          	mv	a5,a0
     844:	00040593          	mv	a1,s0
     848:	00048513          	mv	a0,s1
     84c:	00078413          	mv	s0,a5
     850:	e81ff0ef          	jal	ra,6d0 <calc_func>
     854:	00c12083          	lw	ra,12(sp)
     858:	40a40533          	sub	a0,s0,a0
     85c:	00812403          	lw	s0,8(sp)
     860:	00412483          	lw	s1,4(sp)
     864:	01010113          	addi	sp,sp,16
     868:	00008067          	ret
     86c:	0000                	unimp
	...

00000870 <core_list_mergesort>:
     870:	fd010113          	addi	sp,sp,-48
     874:	02912223          	sw	s1,36(sp)
     878:	01612823          	sw	s6,16(sp)
     87c:	01712623          	sw	s7,12(sp)
     880:	01912223          	sw	s9,4(sp)
     884:	01a12023          	sw	s10,0(sp)
     888:	02112623          	sw	ra,44(sp)
     88c:	02812423          	sw	s0,40(sp)
     890:	03212023          	sw	s2,32(sp)
     894:	01312e23          	sw	s3,28(sp)
     898:	01412c23          	sw	s4,24(sp)
     89c:	01512a23          	sw	s5,20(sp)
     8a0:	01812423          	sw	s8,8(sp)
     8a4:	00050493          	mv	s1,a0
     8a8:	00058b93          	mv	s7,a1
     8ac:	00060d13          	mv	s10,a2
     8b0:	00100b13          	li	s6,1
     8b4:	00100c93          	li	s9,1
     8b8:	1a048c63          	beqz	s1,a70 <core_list_mergesort+0x200>
     8bc:	00000c13          	li	s8,0
     8c0:	00000913          	li	s2,0
     8c4:	00000a93          	li	s5,0
     8c8:	007b7713          	andi	a4,s6,7
     8cc:	00048793          	mv	a5,s1
     8d0:	00000413          	li	s0,0
     8d4:	001c0c13          	addi	s8,s8,1
     8d8:	08070463          	beqz	a4,960 <core_list_mergesort+0xf0>
     8dc:	0f605663          	blez	s6,9c8 <core_list_mergesort+0x158>
     8e0:	0004a783          	lw	a5,0(s1)
     8e4:	00100413          	li	s0,1
     8e8:	0e078063          	beqz	a5,9c8 <core_list_mergesort+0x158>
     8ec:	06870a63          	beq	a4,s0,960 <core_list_mergesort+0xf0>
     8f0:	00200693          	li	a3,2
     8f4:	06d70063          	beq	a4,a3,954 <core_list_mergesort+0xe4>
     8f8:	00300693          	li	a3,3
     8fc:	04d70663          	beq	a4,a3,948 <core_list_mergesort+0xd8>
     900:	00400693          	li	a3,4
     904:	02d70c63          	beq	a4,a3,93c <core_list_mergesort+0xcc>
     908:	00500693          	li	a3,5
     90c:	02d70263          	beq	a4,a3,930 <core_list_mergesort+0xc0>
     910:	00600693          	li	a3,6
     914:	00d70863          	beq	a4,a3,924 <core_list_mergesort+0xb4>
     918:	0007a783          	lw	a5,0(a5)
     91c:	00200413          	li	s0,2
     920:	0a078463          	beqz	a5,9c8 <core_list_mergesort+0x158>
     924:	0007a783          	lw	a5,0(a5)
     928:	00140413          	addi	s0,s0,1
     92c:	08078e63          	beqz	a5,9c8 <core_list_mergesort+0x158>
     930:	0007a783          	lw	a5,0(a5)
     934:	00140413          	addi	s0,s0,1
     938:	08078863          	beqz	a5,9c8 <core_list_mergesort+0x158>
     93c:	0007a783          	lw	a5,0(a5)
     940:	00140413          	addi	s0,s0,1
     944:	08078263          	beqz	a5,9c8 <core_list_mergesort+0x158>
     948:	0007a783          	lw	a5,0(a5)
     94c:	00140413          	addi	s0,s0,1
     950:	06078c63          	beqz	a5,9c8 <core_list_mergesort+0x158>
     954:	0007a783          	lw	a5,0(a5)
     958:	00140413          	addi	s0,s0,1
     95c:	06078663          	beqz	a5,9c8 <core_list_mergesort+0x158>
     960:	07645463          	bge	s0,s6,9c8 <core_list_mergesort+0x158>
     964:	0007a783          	lw	a5,0(a5)
     968:	00140413          	addi	s0,s0,1
     96c:	00040713          	mv	a4,s0
     970:	04078c63          	beqz	a5,9c8 <core_list_mergesort+0x158>
     974:	0007a783          	lw	a5,0(a5)
     978:	00140413          	addi	s0,s0,1
     97c:	04078663          	beqz	a5,9c8 <core_list_mergesort+0x158>
     980:	0007a783          	lw	a5,0(a5)
     984:	00270413          	addi	s0,a4,2
     988:	04078063          	beqz	a5,9c8 <core_list_mergesort+0x158>
     98c:	0007a783          	lw	a5,0(a5)
     990:	00370413          	addi	s0,a4,3
     994:	02078a63          	beqz	a5,9c8 <core_list_mergesort+0x158>
     998:	0007a783          	lw	a5,0(a5)
     99c:	00470413          	addi	s0,a4,4
     9a0:	02078463          	beqz	a5,9c8 <core_list_mergesort+0x158>
     9a4:	0007a783          	lw	a5,0(a5)
     9a8:	00570413          	addi	s0,a4,5
     9ac:	00078e63          	beqz	a5,9c8 <core_list_mergesort+0x158>
     9b0:	0007a783          	lw	a5,0(a5)
     9b4:	00670413          	addi	s0,a4,6
     9b8:	00078863          	beqz	a5,9c8 <core_list_mergesort+0x158>
     9bc:	0007a783          	lw	a5,0(a5)
     9c0:	00770413          	addi	s0,a4,7
     9c4:	f8079ee3          	bnez	a5,960 <core_list_mergesort+0xf0>
     9c8:	00048a13          	mv	s4,s1
     9cc:	000b0993          	mv	s3,s6
     9d0:	00078493          	mv	s1,a5
     9d4:	02805e63          	blez	s0,a10 <core_list_mergesort+0x1a0>
     9d8:	06098063          	beqz	s3,a38 <core_list_mergesort+0x1c8>
     9dc:	04048e63          	beqz	s1,a38 <core_list_mergesort+0x1c8>
     9e0:	0044a583          	lw	a1,4(s1)
     9e4:	004a2503          	lw	a0,4(s4)
     9e8:	000d0613          	mv	a2,s10
     9ec:	000b80e7          	jalr	s7
     9f0:	04a05c63          	blez	a0,a48 <core_list_mergesort+0x1d8>
     9f4:	00048793          	mv	a5,s1
     9f8:	0004a483          	lw	s1,0(s1)
     9fc:	fff98993          	addi	s3,s3,-1
     a00:	02090663          	beqz	s2,a2c <core_list_mergesort+0x1bc>
     a04:	00f92023          	sw	a5,0(s2)
     a08:	00078913          	mv	s2,a5
     a0c:	fc8046e3          	bgtz	s0,9d8 <core_list_mergesort+0x168>
     a10:	05305463          	blez	s3,a58 <core_list_mergesort+0x1e8>
     a14:	04048463          	beqz	s1,a5c <core_list_mergesort+0x1ec>
     a18:	fc0414e3          	bnez	s0,9e0 <core_list_mergesort+0x170>
     a1c:	00048793          	mv	a5,s1
     a20:	fff98993          	addi	s3,s3,-1
     a24:	0004a483          	lw	s1,0(s1)
     a28:	fc091ee3          	bnez	s2,a04 <core_list_mergesort+0x194>
     a2c:	00078a93          	mv	s5,a5
     a30:	00078913          	mv	s2,a5
     a34:	fd9ff06f          	j	a0c <core_list_mergesort+0x19c>
     a38:	000a0793          	mv	a5,s4
     a3c:	fff40413          	addi	s0,s0,-1
     a40:	000a2a03          	lw	s4,0(s4)
     a44:	fbdff06f          	j	a00 <core_list_mergesort+0x190>
     a48:	000a0793          	mv	a5,s4
     a4c:	fff40413          	addi	s0,s0,-1
     a50:	000a2a03          	lw	s4,0(s4)
     a54:	fadff06f          	j	a00 <core_list_mergesort+0x190>
     a58:	e60498e3          	bnez	s1,8c8 <core_list_mergesort+0x58>
     a5c:	00092023          	sw	zero,0(s2)
     a60:	018cdc63          	bge	s9,s8,a78 <core_list_mergesort+0x208>
     a64:	000a8493          	mv	s1,s5
     a68:	001b1b13          	slli	s6,s6,0x1
     a6c:	e4dff06f          	j	8b8 <core_list_mergesort+0x48>
     a70:	00002023          	sw	zero,0(zero) # 0 <_start>
     a74:	00100073          	ebreak
     a78:	02c12083          	lw	ra,44(sp)
     a7c:	02812403          	lw	s0,40(sp)
     a80:	02412483          	lw	s1,36(sp)
     a84:	02012903          	lw	s2,32(sp)
     a88:	01c12983          	lw	s3,28(sp)
     a8c:	01812a03          	lw	s4,24(sp)
     a90:	01012b03          	lw	s6,16(sp)
     a94:	00c12b83          	lw	s7,12(sp)
     a98:	00812c03          	lw	s8,8(sp)
     a9c:	00412c83          	lw	s9,4(sp)
     aa0:	00012d03          	lw	s10,0(sp)
     aa4:	000a8513          	mv	a0,s5
     aa8:	01412a83          	lw	s5,20(sp)
     aac:	03010113          	addi	sp,sp,48
     ab0:	00008067          	ret
	...

00000ac0 <core_bench_list>:
     ac0:	00451883          	lh	a7,4(a0)
     ac4:	fe010113          	addi	sp,sp,-32
     ac8:	00812c23          	sw	s0,24(sp)
     acc:	00112e23          	sw	ra,28(sp)
     ad0:	00912a23          	sw	s1,20(sp)
     ad4:	01212823          	sw	s2,16(sp)
     ad8:	01312623          	sw	s3,12(sp)
     adc:	01412423          	sw	s4,8(sp)
     ae0:	01512223          	sw	s5,4(sp)
     ae4:	02452403          	lw	s0,36(a0)
     ae8:	00050613          	mv	a2,a0
     aec:	25105e63          	blez	a7,d48 <core_bench_list+0x288>
     af0:	00058993          	mv	s3,a1
     af4:	00000e13          	li	t3,0
     af8:	00000513          	li	a0,0
     afc:	00000813          	li	a6,0
     b00:	00000313          	li	t1,0
     b04:	0ffe7a13          	zext.b	s4,t3
     b08:	1e09c463          	bltz	s3,cf0 <core_bench_list+0x230>
     b0c:	22040c63          	beqz	s0,d44 <core_bench_list+0x284>
     b10:	00040793          	mv	a5,s0
     b14:	00c0006f          	j	b20 <core_bench_list+0x60>
     b18:	0007a783          	lw	a5,0(a5)
     b1c:	00078863          	beqz	a5,b2c <core_bench_list+0x6c>
     b20:	0047a703          	lw	a4,4(a5)
     b24:	00271703          	lh	a4,2(a4)
     b28:	ff3718e3          	bne	a4,s3,b18 <core_bench_list+0x58>
     b2c:	00000693          	li	a3,0
     b30:	0080006f          	j	b38 <core_bench_list+0x78>
     b34:	00070413          	mv	s0,a4
     b38:	00042703          	lw	a4,0(s0)
     b3c:	00d42023          	sw	a3,0(s0)
     b40:	00040693          	mv	a3,s0
     b44:	fe0718e3          	bnez	a4,b34 <core_bench_list+0x74>
     b48:	1c078863          	beqz	a5,d18 <core_bench_list+0x258>
     b4c:	0047a683          	lw	a3,4(a5)
     b50:	00180493          	addi	s1,a6,1
     b54:	01049813          	slli	a6,s1,0x10
     b58:	00069703          	lh	a4,0(a3)
     b5c:	01085813          	srli	a6,a6,0x10
     b60:	00177693          	andi	a3,a4,1
     b64:	00068c63          	beqz	a3,b7c <core_bench_list+0xbc>
     b68:	40975713          	srai	a4,a4,0x9
     b6c:	00177713          	andi	a4,a4,1
     b70:	00670733          	add	a4,a4,t1
     b74:	01071313          	slli	t1,a4,0x10
     b78:	01035313          	srli	t1,t1,0x10
     b7c:	0007a683          	lw	a3,0(a5)
     b80:	00068c63          	beqz	a3,b98 <core_bench_list+0xd8>
     b84:	0006a703          	lw	a4,0(a3)
     b88:	00e7a023          	sw	a4,0(a5)
     b8c:	00042783          	lw	a5,0(s0)
     b90:	00f6a023          	sw	a5,0(a3)
     b94:	00d42023          	sw	a3,0(s0)
     b98:	0009c863          	bltz	s3,ba8 <core_bench_list+0xe8>
     b9c:	00198993          	addi	s3,s3,1
     ba0:	01099993          	slli	s3,s3,0x10
     ba4:	4109d993          	srai	s3,s3,0x10
     ba8:	001e0793          	addi	a5,t3,1
     bac:	01079e13          	slli	t3,a5,0x10
     bb0:	410e5e13          	srai	t3,t3,0x10
     bb4:	f5c898e3          	bne	a7,t3,b04 <core_bench_list+0x44>
     bb8:	00281493          	slli	s1,a6,0x2
     bbc:	40a484b3          	sub	s1,s1,a0
     bc0:	006484b3          	add	s1,s1,t1
     bc4:	01049493          	slli	s1,s1,0x10
     bc8:	0104d493          	srli	s1,s1,0x10
     bcc:	00b05c63          	blez	a1,be4 <core_bench_list+0x124>
     bd0:	000015b7          	lui	a1,0x1
     bd4:	00040513          	mv	a0,s0
     bd8:	82058593          	addi	a1,a1,-2016 # 820 <cmp_complex>
     bdc:	c95ff0ef          	jal	ra,870 <core_list_mergesort>
     be0:	00050413          	mv	s0,a0
     be4:	00042783          	lw	a5,0(s0)
     be8:	00040913          	mv	s2,s0
     bec:	0007aa83          	lw	s5,0(a5)
     bf0:	0047a703          	lw	a4,4(a5)
     bf4:	004aa603          	lw	a2,4(s5)
     bf8:	000aa683          	lw	a3,0(s5)
     bfc:	00c7a223          	sw	a2,4(a5)
     c00:	00eaa223          	sw	a4,4(s5)
     c04:	00d7a023          	sw	a3,0(a5)
     c08:	000aa023          	sw	zero,0(s5)
     c0c:	0c09c063          	bltz	s3,ccc <core_bench_list+0x20c>
     c10:	00492783          	lw	a5,4(s2)
     c14:	00279783          	lh	a5,2(a5)
     c18:	01378c63          	beq	a5,s3,c30 <core_bench_list+0x170>
     c1c:	00092903          	lw	s2,0(s2)
     c20:	fe0918e3          	bnez	s2,c10 <core_bench_list+0x150>
     c24:	00042783          	lw	a5,0(s0)
     c28:	00078913          	mv	s2,a5
     c2c:	02078463          	beqz	a5,c54 <core_bench_list+0x194>
     c30:	00442783          	lw	a5,4(s0)
     c34:	00048593          	mv	a1,s1
     c38:	00079503          	lh	a0,0(a5)
     c3c:	5c4030ef          	jal	ra,4200 <crc16>
     c40:	00092903          	lw	s2,0(s2)
     c44:	00050493          	mv	s1,a0
     c48:	fe0914e3          	bnez	s2,c30 <core_bench_list+0x170>
     c4c:	004aa703          	lw	a4,4(s5)
     c50:	00042783          	lw	a5,0(s0)
     c54:	0047a603          	lw	a2,4(a5)
     c58:	0007a683          	lw	a3,0(a5)
     c5c:	00caa223          	sw	a2,4(s5)
     c60:	00e7a223          	sw	a4,4(a5)
     c64:	00daa023          	sw	a3,0(s5)
     c68:	00040513          	mv	a0,s0
     c6c:	0157a023          	sw	s5,0(a5)
     c70:	00000613          	li	a2,0
     c74:	66000593          	li	a1,1632
     c78:	bf9ff0ef          	jal	ra,870 <core_list_mergesort>
     c7c:	00052403          	lw	s0,0(a0)
     c80:	00050913          	mv	s2,a0
     c84:	02040063          	beqz	s0,ca4 <core_bench_list+0x1e4>
     c88:	00492783          	lw	a5,4(s2)
     c8c:	00048593          	mv	a1,s1
     c90:	00079503          	lh	a0,0(a5)
     c94:	56c030ef          	jal	ra,4200 <crc16>
     c98:	00042403          	lw	s0,0(s0)
     c9c:	00050493          	mv	s1,a0
     ca0:	fe0414e3          	bnez	s0,c88 <core_bench_list+0x1c8>
     ca4:	01c12083          	lw	ra,28(sp)
     ca8:	01812403          	lw	s0,24(sp)
     cac:	01012903          	lw	s2,16(sp)
     cb0:	00c12983          	lw	s3,12(sp)
     cb4:	00812a03          	lw	s4,8(sp)
     cb8:	00412a83          	lw	s5,4(sp)
     cbc:	00048513          	mv	a0,s1
     cc0:	01412483          	lw	s1,20(sp)
     cc4:	02010113          	addi	sp,sp,32
     cc8:	00008067          	ret
     ccc:	00492783          	lw	a5,4(s2)
     cd0:	0007c783          	lbu	a5,0(a5)
     cd4:	f5478ee3          	beq	a5,s4,c30 <core_bench_list+0x170>
     cd8:	00092903          	lw	s2,0(s2)
     cdc:	fe0918e3          	bnez	s2,ccc <core_bench_list+0x20c>
     ce0:	00042783          	lw	a5,0(s0)
     ce4:	00078913          	mv	s2,a5
     ce8:	f40794e3          	bnez	a5,c30 <core_bench_list+0x170>
     cec:	f69ff06f          	j	c54 <core_bench_list+0x194>
     cf0:	02040263          	beqz	s0,d14 <core_bench_list+0x254>
     cf4:	00040793          	mv	a5,s0
     cf8:	00c0006f          	j	d04 <core_bench_list+0x244>
     cfc:	0007a783          	lw	a5,0(a5)
     d00:	e20786e3          	beqz	a5,b2c <core_bench_list+0x6c>
     d04:	0047a703          	lw	a4,4(a5)
     d08:	00074703          	lbu	a4,0(a4)
     d0c:	ff4718e3          	bne	a4,s4,cfc <core_bench_list+0x23c>
     d10:	e1dff06f          	j	b2c <core_bench_list+0x6c>
     d14:	b5cff06f          	j	70 <core_bench_list.cold>
     d18:	00042783          	lw	a5,0(s0)
     d1c:	00150493          	addi	s1,a0,1
     d20:	01049513          	slli	a0,s1,0x10
     d24:	0047a783          	lw	a5,4(a5)
     d28:	01055513          	srli	a0,a0,0x10
     d2c:	00178483          	lb	s1,1(a5)
     d30:	0014f493          	andi	s1,s1,1
     d34:	006484b3          	add	s1,s1,t1
     d38:	01049313          	slli	t1,s1,0x10
     d3c:	01035313          	srli	t1,t1,0x10
     d40:	e59ff06f          	j	b98 <core_bench_list+0xd8>
     d44:	b2cff06f          	j	70 <core_bench_list.cold>
     d48:	00000a13          	li	s4,0
     d4c:	00058993          	mv	s3,a1
     d50:	00000493          	li	s1,0
     d54:	e79ff06f          	j	bcc <core_bench_list+0x10c>
	...

00000d60 <core_list_init>:
     d60:	01400f13          	li	t5,20
     d64:	03e55f33          	divu	t5,a0,t5
     d68:	0005a023          	sw	zero,0(a1)
     d6c:	00058513          	mv	a0,a1
     d70:	01058793          	addi	a5,a1,16
     d74:	00858313          	addi	t1,a1,8
     d78:	ffff8737          	lui	a4,0xffff8
     d7c:	08070693          	addi	a3,a4,128 # ffff8080 <__dual_issue_riscv_irq_stack_top+0xefff4080>
     d80:	ffef0f13          	addi	t5,t5,-2
     d84:	003f1593          	slli	a1,t5,0x3
     d88:	00b505b3          	add	a1,a0,a1
     d8c:	00b52223          	sw	a1,4(a0)
     d90:	002f1293          	slli	t0,t5,0x2
     d94:	00059123          	sh	zero,2(a1)
     d98:	00d59023          	sh	a3,0(a1)
     d9c:	005582b3          	add	t0,a1,t0
     da0:	00458813          	addi	a6,a1,4
     da4:	20b7f463          	bgeu	a5,a1,fac <core_list_init+0x24c>
     da8:	00858693          	addi	a3,a1,8
     dac:	2856f063          	bgeu	a3,t0,102c <core_list_init+0x2cc>
     db0:	01052623          	sw	a6,12(a0)
     db4:	00052423          	sw	zero,8(a0)
     db8:	00652023          	sw	t1,0(a0)
     dbc:	fff74713          	not	a4,a4
     dc0:	fff00813          	li	a6,-1
     dc4:	01059223          	sh	a6,4(a1)
     dc8:	00e59323          	sh	a4,6(a1)
     dcc:	1e0f0863          	beqz	t5,fbc <core_list_init+0x25c>
     dd0:	ff010113          	addi	sp,sp,-16
     dd4:	00812623          	sw	s0,12(sp)
     dd8:	01061393          	slli	t2,a2,0x10
     ddc:	ffff8437          	lui	s0,0xffff8
     de0:	00912423          	sw	s1,8(sp)
     de4:	01212223          	sw	s2,4(sp)
     de8:	001f7813          	andi	a6,t5,1
     dec:	00000713          	li	a4,0
     df0:	0103d393          	srli	t2,t2,0x10
     df4:	fff44413          	not	s0,s0
     df8:	16081463          	bnez	a6,f60 <core_list_init+0x200>
     dfc:	00170e93          	addi	t4,a4,1
     e00:	01071713          	slli	a4,a4,0x10
     e04:	01075713          	srli	a4,a4,0x10
     e08:	010e9e13          	slli	t3,t4,0x10
     e0c:	010e5e13          	srli	t3,t3,0x10
     e10:	007748b3          	xor	a7,a4,t2
     e14:	007e4833          	xor	a6,t3,t2
     e18:	00389893          	slli	a7,a7,0x3
     e1c:	00777713          	andi	a4,a4,7
     e20:	00381813          	slli	a6,a6,0x3
     e24:	0788f893          	andi	a7,a7,120
     e28:	00e8e8b3          	or	a7,a7,a4
     e2c:	007e7e13          	andi	t3,t3,7
     e30:	07887813          	andi	a6,a6,120
     e34:	01c86833          	or	a6,a6,t3
     e38:	00889493          	slli	s1,a7,0x8
     e3c:	00878913          	addi	s2,a5,8
     e40:	001e8713          	addi	a4,t4,1
     e44:	00881f93          	slli	t6,a6,0x8
     e48:	00468e13          	addi	t3,a3,4
     e4c:	01078e93          	addi	t4,a5,16
     e50:	0114e8b3          	or	a7,s1,a7
     e54:	10b97263          	bgeu	s2,a1,f58 <core_list_init+0x1f8>
     e58:	0e5e7a63          	bgeu	t3,t0,f4c <core_list_init+0x1ec>
     e5c:	0067a023          	sw	t1,0(a5)
     e60:	00f52023          	sw	a5,0(a0)
     e64:	00d7a223          	sw	a3,4(a5)
     e68:	00078313          	mv	t1,a5
     e6c:	01169023          	sh	a7,0(a3)
     e70:	00869123          	sh	s0,2(a3)
     e74:	00090793          	mv	a5,s2
     e78:	000e0693          	mv	a3,t3
     e7c:	004e0e13          	addi	t3,t3,4
     e80:	010fe833          	or	a6,t6,a6
     e84:	02bef463          	bgeu	t4,a1,eac <core_list_init+0x14c>
     e88:	025e7263          	bgeu	t3,t0,eac <core_list_init+0x14c>
     e8c:	0067a023          	sw	t1,0(a5)
     e90:	00f52023          	sw	a5,0(a0)
     e94:	00d7a223          	sw	a3,4(a5)
     e98:	01069023          	sh	a6,0(a3)
     e9c:	00869123          	sh	s0,2(a3)
     ea0:	00078313          	mv	t1,a5
     ea4:	000e0693          	mv	a3,t3
     ea8:	000e8793          	mv	a5,t4
     eac:	f4ef18e3          	bne	t5,a4,dfc <core_list_init+0x9c>
     eb0:	00032683          	lw	a3,0(t1)
     eb4:	06068e63          	beqz	a3,f30 <core_list_init+0x1d0>
     eb8:	00500593          	li	a1,5
     ebc:	00004eb7          	lui	t4,0x4
     ec0:	02bf5f33          	divu	t5,t5,a1
     ec4:	20000793          	li	a5,512
     ec8:	00100713          	li	a4,1
     ecc:	fffe8e93          	addi	t4,t4,-1 # 3fff <crcu32+0x32f>
     ed0:	0280006f          	j	ef8 <core_list_init+0x198>
     ed4:	0006ae03          	lw	t3,0(a3)
     ed8:	10078793          	addi	a5,a5,256
     edc:	00e59123          	sh	a4,2(a1)
     ee0:	01079793          	slli	a5,a5,0x10
     ee4:	00170713          	addi	a4,a4,1
     ee8:	0107d793          	srli	a5,a5,0x10
     eec:	00068313          	mv	t1,a3
     ef0:	040e0063          	beqz	t3,f30 <core_list_init+0x1d0>
     ef4:	000e0693          	mv	a3,t3
     ef8:	00432583          	lw	a1,4(t1)
     efc:	fde76ce3          	bltu	a4,t5,ed4 <core_list_init+0x174>
     f00:	7007f893          	andi	a7,a5,1792
     f04:	00e64833          	xor	a6,a2,a4
     f08:	0006ae03          	lw	t3,0(a3)
     f0c:	0108e833          	or	a6,a7,a6
     f10:	01d87833          	and	a6,a6,t4
     f14:	10078793          	addi	a5,a5,256
     f18:	01079793          	slli	a5,a5,0x10
     f1c:	01059123          	sh	a6,2(a1)
     f20:	00170713          	addi	a4,a4,1
     f24:	0107d793          	srli	a5,a5,0x10
     f28:	00068313          	mv	t1,a3
     f2c:	fc0e14e3          	bnez	t3,ef4 <core_list_init+0x194>
     f30:	00c12403          	lw	s0,12(sp)
     f34:	00812483          	lw	s1,8(sp)
     f38:	00412903          	lw	s2,4(sp)
     f3c:	00000613          	li	a2,0
     f40:	66000593          	li	a1,1632
     f44:	01010113          	addi	sp,sp,16
     f48:	929ff06f          	j	870 <core_list_mergesort>
     f4c:	00468e13          	addi	t3,a3,4
     f50:	00878e93          	addi	t4,a5,8
     f54:	f2dff06f          	j	e80 <core_list_init+0x120>
     f58:	00878e93          	addi	t4,a5,8
     f5c:	f25ff06f          	j	e80 <core_list_init+0x120>
     f60:	00339713          	slli	a4,t2,0x3
     f64:	07877713          	andi	a4,a4,120
     f68:	00871813          	slli	a6,a4,0x8
     f6c:	00878893          	addi	a7,a5,8
     f70:	00e86733          	or	a4,a6,a4
     f74:	02b8f663          	bgeu	a7,a1,fa0 <core_list_init+0x240>
     f78:	00468813          	addi	a6,a3,4
     f7c:	02587263          	bgeu	a6,t0,fa0 <core_list_init+0x240>
     f80:	0067a023          	sw	t1,0(a5)
     f84:	00f52023          	sw	a5,0(a0)
     f88:	00d7a223          	sw	a3,4(a5)
     f8c:	00e69023          	sh	a4,0(a3)
     f90:	00869123          	sh	s0,2(a3)
     f94:	00078313          	mv	t1,a5
     f98:	00080693          	mv	a3,a6
     f9c:	00088793          	mv	a5,a7
     fa0:	00100713          	li	a4,1
     fa4:	e4ef1ce3          	bne	t5,a4,dfc <core_list_init+0x9c>
     fa8:	f09ff06f          	j	eb0 <core_list_init+0x150>
     fac:	00030793          	mv	a5,t1
     fb0:	00080693          	mv	a3,a6
     fb4:	00000313          	li	t1,0
     fb8:	e00f1ce3          	bnez	t5,dd0 <core_list_init+0x70>
     fbc:	00032683          	lw	a3,0(t1)
     fc0:	06068e63          	beqz	a3,103c <core_list_init+0x2dc>
     fc4:	00500593          	li	a1,5
     fc8:	00004eb7          	lui	t4,0x4
     fcc:	02bf5f33          	divu	t5,t5,a1
     fd0:	20000793          	li	a5,512
     fd4:	00100713          	li	a4,1
     fd8:	fffe8e93          	addi	t4,t4,-1 # 3fff <crcu32+0x32f>
     fdc:	0280006f          	j	1004 <core_list_init+0x2a4>
     fe0:	0006ae03          	lw	t3,0(a3)
     fe4:	10078793          	addi	a5,a5,256
     fe8:	00e59123          	sh	a4,2(a1)
     fec:	01079793          	slli	a5,a5,0x10
     ff0:	00170713          	addi	a4,a4,1
     ff4:	0107d793          	srli	a5,a5,0x10
     ff8:	00068313          	mv	t1,a3
     ffc:	040e0063          	beqz	t3,103c <core_list_init+0x2dc>
    1000:	000e0693          	mv	a3,t3
    1004:	00432583          	lw	a1,4(t1)
    1008:	fde76ce3          	bltu	a4,t5,fe0 <core_list_init+0x280>
    100c:	7007f893          	andi	a7,a5,1792
    1010:	00e64833          	xor	a6,a2,a4
    1014:	0108e833          	or	a6,a7,a6
    1018:	01d87833          	and	a6,a6,t4
    101c:	0006ae03          	lw	t3,0(a3)
    1020:	10078793          	addi	a5,a5,256
    1024:	01059123          	sh	a6,2(a1)
    1028:	fc5ff06f          	j	fec <core_list_init+0x28c>
    102c:	00030793          	mv	a5,t1
    1030:	00080693          	mv	a3,a6
    1034:	00000313          	li	t1,0
    1038:	d95ff06f          	j	dcc <core_list_init+0x6c>
    103c:	00000613          	li	a2,0
    1040:	66000593          	li	a1,1632
    1044:	82dff06f          	j	870 <core_list_mergesort>
	...

00001060 <iterate>:
    1060:	fe010113          	addi	sp,sp,-32
    1064:	01312623          	sw	s3,12(sp)
    1068:	01c52983          	lw	s3,28(a0)
    106c:	00112e23          	sw	ra,28(sp)
    1070:	00812c23          	sw	s0,24(sp)
    1074:	00912a23          	sw	s1,20(sp)
    1078:	01212823          	sw	s2,16(sp)
    107c:	01412423          	sw	s4,8(sp)
    1080:	01512223          	sw	s5,4(sp)
    1084:	02052c23          	sw	zero,56(a0)
    1088:	02052e23          	sw	zero,60(a0)
    108c:	1c098463          	beqz	s3,1254 <iterate+0x1f4>
    1090:	0039f793          	andi	a5,s3,3
    1094:	00050413          	mv	s0,a0
    1098:	00000493          	li	s1,0
    109c:	0a078e63          	beqz	a5,1158 <iterate+0xf8>
    10a0:	00100713          	li	a4,1
    10a4:	06e78c63          	beq	a5,a4,111c <iterate+0xbc>
    10a8:	00200713          	li	a4,2
    10ac:	02e78c63          	beq	a5,a4,10e4 <iterate+0x84>
    10b0:	00100593          	li	a1,1
    10b4:	a0dff0ef          	jal	ra,ac0 <core_bench_list>
    10b8:	03845583          	lhu	a1,56(s0) # ffff8038 <__dual_issue_riscv_irq_stack_top+0xefff4038>
    10bc:	00100493          	li	s1,1
    10c0:	171020ef          	jal	ra,3a30 <crcu16>
    10c4:	02a41c23          	sh	a0,56(s0)
    10c8:	fff00593          	li	a1,-1
    10cc:	00040513          	mv	a0,s0
    10d0:	9f1ff0ef          	jal	ra,ac0 <core_bench_list>
    10d4:	03845583          	lhu	a1,56(s0)
    10d8:	159020ef          	jal	ra,3a30 <crcu16>
    10dc:	02a41c23          	sh	a0,56(s0)
    10e0:	02a41d23          	sh	a0,58(s0)
    10e4:	00100593          	li	a1,1
    10e8:	00040513          	mv	a0,s0
    10ec:	9d5ff0ef          	jal	ra,ac0 <core_bench_list>
    10f0:	03845583          	lhu	a1,56(s0)
    10f4:	13d020ef          	jal	ra,3a30 <crcu16>
    10f8:	02a41c23          	sh	a0,56(s0)
    10fc:	fff00593          	li	a1,-1
    1100:	00040513          	mv	a0,s0
    1104:	9bdff0ef          	jal	ra,ac0 <core_bench_list>
    1108:	03845583          	lhu	a1,56(s0)
    110c:	125020ef          	jal	ra,3a30 <crcu16>
    1110:	02a41c23          	sh	a0,56(s0)
    1114:	18048263          	beqz	s1,1298 <iterate+0x238>
    1118:	00148493          	addi	s1,s1,1
    111c:	00100593          	li	a1,1
    1120:	00040513          	mv	a0,s0
    1124:	99dff0ef          	jal	ra,ac0 <core_bench_list>
    1128:	03845583          	lhu	a1,56(s0)
    112c:	105020ef          	jal	ra,3a30 <crcu16>
    1130:	02a41c23          	sh	a0,56(s0)
    1134:	fff00593          	li	a1,-1
    1138:	00040513          	mv	a0,s0
    113c:	985ff0ef          	jal	ra,ac0 <core_bench_list>
    1140:	03845583          	lhu	a1,56(s0)
    1144:	0ed020ef          	jal	ra,3a30 <crcu16>
    1148:	02a41c23          	sh	a0,56(s0)
    114c:	12048e63          	beqz	s1,1288 <iterate+0x228>
    1150:	00148493          	addi	s1,s1,1
    1154:	10998063          	beq	s3,s1,1254 <iterate+0x1f4>
    1158:	00100593          	li	a1,1
    115c:	00040513          	mv	a0,s0
    1160:	961ff0ef          	jal	ra,ac0 <core_bench_list>
    1164:	03845583          	lhu	a1,56(s0)
    1168:	00148913          	addi	s2,s1,1
    116c:	00190a93          	addi	s5,s2,1
    1170:	0c1020ef          	jal	ra,3a30 <crcu16>
    1174:	02a41c23          	sh	a0,56(s0)
    1178:	fff00593          	li	a1,-1
    117c:	00040513          	mv	a0,s0
    1180:	941ff0ef          	jal	ra,ac0 <core_bench_list>
    1184:	03845583          	lhu	a1,56(s0)
    1188:	0a9020ef          	jal	ra,3a30 <crcu16>
    118c:	00050793          	mv	a5,a0
    1190:	02f41c23          	sh	a5,56(s0)
    1194:	00100593          	li	a1,1
    1198:	00040513          	mv	a0,s0
    119c:	00049463          	bnez	s1,11a4 <iterate+0x144>
    11a0:	02f41d23          	sh	a5,58(s0)
    11a4:	91dff0ef          	jal	ra,ac0 <core_bench_list>
    11a8:	03845583          	lhu	a1,56(s0)
    11ac:	00290a13          	addi	s4,s2,2
    11b0:	00390493          	addi	s1,s2,3
    11b4:	07d020ef          	jal	ra,3a30 <crcu16>
    11b8:	02a41c23          	sh	a0,56(s0)
    11bc:	fff00593          	li	a1,-1
    11c0:	00040513          	mv	a0,s0
    11c4:	8fdff0ef          	jal	ra,ac0 <core_bench_list>
    11c8:	03845583          	lhu	a1,56(s0)
    11cc:	065020ef          	jal	ra,3a30 <crcu16>
    11d0:	00050793          	mv	a5,a0
    11d4:	02f41c23          	sh	a5,56(s0)
    11d8:	00100593          	li	a1,1
    11dc:	00040513          	mv	a0,s0
    11e0:	00091463          	bnez	s2,11e8 <iterate+0x188>
    11e4:	02f41d23          	sh	a5,58(s0)
    11e8:	8d9ff0ef          	jal	ra,ac0 <core_bench_list>
    11ec:	03845583          	lhu	a1,56(s0)
    11f0:	041020ef          	jal	ra,3a30 <crcu16>
    11f4:	02a41c23          	sh	a0,56(s0)
    11f8:	fff00593          	li	a1,-1
    11fc:	00040513          	mv	a0,s0
    1200:	8c1ff0ef          	jal	ra,ac0 <core_bench_list>
    1204:	03845583          	lhu	a1,56(s0)
    1208:	029020ef          	jal	ra,3a30 <crcu16>
    120c:	00050793          	mv	a5,a0
    1210:	02f41c23          	sh	a5,56(s0)
    1214:	00100593          	li	a1,1
    1218:	00040513          	mv	a0,s0
    121c:	000a9463          	bnez	s5,1224 <iterate+0x1c4>
    1220:	02f41d23          	sh	a5,58(s0)
    1224:	89dff0ef          	jal	ra,ac0 <core_bench_list>
    1228:	03845583          	lhu	a1,56(s0)
    122c:	005020ef          	jal	ra,3a30 <crcu16>
    1230:	02a41c23          	sh	a0,56(s0)
    1234:	fff00593          	li	a1,-1
    1238:	00040513          	mv	a0,s0
    123c:	885ff0ef          	jal	ra,ac0 <core_bench_list>
    1240:	03845583          	lhu	a1,56(s0)
    1244:	7ec020ef          	jal	ra,3a30 <crcu16>
    1248:	02a41c23          	sh	a0,56(s0)
    124c:	020a0863          	beqz	s4,127c <iterate+0x21c>
    1250:	f09994e3          	bne	s3,s1,1158 <iterate+0xf8>
    1254:	01c12083          	lw	ra,28(sp)
    1258:	01812403          	lw	s0,24(sp)
    125c:	01412483          	lw	s1,20(sp)
    1260:	01012903          	lw	s2,16(sp)
    1264:	00c12983          	lw	s3,12(sp)
    1268:	00812a03          	lw	s4,8(sp)
    126c:	00412a83          	lw	s5,4(sp)
    1270:	00000513          	li	a0,0
    1274:	02010113          	addi	sp,sp,32
    1278:	00008067          	ret
    127c:	02a41d23          	sh	a0,58(s0)
    1280:	ec999ce3          	bne	s3,s1,1158 <iterate+0xf8>
    1284:	fd1ff06f          	j	1254 <iterate+0x1f4>
    1288:	02a41d23          	sh	a0,58(s0)
    128c:	00148493          	addi	s1,s1,1
    1290:	ec9994e3          	bne	s3,s1,1158 <iterate+0xf8>
    1294:	fc1ff06f          	j	1254 <iterate+0x1f4>
    1298:	02a41d23          	sh	a0,58(s0)
    129c:	00148493          	addi	s1,s1,1
    12a0:	e7dff06f          	j	111c <iterate+0xbc>
	...

000012b0 <core_init_matrix>:
    12b0:	fd010113          	addi	sp,sp,-48
    12b4:	03212223          	sw	s2,36(sp)
    12b8:	02812623          	sw	s0,44(sp)
    12bc:	02912423          	sw	s1,40(sp)
    12c0:	03312023          	sw	s3,32(sp)
    12c4:	01412e23          	sw	s4,28(sp)
    12c8:	01512c23          	sw	s5,24(sp)
    12cc:	01612a23          	sw	s6,20(sp)
    12d0:	01712823          	sw	s7,16(sp)
    12d4:	01812623          	sw	s8,12(sp)
    12d8:	01912423          	sw	s9,8(sp)
    12dc:	01a12223          	sw	s10,4(sp)
    12e0:	00050813          	mv	a6,a0
    12e4:	00068913          	mv	s2,a3
    12e8:	00061463          	bnez	a2,12f0 <core_init_matrix+0x40>
    12ec:	00100613          	li	a2,1
    12f0:	00000793          	li	a5,0
    12f4:	2c080463          	beqz	a6,15bc <core_init_matrix+0x30c>
    12f8:	00078513          	mv	a0,a5
    12fc:	00178793          	addi	a5,a5,1
    1300:	02f78733          	mul	a4,a5,a5
    1304:	00371713          	slli	a4,a4,0x3
    1308:	ff0768e3          	bltu	a4,a6,12f8 <core_init_matrix+0x48>
    130c:	02a50433          	mul	s0,a0,a0
    1310:	00358593          	addi	a1,a1,3
    1314:	ffc5fa13          	andi	s4,a1,-4
    1318:	00050a93          	mv	s5,a0
    131c:	000a0e13          	mv	t3,s4
    1320:	00141413          	slli	s0,s0,0x1
    1324:	008a09b3          	add	s3,s4,s0
    1328:	24050263          	beqz	a0,156c <core_init_matrix+0x2bc>
    132c:	00010eb7          	lui	t4,0x10
    1330:	00098f93          	mv	t6,s3
    1334:	00000393          	li	t2,0
    1338:	00100813          	li	a6,1
    133c:	00150f13          	addi	t5,a0,1
    1340:	00151493          	slli	s1,a0,0x1
    1344:	fffe8e93          	addi	t4,t4,-1 # ffff <_data_lma+0x9747>
    1348:	413e0e33          	sub	t3,t3,s3
    134c:	410f07b3          	sub	a5,t5,a6
    1350:	0037f793          	andi	a5,a5,3
    1354:	000f8593          	mv	a1,t6
    1358:	00080693          	mv	a3,a6
    135c:	0e078863          	beqz	a5,144c <core_init_matrix+0x19c>
    1360:	00100713          	li	a4,1
    1364:	08e78e63          	beq	a5,a4,1400 <core_init_matrix+0x150>
    1368:	00200713          	li	a4,2
    136c:	04e78663          	beq	a5,a4,13b8 <core_init_matrix+0x108>
    1370:	03060633          	mul	a2,a2,a6
    1374:	01081793          	slli	a5,a6,0x10
    1378:	4107d793          	srai	a5,a5,0x10
    137c:	01fe08b3          	add	a7,t3,t6
    1380:	002f8593          	addi	a1,t6,2
    1384:	00180813          	addi	a6,a6,1
    1388:	41f65713          	srai	a4,a2,0x1f
    138c:	01075713          	srli	a4,a4,0x10
    1390:	00e60633          	add	a2,a2,a4
    1394:	01d67633          	and	a2,a2,t4
    1398:	40e60633          	sub	a2,a2,a4
    139c:	00c78733          	add	a4,a5,a2
    13a0:	01071713          	slli	a4,a4,0x10
    13a4:	41075713          	srai	a4,a4,0x10
    13a8:	00e787b3          	add	a5,a5,a4
    13ac:	00ef9023          	sh	a4,0(t6)
    13b0:	0ff7f793          	zext.b	a5,a5
    13b4:	00f89023          	sh	a5,0(a7)
    13b8:	03060633          	mul	a2,a2,a6
    13bc:	01081793          	slli	a5,a6,0x10
    13c0:	4107d793          	srai	a5,a5,0x10
    13c4:	00be08b3          	add	a7,t3,a1
    13c8:	00180813          	addi	a6,a6,1
    13cc:	00258593          	addi	a1,a1,2
    13d0:	41f65713          	srai	a4,a2,0x1f
    13d4:	01075713          	srli	a4,a4,0x10
    13d8:	00e60633          	add	a2,a2,a4
    13dc:	01d67633          	and	a2,a2,t4
    13e0:	40e60633          	sub	a2,a2,a4
    13e4:	00c78733          	add	a4,a5,a2
    13e8:	01071713          	slli	a4,a4,0x10
    13ec:	41075713          	srai	a4,a4,0x10
    13f0:	00e787b3          	add	a5,a5,a4
    13f4:	fee59f23          	sh	a4,-2(a1)
    13f8:	0ff7f793          	zext.b	a5,a5
    13fc:	00f89023          	sh	a5,0(a7)
    1400:	03060633          	mul	a2,a2,a6
    1404:	01081793          	slli	a5,a6,0x10
    1408:	4107d793          	srai	a5,a5,0x10
    140c:	00be08b3          	add	a7,t3,a1
    1410:	00180813          	addi	a6,a6,1
    1414:	00258593          	addi	a1,a1,2
    1418:	41f65713          	srai	a4,a2,0x1f
    141c:	01075713          	srli	a4,a4,0x10
    1420:	00e60633          	add	a2,a2,a4
    1424:	01d67633          	and	a2,a2,t4
    1428:	40e60633          	sub	a2,a2,a4
    142c:	00c78733          	add	a4,a5,a2
    1430:	01071713          	slli	a4,a4,0x10
    1434:	41075713          	srai	a4,a4,0x10
    1438:	00e787b3          	add	a5,a5,a4
    143c:	fee59f23          	sh	a4,-2(a1)
    1440:	0ff7f793          	zext.b	a5,a5
    1444:	00f89023          	sh	a5,0(a7)
    1448:	11e80863          	beq	a6,t5,1558 <core_init_matrix+0x2a8>
    144c:	03060633          	mul	a2,a2,a6
    1450:	00180713          	addi	a4,a6,1
    1454:	01071c13          	slli	s8,a4,0x10
    1458:	01081893          	slli	a7,a6,0x10
    145c:	4108d893          	srai	a7,a7,0x10
    1460:	00280793          	addi	a5,a6,2
    1464:	01079313          	slli	t1,a5,0x10
    1468:	410c5c13          	srai	s8,s8,0x10
    146c:	00be02b3          	add	t0,t3,a1
    1470:	00380b93          	addi	s7,a6,3
    1474:	41f65d13          	srai	s10,a2,0x1f
    1478:	010d5d13          	srli	s10,s10,0x10
    147c:	01a60633          	add	a2,a2,s10
    1480:	01d67633          	and	a2,a2,t4
    1484:	41a60633          	sub	a2,a2,s10
    1488:	02e60733          	mul	a4,a2,a4
    148c:	00c88633          	add	a2,a7,a2
    1490:	01061613          	slli	a2,a2,0x10
    1494:	41065613          	srai	a2,a2,0x10
    1498:	00c59023          	sh	a2,0(a1)
    149c:	00c888b3          	add	a7,a7,a2
    14a0:	0ff8f893          	zext.b	a7,a7
    14a4:	01129023          	sh	a7,0(t0)
    14a8:	010b9893          	slli	a7,s7,0x10
    14ac:	41035313          	srai	t1,t1,0x10
    14b0:	41f75613          	srai	a2,a4,0x1f
    14b4:	01065613          	srli	a2,a2,0x10
    14b8:	00c70733          	add	a4,a4,a2
    14bc:	01d77733          	and	a4,a4,t4
    14c0:	40c70733          	sub	a4,a4,a2
    14c4:	02f707b3          	mul	a5,a4,a5
    14c8:	00ec0733          	add	a4,s8,a4
    14cc:	01071713          	slli	a4,a4,0x10
    14d0:	41075713          	srai	a4,a4,0x10
    14d4:	00e59123          	sh	a4,2(a1)
    14d8:	00ec0c33          	add	s8,s8,a4
    14dc:	0ffc7c13          	zext.b	s8,s8
    14e0:	4108d893          	srai	a7,a7,0x10
    14e4:	01829123          	sh	s8,2(t0)
    14e8:	00480813          	addi	a6,a6,4
    14ec:	41f7d713          	srai	a4,a5,0x1f
    14f0:	01075713          	srli	a4,a4,0x10
    14f4:	00e787b3          	add	a5,a5,a4
    14f8:	01d7f7b3          	and	a5,a5,t4
    14fc:	40e787b3          	sub	a5,a5,a4
    1500:	03778bb3          	mul	s7,a5,s7
    1504:	00f307b3          	add	a5,t1,a5
    1508:	01079793          	slli	a5,a5,0x10
    150c:	4107d793          	srai	a5,a5,0x10
    1510:	00f59223          	sh	a5,4(a1)
    1514:	00f30333          	add	t1,t1,a5
    1518:	0ff37313          	zext.b	t1,t1
    151c:	00629223          	sh	t1,4(t0)
    1520:	00858593          	addi	a1,a1,8
    1524:	41fbd613          	srai	a2,s7,0x1f
    1528:	01065613          	srli	a2,a2,0x10
    152c:	00cb8bb3          	add	s7,s7,a2
    1530:	01dbfbb3          	and	s7,s7,t4
    1534:	40cb8633          	sub	a2,s7,a2
    1538:	00c887b3          	add	a5,a7,a2
    153c:	01079793          	slli	a5,a5,0x10
    1540:	4107d793          	srai	a5,a5,0x10
    1544:	00f888b3          	add	a7,a7,a5
    1548:	fef59f23          	sh	a5,-2(a1)
    154c:	0ff8f893          	zext.b	a7,a7
    1550:	01129323          	sh	a7,6(t0)
    1554:	efe81ce3          	bne	a6,t5,144c <core_init_matrix+0x19c>
    1558:	00138393          	addi	t2,t2,1
    155c:	00d50833          	add	a6,a0,a3
    1560:	00af0f33          	add	t5,t5,a0
    1564:	009f8fb3          	add	t6,t6,s1
    1568:	de7512e3          	bne	a0,t2,134c <core_init_matrix+0x9c>
    156c:	008987b3          	add	a5,s3,s0
    1570:	00378793          	addi	a5,a5,3
    1574:	02c12403          	lw	s0,44(sp)
    1578:	ffc7f793          	andi	a5,a5,-4
    157c:	01492223          	sw	s4,4(s2)
    1580:	01392423          	sw	s3,8(s2)
    1584:	01592023          	sw	s5,0(s2)
    1588:	00f92623          	sw	a5,12(s2)
    158c:	02812483          	lw	s1,40(sp)
    1590:	02412903          	lw	s2,36(sp)
    1594:	02012983          	lw	s3,32(sp)
    1598:	01c12a03          	lw	s4,28(sp)
    159c:	01812a83          	lw	s5,24(sp)
    15a0:	01412b03          	lw	s6,20(sp)
    15a4:	01012b83          	lw	s7,16(sp)
    15a8:	00c12c03          	lw	s8,12(sp)
    15ac:	00812c83          	lw	s9,8(sp)
    15b0:	00412d03          	lw	s10,4(sp)
    15b4:	03010113          	addi	sp,sp,48
    15b8:	00008067          	ret
    15bc:	00358593          	addi	a1,a1,3
    15c0:	ffc5fe13          	andi	t3,a1,-4
    15c4:	fff00513          	li	a0,-1
    15c8:	fff00a93          	li	s5,-1
    15cc:	00200413          	li	s0,2
    15d0:	000e0a13          	mv	s4,t3
    15d4:	002e0993          	addi	s3,t3,2
    15d8:	d55ff06f          	j	132c <core_init_matrix+0x7c>
	...

000015f0 <matrix_mul_matrix>:
    15f0:	fb010113          	addi	sp,sp,-80
    15f4:	04112623          	sw	ra,76(sp)
    15f8:	04812423          	sw	s0,72(sp)
    15fc:	04912223          	sw	s1,68(sp)
    1600:	05212023          	sw	s2,64(sp)
    1604:	03312e23          	sw	s3,60(sp)
    1608:	03412c23          	sw	s4,56(sp)
    160c:	03512a23          	sw	s5,52(sp)
    1610:	03612823          	sw	s6,48(sp)
    1614:	03712623          	sw	s7,44(sp)
    1618:	03812423          	sw	s8,40(sp)
    161c:	03912223          	sw	s9,36(sp)
    1620:	03a12023          	sw	s10,32(sp)
    1624:	01b12e23          	sw	s11,28(sp)
    1628:	00b12423          	sw	a1,8(sp)
    162c:	00d12623          	sw	a3,12(sp)
    1630:	20050a63          	beqz	a0,1844 <matrix_mul_matrix+0x254>
    1634:	00151413          	slli	s0,a0,0x1
    1638:	00050a93          	mv	s5,a0
    163c:	00060993          	mv	s3,a2
    1640:	00000b93          	li	s7,0
    1644:	00000b13          	li	s6,0
    1648:	00860933          	add	s2,a2,s0
    164c:	00251493          	slli	s1,a0,0x2
    1650:	00812783          	lw	a5,8(sp)
    1654:	002b9f13          	slli	t5,s7,0x2
    1658:	00048613          	mv	a2,s1
    165c:	01e78f33          	add	t5,a5,t5
    1660:	000f0513          	mv	a0,t5
    1664:	00000593          	li	a1,0
    1668:	174050ef          	jal	ra,67dc <memset>
    166c:	00c12603          	lw	a2,12(sp)
    1670:	00050f13          	mv	t5,a0
    1674:	00000f93          	li	t6,0
    1678:	413905b3          	sub	a1,s2,s3
    167c:	ffe58593          	addi	a1,a1,-2
    1680:	0015d593          	srli	a1,a1,0x1
    1684:	00158593          	addi	a1,a1,1
    1688:	0075f593          	andi	a1,a1,7
    168c:	00060793          	mv	a5,a2
    1690:	00098693          	mv	a3,s3
    1694:	00000713          	li	a4,0
    1698:	0c058e63          	beqz	a1,1774 <matrix_mul_matrix+0x184>
    169c:	00100513          	li	a0,1
    16a0:	0aa58c63          	beq	a1,a0,1758 <matrix_mul_matrix+0x168>
    16a4:	00200513          	li	a0,2
    16a8:	08a58c63          	beq	a1,a0,1740 <matrix_mul_matrix+0x150>
    16ac:	00300513          	li	a0,3
    16b0:	06a58c63          	beq	a1,a0,1728 <matrix_mul_matrix+0x138>
    16b4:	00400513          	li	a0,4
    16b8:	04a58c63          	beq	a1,a0,1710 <matrix_mul_matrix+0x120>
    16bc:	00500513          	li	a0,5
    16c0:	02a58c63          	beq	a1,a0,16f8 <matrix_mul_matrix+0x108>
    16c4:	00600513          	li	a0,6
    16c8:	00a58c63          	beq	a1,a0,16e0 <matrix_mul_matrix+0xf0>
    16cc:	00099583          	lh	a1,0(s3)
    16d0:	00061703          	lh	a4,0(a2)
    16d4:	00298693          	addi	a3,s3,2
    16d8:	008607b3          	add	a5,a2,s0
    16dc:	02e58733          	mul	a4,a1,a4
    16e0:	00069583          	lh	a1,0(a3)
    16e4:	00079503          	lh	a0,0(a5)
    16e8:	00268693          	addi	a3,a3,2
    16ec:	008787b3          	add	a5,a5,s0
    16f0:	02a585b3          	mul	a1,a1,a0
    16f4:	00b70733          	add	a4,a4,a1
    16f8:	00069583          	lh	a1,0(a3)
    16fc:	00079503          	lh	a0,0(a5)
    1700:	00268693          	addi	a3,a3,2
    1704:	008787b3          	add	a5,a5,s0
    1708:	02a585b3          	mul	a1,a1,a0
    170c:	00b70733          	add	a4,a4,a1
    1710:	00069583          	lh	a1,0(a3)
    1714:	00079503          	lh	a0,0(a5)
    1718:	00268693          	addi	a3,a3,2
    171c:	008787b3          	add	a5,a5,s0
    1720:	02a585b3          	mul	a1,a1,a0
    1724:	00b70733          	add	a4,a4,a1
    1728:	00069583          	lh	a1,0(a3)
    172c:	00079503          	lh	a0,0(a5)
    1730:	00268693          	addi	a3,a3,2
    1734:	008787b3          	add	a5,a5,s0
    1738:	02a585b3          	mul	a1,a1,a0
    173c:	00b70733          	add	a4,a4,a1
    1740:	00069583          	lh	a1,0(a3)
    1744:	00079503          	lh	a0,0(a5)
    1748:	00268693          	addi	a3,a3,2
    174c:	008787b3          	add	a5,a5,s0
    1750:	02a585b3          	mul	a1,a1,a0
    1754:	00b70733          	add	a4,a4,a1
    1758:	00069583          	lh	a1,0(a3)
    175c:	00079503          	lh	a0,0(a5)
    1760:	00268693          	addi	a3,a3,2
    1764:	008787b3          	add	a5,a5,s0
    1768:	02a585b3          	mul	a1,a1,a0
    176c:	00b70733          	add	a4,a4,a1
    1770:	0ad90663          	beq	s2,a3,181c <matrix_mul_matrix+0x22c>
    1774:	00079503          	lh	a0,0(a5)
    1778:	00069d83          	lh	s11,0(a3)
    177c:	008787b3          	add	a5,a5,s0
    1780:	00079583          	lh	a1,0(a5)
    1784:	00269e83          	lh	t4,2(a3)
    1788:	008787b3          	add	a5,a5,s0
    178c:	00469e03          	lh	t3,4(a3)
    1790:	00079d03          	lh	s10,0(a5)
    1794:	008787b3          	add	a5,a5,s0
    1798:	02ad8db3          	mul	s11,s11,a0
    179c:	00669303          	lh	t1,6(a3)
    17a0:	00079c83          	lh	s9,0(a5)
    17a4:	008787b3          	add	a5,a5,s0
    17a8:	00869883          	lh	a7,8(a3)
    17ac:	00079c03          	lh	s8,0(a5)
    17b0:	008787b3          	add	a5,a5,s0
    17b4:	00a69803          	lh	a6,10(a3)
    17b8:	00079a03          	lh	s4,0(a5)
    17bc:	008787b3          	add	a5,a5,s0
    17c0:	02be8eb3          	mul	t4,t4,a1
    17c4:	00c69503          	lh	a0,12(a3)
    17c8:	00079383          	lh	t2,0(a5)
    17cc:	008787b3          	add	a5,a5,s0
    17d0:	00e69583          	lh	a1,14(a3)
    17d4:	00079283          	lh	t0,0(a5)
    17d8:	01b70733          	add	a4,a4,s11
    17dc:	01068693          	addi	a3,a3,16
    17e0:	008787b3          	add	a5,a5,s0
    17e4:	03ae0e33          	mul	t3,t3,s10
    17e8:	01d70733          	add	a4,a4,t4
    17ec:	03930333          	mul	t1,t1,s9
    17f0:	01c70733          	add	a4,a4,t3
    17f4:	038888b3          	mul	a7,a7,s8
    17f8:	00670733          	add	a4,a4,t1
    17fc:	03480833          	mul	a6,a6,s4
    1800:	01170733          	add	a4,a4,a7
    1804:	02750533          	mul	a0,a0,t2
    1808:	01070733          	add	a4,a4,a6
    180c:	025585b3          	mul	a1,a1,t0
    1810:	00a70733          	add	a4,a4,a0
    1814:	00b70733          	add	a4,a4,a1
    1818:	f4d91ee3          	bne	s2,a3,1774 <matrix_mul_matrix+0x184>
    181c:	00ef2023          	sw	a4,0(t5)
    1820:	001f8f93          	addi	t6,t6,1
    1824:	004f0f13          	addi	t5,t5,4
    1828:	00260613          	addi	a2,a2,2
    182c:	e5fa96e3          	bne	s5,t6,1678 <matrix_mul_matrix+0x88>
    1830:	001b0b13          	addi	s6,s6,1
    1834:	008989b3          	add	s3,s3,s0
    1838:	015b8bb3          	add	s7,s7,s5
    183c:	00890933          	add	s2,s2,s0
    1840:	e16a98e3          	bne	s5,s6,1650 <matrix_mul_matrix+0x60>
    1844:	04c12083          	lw	ra,76(sp)
    1848:	04812403          	lw	s0,72(sp)
    184c:	04412483          	lw	s1,68(sp)
    1850:	04012903          	lw	s2,64(sp)
    1854:	03c12983          	lw	s3,60(sp)
    1858:	03812a03          	lw	s4,56(sp)
    185c:	03412a83          	lw	s5,52(sp)
    1860:	03012b03          	lw	s6,48(sp)
    1864:	02c12b83          	lw	s7,44(sp)
    1868:	02812c03          	lw	s8,40(sp)
    186c:	02412c83          	lw	s9,36(sp)
    1870:	02012d03          	lw	s10,32(sp)
    1874:	01c12d83          	lw	s11,28(sp)
    1878:	05010113          	addi	sp,sp,80
    187c:	00008067          	ret

00001880 <matrix_mul_matrix_bitextract>:
    1880:	22050863          	beqz	a0,1ab0 <matrix_mul_matrix_bitextract+0x230>
    1884:	fd010113          	addi	sp,sp,-48
    1888:	01312e23          	sw	s3,28(sp)
    188c:	00151993          	slli	s3,a0,0x1
    1890:	02812423          	sw	s0,40(sp)
    1894:	02912223          	sw	s1,36(sp)
    1898:	03212023          	sw	s2,32(sp)
    189c:	01412c23          	sw	s4,24(sp)
    18a0:	01512a23          	sw	s5,20(sp)
    18a4:	01612823          	sw	s6,16(sp)
    18a8:	01712623          	sw	s7,12(sp)
    18ac:	01812423          	sw	s8,8(sp)
    18b0:	02112623          	sw	ra,44(sp)
    18b4:	00050b13          	mv	s6,a0
    18b8:	00058413          	mv	s0,a1
    18bc:	00068493          	mv	s1,a3
    18c0:	00060a93          	mv	s5,a2
    18c4:	00000c13          	li	s8,0
    18c8:	00000b93          	li	s7,0
    18cc:	01360a33          	add	s4,a2,s3
    18d0:	00251913          	slli	s2,a0,0x2
    18d4:	002c1813          	slli	a6,s8,0x2
    18d8:	01040833          	add	a6,s0,a6
    18dc:	00080513          	mv	a0,a6
    18e0:	00090613          	mv	a2,s2
    18e4:	00000593          	li	a1,0
    18e8:	6f5040ef          	jal	ra,67dc <memset>
    18ec:	00050813          	mv	a6,a0
    18f0:	00000313          	li	t1,0
    18f4:	00048893          	mv	a7,s1
    18f8:	415a0733          	sub	a4,s4,s5
    18fc:	ffe70713          	addi	a4,a4,-2
    1900:	00175713          	srli	a4,a4,0x1
    1904:	00170713          	addi	a4,a4,1
    1908:	00377713          	andi	a4,a4,3
    190c:	00088793          	mv	a5,a7
    1910:	000a8613          	mv	a2,s5
    1914:	00000e13          	li	t3,0
    1918:	08070c63          	beqz	a4,19b0 <matrix_mul_matrix_bitextract+0x130>
    191c:	00100693          	li	a3,1
    1920:	06d70063          	beq	a4,a3,1980 <matrix_mul_matrix_bitextract+0x100>
    1924:	00200693          	li	a3,2
    1928:	02d70663          	beq	a4,a3,1954 <matrix_mul_matrix_bitextract+0xd4>
    192c:	00089703          	lh	a4,0(a7)
    1930:	000a9683          	lh	a3,0(s5)
    1934:	002a8613          	addi	a2,s5,2
    1938:	013887b3          	add	a5,a7,s3
    193c:	02e686b3          	mul	a3,a3,a4
    1940:	4026d713          	srai	a4,a3,0x2
    1944:	4056d693          	srai	a3,a3,0x5
    1948:	00f77713          	andi	a4,a4,15
    194c:	07f6f693          	andi	a3,a3,127
    1950:	02d70e33          	mul	t3,a4,a3
    1954:	00079683          	lh	a3,0(a5)
    1958:	00061703          	lh	a4,0(a2)
    195c:	013787b3          	add	a5,a5,s3
    1960:	00260613          	addi	a2,a2,2
    1964:	02d70733          	mul	a4,a4,a3
    1968:	40275693          	srai	a3,a4,0x2
    196c:	40575713          	srai	a4,a4,0x5
    1970:	00f6f693          	andi	a3,a3,15
    1974:	07f77713          	andi	a4,a4,127
    1978:	02e68733          	mul	a4,a3,a4
    197c:	00ee0e33          	add	t3,t3,a4
    1980:	00079683          	lh	a3,0(a5)
    1984:	00061703          	lh	a4,0(a2)
    1988:	00260613          	addi	a2,a2,2
    198c:	013787b3          	add	a5,a5,s3
    1990:	02d70733          	mul	a4,a4,a3
    1994:	40275693          	srai	a3,a4,0x2
    1998:	40575713          	srai	a4,a4,0x5
    199c:	00f6f693          	andi	a3,a3,15
    19a0:	07f77713          	andi	a4,a4,127
    19a4:	02e68733          	mul	a4,a3,a4
    19a8:	00ee0e33          	add	t3,t3,a4
    19ac:	0aca0663          	beq	s4,a2,1a58 <matrix_mul_matrix_bitextract+0x1d8>
    19b0:	00079703          	lh	a4,0(a5)
    19b4:	00061f03          	lh	t5,0(a2)
    19b8:	013787b3          	add	a5,a5,s3
    19bc:	00079683          	lh	a3,0(a5)
    19c0:	00261e83          	lh	t4,2(a2)
    19c4:	013787b3          	add	a5,a5,s3
    19c8:	00461503          	lh	a0,4(a2)
    19cc:	00079283          	lh	t0,0(a5)
    19d0:	013787b3          	add	a5,a5,s3
    19d4:	02ef0f33          	mul	t5,t5,a4
    19d8:	00079f83          	lh	t6,0(a5)
    19dc:	00661583          	lh	a1,6(a2)
    19e0:	00860613          	addi	a2,a2,8
    19e4:	013787b3          	add	a5,a5,s3
    19e8:	02de8eb3          	mul	t4,t4,a3
    19ec:	405f5713          	srai	a4,t5,0x5
    19f0:	402f5693          	srai	a3,t5,0x2
    19f4:	00f6f693          	andi	a3,a3,15
    19f8:	07f77713          	andi	a4,a4,127
    19fc:	02550533          	mul	a0,a0,t0
    1a00:	402edf13          	srai	t5,t4,0x2
    1a04:	405ede93          	srai	t4,t4,0x5
    1a08:	00ff7f13          	andi	t5,t5,15
    1a0c:	07fefe93          	andi	t4,t4,127
    1a10:	03f585b3          	mul	a1,a1,t6
    1a14:	40255f93          	srai	t6,a0,0x2
    1a18:	40555513          	srai	a0,a0,0x5
    1a1c:	00ffff93          	andi	t6,t6,15
    1a20:	07f57513          	andi	a0,a0,127
    1a24:	02e68733          	mul	a4,a3,a4
    1a28:	4025d693          	srai	a3,a1,0x2
    1a2c:	4055d593          	srai	a1,a1,0x5
    1a30:	00f6f693          	andi	a3,a3,15
    1a34:	07f5f593          	andi	a1,a1,127
    1a38:	03df0eb3          	mul	t4,t5,t4
    1a3c:	00ee0733          	add	a4,t3,a4
    1a40:	02af8533          	mul	a0,t6,a0
    1a44:	01d70733          	add	a4,a4,t4
    1a48:	02b685b3          	mul	a1,a3,a1
    1a4c:	00a70733          	add	a4,a4,a0
    1a50:	00b70e33          	add	t3,a4,a1
    1a54:	f4ca1ee3          	bne	s4,a2,19b0 <matrix_mul_matrix_bitextract+0x130>
    1a58:	01c82023          	sw	t3,0(a6)
    1a5c:	00130313          	addi	t1,t1,1
    1a60:	00480813          	addi	a6,a6,4
    1a64:	00288893          	addi	a7,a7,2
    1a68:	e86b18e3          	bne	s6,t1,18f8 <matrix_mul_matrix_bitextract+0x78>
    1a6c:	001b8b93          	addi	s7,s7,1
    1a70:	013a8ab3          	add	s5,s5,s3
    1a74:	016c0c33          	add	s8,s8,s6
    1a78:	013a0a33          	add	s4,s4,s3
    1a7c:	e57b1ce3          	bne	s6,s7,18d4 <matrix_mul_matrix_bitextract+0x54>
    1a80:	02c12083          	lw	ra,44(sp)
    1a84:	02812403          	lw	s0,40(sp)
    1a88:	02412483          	lw	s1,36(sp)
    1a8c:	02012903          	lw	s2,32(sp)
    1a90:	01c12983          	lw	s3,28(sp)
    1a94:	01812a03          	lw	s4,24(sp)
    1a98:	01412a83          	lw	s5,20(sp)
    1a9c:	01012b03          	lw	s6,16(sp)
    1aa0:	00c12b83          	lw	s7,12(sp)
    1aa4:	00812c03          	lw	s8,8(sp)
    1aa8:	03010113          	addi	sp,sp,48
    1aac:	00008067          	ret
    1ab0:	00008067          	ret
	...

00001ac0 <matrix_test>:
    1ac0:	fb010113          	addi	sp,sp,-80
    1ac4:	04812423          	sw	s0,72(sp)
    1ac8:	03312e23          	sw	s3,60(sp)
    1acc:	03412c23          	sw	s4,56(sp)
    1ad0:	03512a23          	sw	s5,52(sp)
    1ad4:	fffff437          	lui	s0,0xfffff
    1ad8:	04112623          	sw	ra,76(sp)
    1adc:	04912223          	sw	s1,68(sp)
    1ae0:	05212023          	sw	s2,64(sp)
    1ae4:	03612823          	sw	s6,48(sp)
    1ae8:	03712623          	sw	s7,44(sp)
    1aec:	03812423          	sw	s8,40(sp)
    1af0:	03912223          	sw	s9,36(sp)
    1af4:	03a12023          	sw	s10,32(sp)
    1af8:	01b12e23          	sw	s11,28(sp)
    1afc:	00058993          	mv	s3,a1
    1b00:	00060a13          	mv	s4,a2
    1b04:	00068a93          	mv	s5,a3
    1b08:	00876433          	or	s0,a4,s0
    1b0c:	00051463          	bnez	a0,1b14 <matrix_test+0x54>
    1b10:	5f40106f          	j	3104 <__stack_size+0x1104>
    1b14:	00151793          	slli	a5,a0,0x1
    1b18:	40a00b33          	neg	s6,a0
    1b1c:	00050913          	mv	s2,a0
    1b20:	00070493          	mv	s1,a4
    1b24:	00f12423          	sw	a5,8(sp)
    1b28:	00000313          	li	t1,0
    1b2c:	00f606b3          	add	a3,a2,a5
    1b30:	001b1e13          	slli	t3,s6,0x1
    1b34:	002b1e93          	slli	t4,s6,0x2
    1b38:	01c68633          	add	a2,a3,t3
    1b3c:	40c68733          	sub	a4,a3,a2
    1b40:	ffe70713          	addi	a4,a4,-2
    1b44:	00175713          	srli	a4,a4,0x1
    1b48:	00170713          	addi	a4,a4,1
    1b4c:	00777713          	andi	a4,a4,7
    1b50:	00060793          	mv	a5,a2
    1b54:	0a070463          	beqz	a4,1bfc <matrix_test+0x13c>
    1b58:	00100593          	li	a1,1
    1b5c:	08b70663          	beq	a4,a1,1be8 <matrix_test+0x128>
    1b60:	00200593          	li	a1,2
    1b64:	06b70a63          	beq	a4,a1,1bd8 <matrix_test+0x118>
    1b68:	00300593          	li	a1,3
    1b6c:	04b70e63          	beq	a4,a1,1bc8 <matrix_test+0x108>
    1b70:	00400593          	li	a1,4
    1b74:	04b70263          	beq	a4,a1,1bb8 <matrix_test+0xf8>
    1b78:	00500593          	li	a1,5
    1b7c:	02b70663          	beq	a4,a1,1ba8 <matrix_test+0xe8>
    1b80:	00600593          	li	a1,6
    1b84:	00b70a63          	beq	a4,a1,1b98 <matrix_test+0xd8>
    1b88:	00065703          	lhu	a4,0(a2)
    1b8c:	00260793          	addi	a5,a2,2
    1b90:	00e48733          	add	a4,s1,a4
    1b94:	00e61023          	sh	a4,0(a2)
    1b98:	0007d703          	lhu	a4,0(a5)
    1b9c:	00278793          	addi	a5,a5,2
    1ba0:	00e48733          	add	a4,s1,a4
    1ba4:	fee79f23          	sh	a4,-2(a5)
    1ba8:	0007d703          	lhu	a4,0(a5)
    1bac:	00278793          	addi	a5,a5,2
    1bb0:	00e48733          	add	a4,s1,a4
    1bb4:	fee79f23          	sh	a4,-2(a5)
    1bb8:	0007d703          	lhu	a4,0(a5)
    1bbc:	00278793          	addi	a5,a5,2
    1bc0:	00e48733          	add	a4,s1,a4
    1bc4:	fee79f23          	sh	a4,-2(a5)
    1bc8:	0007d703          	lhu	a4,0(a5)
    1bcc:	00278793          	addi	a5,a5,2
    1bd0:	00e48733          	add	a4,s1,a4
    1bd4:	fee79f23          	sh	a4,-2(a5)
    1bd8:	0007d703          	lhu	a4,0(a5)
    1bdc:	00278793          	addi	a5,a5,2
    1be0:	00e48733          	add	a4,s1,a4
    1be4:	fee79f23          	sh	a4,-2(a5)
    1be8:	0007d703          	lhu	a4,0(a5)
    1bec:	00278793          	addi	a5,a5,2
    1bf0:	00e48733          	add	a4,s1,a4
    1bf4:	fee79f23          	sh	a4,-2(a5)
    1bf8:	06d78663          	beq	a5,a3,1c64 <matrix_test+0x1a4>
    1bfc:	0007d283          	lhu	t0,0(a5)
    1c00:	0027df83          	lhu	t6,2(a5)
    1c04:	0047df03          	lhu	t5,4(a5)
    1c08:	0067d883          	lhu	a7,6(a5)
    1c0c:	0087d803          	lhu	a6,8(a5)
    1c10:	00a7d503          	lhu	a0,10(a5)
    1c14:	00c7d583          	lhu	a1,12(a5)
    1c18:	00e7d703          	lhu	a4,14(a5)
    1c1c:	005482b3          	add	t0,s1,t0
    1c20:	01f48fb3          	add	t6,s1,t6
    1c24:	01e48f33          	add	t5,s1,t5
    1c28:	011488b3          	add	a7,s1,a7
    1c2c:	01048833          	add	a6,s1,a6
    1c30:	00a48533          	add	a0,s1,a0
    1c34:	00b485b3          	add	a1,s1,a1
    1c38:	00e48733          	add	a4,s1,a4
    1c3c:	00579023          	sh	t0,0(a5)
    1c40:	01f79123          	sh	t6,2(a5)
    1c44:	01e79223          	sh	t5,4(a5)
    1c48:	01179323          	sh	a7,6(a5)
    1c4c:	01079423          	sh	a6,8(a5)
    1c50:	00a79523          	sh	a0,10(a5)
    1c54:	00b79623          	sh	a1,12(a5)
    1c58:	00e79723          	sh	a4,14(a5)
    1c5c:	01078793          	addi	a5,a5,16
    1c60:	f8d79ee3          	bne	a5,a3,1bfc <matrix_test+0x13c>
    1c64:	00130313          	addi	t1,t1,1
    1c68:	41d606b3          	sub	a3,a2,t4
    1c6c:	ec6916e3          	bne	s2,t1,1b38 <matrix_test+0x78>
    1c70:	00812783          	lw	a5,8(sp)
    1c74:	00000893          	li	a7,0
    1c78:	00000313          	li	t1,0
    1c7c:	002b1e93          	slli	t4,s6,0x2
    1c80:	00fa0633          	add	a2,s4,a5
    1c84:	001b1e13          	slli	t3,s6,0x1
    1c88:	01c605b3          	add	a1,a2,t3
    1c8c:	40b60733          	sub	a4,a2,a1
    1c90:	ffe70713          	addi	a4,a4,-2
    1c94:	00175713          	srli	a4,a4,0x1
    1c98:	00170713          	addi	a4,a4,1
    1c9c:	00289793          	slli	a5,a7,0x2
    1ca0:	00777713          	andi	a4,a4,7
    1ca4:	00058693          	mv	a3,a1
    1ca8:	00f987b3          	add	a5,s3,a5
    1cac:	0c070263          	beqz	a4,1d70 <matrix_test+0x2b0>
    1cb0:	00100513          	li	a0,1
    1cb4:	0aa70263          	beq	a4,a0,1d58 <matrix_test+0x298>
    1cb8:	00200513          	li	a0,2
    1cbc:	08a70463          	beq	a4,a0,1d44 <matrix_test+0x284>
    1cc0:	00300513          	li	a0,3
    1cc4:	06a70663          	beq	a4,a0,1d30 <matrix_test+0x270>
    1cc8:	00400513          	li	a0,4
    1ccc:	04a70863          	beq	a4,a0,1d1c <matrix_test+0x25c>
    1cd0:	00500513          	li	a0,5
    1cd4:	02a70a63          	beq	a4,a0,1d08 <matrix_test+0x248>
    1cd8:	00600513          	li	a0,6
    1cdc:	00a70c63          	beq	a4,a0,1cf4 <matrix_test+0x234>
    1ce0:	00059703          	lh	a4,0(a1)
    1ce4:	00258693          	addi	a3,a1,2
    1ce8:	00478793          	addi	a5,a5,4
    1cec:	02970733          	mul	a4,a4,s1
    1cf0:	fee7ae23          	sw	a4,-4(a5)
    1cf4:	00069703          	lh	a4,0(a3)
    1cf8:	00478793          	addi	a5,a5,4
    1cfc:	00268693          	addi	a3,a3,2
    1d00:	02970733          	mul	a4,a4,s1
    1d04:	fee7ae23          	sw	a4,-4(a5)
    1d08:	00069703          	lh	a4,0(a3)
    1d0c:	00478793          	addi	a5,a5,4
    1d10:	00268693          	addi	a3,a3,2
    1d14:	02970733          	mul	a4,a4,s1
    1d18:	fee7ae23          	sw	a4,-4(a5)
    1d1c:	00069703          	lh	a4,0(a3)
    1d20:	00478793          	addi	a5,a5,4
    1d24:	00268693          	addi	a3,a3,2
    1d28:	02970733          	mul	a4,a4,s1
    1d2c:	fee7ae23          	sw	a4,-4(a5)
    1d30:	00069703          	lh	a4,0(a3)
    1d34:	00478793          	addi	a5,a5,4
    1d38:	00268693          	addi	a3,a3,2
    1d3c:	02970733          	mul	a4,a4,s1
    1d40:	fee7ae23          	sw	a4,-4(a5)
    1d44:	00069703          	lh	a4,0(a3)
    1d48:	00478793          	addi	a5,a5,4
    1d4c:	00268693          	addi	a3,a3,2
    1d50:	02970733          	mul	a4,a4,s1
    1d54:	fee7ae23          	sw	a4,-4(a5)
    1d58:	00069703          	lh	a4,0(a3)
    1d5c:	00268693          	addi	a3,a3,2
    1d60:	00478793          	addi	a5,a5,4
    1d64:	02970733          	mul	a4,a4,s1
    1d68:	fee7ae23          	sw	a4,-4(a5)
    1d6c:	06c68863          	beq	a3,a2,1ddc <matrix_test+0x31c>
    1d70:	00069083          	lh	ra,0(a3)
    1d74:	00269383          	lh	t2,2(a3)
    1d78:	00469283          	lh	t0,4(a3)
    1d7c:	00669f83          	lh	t6,6(a3)
    1d80:	00869f03          	lh	t5,8(a3)
    1d84:	00a69803          	lh	a6,10(a3)
    1d88:	00c69503          	lh	a0,12(a3)
    1d8c:	00e69703          	lh	a4,14(a3)
    1d90:	029080b3          	mul	ra,ra,s1
    1d94:	01068693          	addi	a3,a3,16
    1d98:	02078793          	addi	a5,a5,32
    1d9c:	029383b3          	mul	t2,t2,s1
    1da0:	fe17a023          	sw	ra,-32(a5)
    1da4:	029282b3          	mul	t0,t0,s1
    1da8:	fe77a223          	sw	t2,-28(a5)
    1dac:	029f8fb3          	mul	t6,t6,s1
    1db0:	fe57a423          	sw	t0,-24(a5)
    1db4:	029f0f33          	mul	t5,t5,s1
    1db8:	fff7a623          	sw	t6,-20(a5)
    1dbc:	02980833          	mul	a6,a6,s1
    1dc0:	ffe7a823          	sw	t5,-16(a5)
    1dc4:	02950533          	mul	a0,a0,s1
    1dc8:	ff07aa23          	sw	a6,-12(a5)
    1dcc:	02970733          	mul	a4,a4,s1
    1dd0:	fea7ac23          	sw	a0,-8(a5)
    1dd4:	fee7ae23          	sw	a4,-4(a5)
    1dd8:	f8c69ce3          	bne	a3,a2,1d70 <matrix_test+0x2b0>
    1ddc:	00130313          	addi	t1,t1,1
    1de0:	012888b3          	add	a7,a7,s2
    1de4:	41d58633          	sub	a2,a1,t4
    1de8:	ea6910e3          	bne	s2,t1,1c88 <matrix_test+0x1c8>
    1dec:	00291793          	slli	a5,s2,0x2
    1df0:	00078713          	mv	a4,a5
    1df4:	00f12223          	sw	a5,4(sp)
    1df8:	00000513          	li	a0,0
    1dfc:	00000793          	li	a5,0
    1e00:	00000313          	li	t1,0
    1e04:	00000613          	li	a2,0
    1e08:	003b1813          	slli	a6,s6,0x3
    1e0c:	00e98733          	add	a4,s3,a4
    1e10:	002b1593          	slli	a1,s6,0x2
    1e14:	00b70e33          	add	t3,a4,a1
    1e18:	41c70eb3          	sub	t4,a4,t3
    1e1c:	ffce8e93          	addi	t4,t4,-4
    1e20:	002ede93          	srli	t4,t4,0x2
    1e24:	001e8e93          	addi	t4,t4,1
    1e28:	007efe93          	andi	t4,t4,7
    1e2c:	000e0893          	mv	a7,t3
    1e30:	260e82e3          	beqz	t4,2894 <__stack_size+0x894>
    1e34:	00100693          	li	a3,1
    1e38:	10de8e63          	beq	t4,a3,1f54 <matrix_test+0x494>
    1e3c:	00200693          	li	a3,2
    1e40:	0ede8663          	beq	t4,a3,1f2c <matrix_test+0x46c>
    1e44:	00300693          	li	a3,3
    1e48:	0ade8e63          	beq	t4,a3,1f04 <matrix_test+0x444>
    1e4c:	00400693          	li	a3,4
    1e50:	08de8663          	beq	t4,a3,1edc <matrix_test+0x41c>
    1e54:	00500693          	li	a3,5
    1e58:	04de8e63          	beq	t4,a3,1eb4 <matrix_test+0x3f4>
    1e5c:	00600693          	li	a3,6
    1e60:	02de8663          	beq	t4,a3,1e8c <matrix_test+0x3cc>
    1e64:	00078693          	mv	a3,a5
    1e68:	000e2783          	lw	a5,0(t3)
    1e6c:	00f30333          	add	t1,t1,a5
    1e70:	00645463          	bge	s0,t1,1e78 <matrix_test+0x3b8>
    1e74:	27c0106f          	j	30f0 <__stack_size+0x10f0>
    1e78:	00f6a6b3          	slt	a3,a3,a5
    1e7c:	00d506b3          	add	a3,a0,a3
    1e80:	01069513          	slli	a0,a3,0x10
    1e84:	41055513          	srai	a0,a0,0x10
    1e88:	004e0893          	addi	a7,t3,4
    1e8c:	00078693          	mv	a3,a5
    1e90:	0008a783          	lw	a5,0(a7)
    1e94:	00f30333          	add	t1,t1,a5
    1e98:	00645463          	bge	s0,t1,1ea0 <matrix_test+0x3e0>
    1e9c:	1dc0106f          	j	3078 <__stack_size+0x1078>
    1ea0:	00f6a6b3          	slt	a3,a3,a5
    1ea4:	00d506b3          	add	a3,a0,a3
    1ea8:	01069513          	slli	a0,a3,0x10
    1eac:	41055513          	srai	a0,a0,0x10
    1eb0:	00488893          	addi	a7,a7,4
    1eb4:	00078693          	mv	a3,a5
    1eb8:	0008a783          	lw	a5,0(a7)
    1ebc:	00f30333          	add	t1,t1,a5
    1ec0:	00645463          	bge	s0,t1,1ec8 <matrix_test+0x408>
    1ec4:	18c0106f          	j	3050 <__stack_size+0x1050>
    1ec8:	00f6a6b3          	slt	a3,a3,a5
    1ecc:	00d506b3          	add	a3,a0,a3
    1ed0:	01069513          	slli	a0,a3,0x10
    1ed4:	41055513          	srai	a0,a0,0x10
    1ed8:	00488893          	addi	a7,a7,4
    1edc:	00078693          	mv	a3,a5
    1ee0:	0008a783          	lw	a5,0(a7)
    1ee4:	00f30333          	add	t1,t1,a5
    1ee8:	00645463          	bge	s0,t1,1ef0 <matrix_test+0x430>
    1eec:	1140106f          	j	3000 <__stack_size+0x1000>
    1ef0:	00f6a6b3          	slt	a3,a3,a5
    1ef4:	00d506b3          	add	a3,a0,a3
    1ef8:	01069513          	slli	a0,a3,0x10
    1efc:	41055513          	srai	a0,a0,0x10
    1f00:	00488893          	addi	a7,a7,4
    1f04:	00078693          	mv	a3,a5
    1f08:	0008a783          	lw	a5,0(a7)
    1f0c:	00f30333          	add	t1,t1,a5
    1f10:	00645463          	bge	s0,t1,1f18 <matrix_test+0x458>
    1f14:	0740106f          	j	2f88 <__stack_size+0xf88>
    1f18:	00f6a6b3          	slt	a3,a3,a5
    1f1c:	00d506b3          	add	a3,a0,a3
    1f20:	01069513          	slli	a0,a3,0x10
    1f24:	41055513          	srai	a0,a0,0x10
    1f28:	00488893          	addi	a7,a7,4
    1f2c:	00078693          	mv	a3,a5
    1f30:	0008a783          	lw	a5,0(a7)
    1f34:	00f30333          	add	t1,t1,a5
    1f38:	00645463          	bge	s0,t1,1f40 <matrix_test+0x480>
    1f3c:	0240106f          	j	2f60 <__stack_size+0xf60>
    1f40:	00f6a6b3          	slt	a3,a3,a5
    1f44:	00d506b3          	add	a3,a0,a3
    1f48:	01069513          	slli	a0,a3,0x10
    1f4c:	41055513          	srai	a0,a0,0x10
    1f50:	00488893          	addi	a7,a7,4
    1f54:	00078693          	mv	a3,a5
    1f58:	0008a783          	lw	a5,0(a7)
    1f5c:	00f30333          	add	t1,t1,a5
    1f60:	76644ae3          	blt	s0,t1,2ed4 <__stack_size+0xed4>
    1f64:	00f6a6b3          	slt	a3,a3,a5
    1f68:	00d506b3          	add	a3,a0,a3
    1f6c:	01069513          	slli	a0,a3,0x10
    1f70:	41055513          	srai	a0,a0,0x10
    1f74:	00488893          	addi	a7,a7,4
    1f78:	10e89ee3          	bne	a7,a4,2894 <__stack_size+0x894>
    1f7c:	00160613          	addi	a2,a2,1
    1f80:	410e0733          	sub	a4,t3,a6
    1f84:	e8c918e3          	bne	s2,a2,1e14 <matrix_test+0x354>
    1f88:	00000593          	li	a1,0
    1f8c:	274020ef          	jal	ra,4200 <crc16>
    1f90:	00412b83          	lw	s7,4(sp)
    1f94:	00050793          	mv	a5,a0
    1f98:	00000593          	li	a1,0
    1f9c:	000b8613          	mv	a2,s7
    1fa0:	00098513          	mv	a0,s3
    1fa4:	00f12623          	sw	a5,12(sp)
    1fa8:	035040ef          	jal	ra,67dc <memset>
    1fac:	00812783          	lw	a5,8(sp)
    1fb0:	00000293          	li	t0,0
    1fb4:	00098613          	mv	a2,s3
    1fb8:	01798d33          	add	s10,s3,s7
    1fbc:	00fa86b3          	add	a3,s5,a5
    1fc0:	41568733          	sub	a4,a3,s5
    1fc4:	ffe70713          	addi	a4,a4,-2
    1fc8:	00175713          	srli	a4,a4,0x1
    1fcc:	00170713          	addi	a4,a4,1
    1fd0:	00129593          	slli	a1,t0,0x1
    1fd4:	00777713          	andi	a4,a4,7
    1fd8:	000a8513          	mv	a0,s5
    1fdc:	00000793          	li	a5,0
    1fe0:	00ba05b3          	add	a1,s4,a1
    1fe4:	0c070e63          	beqz	a4,20c0 <__stack_size+0xc0>
    1fe8:	00100813          	li	a6,1
    1fec:	0b070c63          	beq	a4,a6,20a4 <__stack_size+0xa4>
    1ff0:	00200813          	li	a6,2
    1ff4:	09070c63          	beq	a4,a6,208c <__stack_size+0x8c>
    1ff8:	00300813          	li	a6,3
    1ffc:	07070c63          	beq	a4,a6,2074 <__stack_size+0x74>
    2000:	00400813          	li	a6,4
    2004:	05070c63          	beq	a4,a6,205c <__stack_size+0x5c>
    2008:	00500813          	li	a6,5
    200c:	03070c63          	beq	a4,a6,2044 <__stack_size+0x44>
    2010:	00600813          	li	a6,6
    2014:	01070c63          	beq	a4,a6,202c <__stack_size+0x2c>
    2018:	00059703          	lh	a4,0(a1)
    201c:	000a9783          	lh	a5,0(s5)
    2020:	00258593          	addi	a1,a1,2
    2024:	002a8513          	addi	a0,s5,2
    2028:	02f707b3          	mul	a5,a4,a5
    202c:	00059703          	lh	a4,0(a1)
    2030:	00051803          	lh	a6,0(a0)
    2034:	00258593          	addi	a1,a1,2
    2038:	00250513          	addi	a0,a0,2
    203c:	03070733          	mul	a4,a4,a6
    2040:	00e787b3          	add	a5,a5,a4
    2044:	00059703          	lh	a4,0(a1)
    2048:	00051803          	lh	a6,0(a0)
    204c:	00258593          	addi	a1,a1,2
    2050:	00250513          	addi	a0,a0,2
    2054:	03070733          	mul	a4,a4,a6
    2058:	00e787b3          	add	a5,a5,a4
    205c:	00059703          	lh	a4,0(a1)
    2060:	00051803          	lh	a6,0(a0)
    2064:	00258593          	addi	a1,a1,2
    2068:	00250513          	addi	a0,a0,2
    206c:	03070733          	mul	a4,a4,a6
    2070:	00e787b3          	add	a5,a5,a4
    2074:	00059703          	lh	a4,0(a1)
    2078:	00051803          	lh	a6,0(a0)
    207c:	00258593          	addi	a1,a1,2
    2080:	00250513          	addi	a0,a0,2
    2084:	03070733          	mul	a4,a4,a6
    2088:	00e787b3          	add	a5,a5,a4
    208c:	00059703          	lh	a4,0(a1)
    2090:	00051803          	lh	a6,0(a0)
    2094:	00258593          	addi	a1,a1,2
    2098:	00250513          	addi	a0,a0,2
    209c:	03070733          	mul	a4,a4,a6
    20a0:	00e787b3          	add	a5,a5,a4
    20a4:	00059703          	lh	a4,0(a1)
    20a8:	00051803          	lh	a6,0(a0)
    20ac:	00250513          	addi	a0,a0,2
    20b0:	00258593          	addi	a1,a1,2
    20b4:	03070733          	mul	a4,a4,a6
    20b8:	00e787b3          	add	a5,a5,a4
    20bc:	08a68863          	beq	a3,a0,214c <__stack_size+0x14c>
    20c0:	00059803          	lh	a6,0(a1)
    20c4:	00051703          	lh	a4,0(a0)
    20c8:	00251e83          	lh	t4,2(a0)
    20cc:	00259c83          	lh	s9,2(a1)
    20d0:	02e80733          	mul	a4,a6,a4
    20d4:	00459b83          	lh	s7,4(a1)
    20d8:	00451d83          	lh	s11,4(a0)
    20dc:	00659f03          	lh	t5,6(a1)
    20e0:	00651c03          	lh	s8,6(a0)
    20e4:	00859e03          	lh	t3,8(a1)
    20e8:	00851083          	lh	ra,8(a0)
    20ec:	00a59303          	lh	t1,10(a1)
    20f0:	00a51383          	lh	t2,10(a0)
    20f4:	00c59883          	lh	a7,12(a1)
    20f8:	03dc8cb3          	mul	s9,s9,t4
    20fc:	00e78733          	add	a4,a5,a4
    2100:	00c51f83          	lh	t6,12(a0)
    2104:	00e59803          	lh	a6,14(a1)
    2108:	00e51e83          	lh	t4,14(a0)
    210c:	01050513          	addi	a0,a0,16
    2110:	01058593          	addi	a1,a1,16
    2114:	03bb87b3          	mul	a5,s7,s11
    2118:	01970733          	add	a4,a4,s9
    211c:	038f0f33          	mul	t5,t5,s8
    2120:	00f707b3          	add	a5,a4,a5
    2124:	021e0e33          	mul	t3,t3,ra
    2128:	01e787b3          	add	a5,a5,t5
    212c:	02730333          	mul	t1,t1,t2
    2130:	01c787b3          	add	a5,a5,t3
    2134:	03f888b3          	mul	a7,a7,t6
    2138:	006787b3          	add	a5,a5,t1
    213c:	03d80733          	mul	a4,a6,t4
    2140:	011787b3          	add	a5,a5,a7
    2144:	00e787b3          	add	a5,a5,a4
    2148:	f6a69ce3          	bne	a3,a0,20c0 <__stack_size+0xc0>
    214c:	00f62023          	sw	a5,0(a2)
    2150:	00460613          	addi	a2,a2,4
    2154:	012282b3          	add	t0,t0,s2
    2158:	e7a614e3          	bne	a2,s10,1fc0 <matrix_test+0x500>
    215c:	00412683          	lw	a3,4(sp)
    2160:	00000793          	li	a5,0
    2164:	00000713          	li	a4,0
    2168:	00000513          	li	a0,0
    216c:	00000593          	li	a1,0
    2170:	003b1893          	slli	a7,s6,0x3
    2174:	00d986b3          	add	a3,s3,a3
    2178:	002b1813          	slli	a6,s6,0x2
    217c:	01068333          	add	t1,a3,a6
    2180:	40668e33          	sub	t3,a3,t1
    2184:	ffce0e13          	addi	t3,t3,-4
    2188:	002e5e13          	srli	t3,t3,0x2
    218c:	001e0e13          	addi	t3,t3,1
    2190:	007e7e13          	andi	t3,t3,7
    2194:	00030613          	mv	a2,t1
    2198:	0c0e02e3          	beqz	t3,2a5c <__stack_size+0xa5c>
    219c:	00100e93          	li	t4,1
    21a0:	11de0263          	beq	t3,t4,22a4 <__stack_size+0x2a4>
    21a4:	00200e93          	li	t4,2
    21a8:	0dde0c63          	beq	t3,t4,2280 <__stack_size+0x280>
    21ac:	00300e93          	li	t4,3
    21b0:	0bde0663          	beq	t3,t4,225c <__stack_size+0x25c>
    21b4:	00400e93          	li	t4,4
    21b8:	09de0063          	beq	t3,t4,2238 <__stack_size+0x238>
    21bc:	00500e93          	li	t4,5
    21c0:	05de0a63          	beq	t3,t4,2214 <__stack_size+0x214>
    21c4:	00600e93          	li	t4,6
    21c8:	03de0463          	beq	t3,t4,21f0 <__stack_size+0x1f0>
    21cc:	00070613          	mv	a2,a4
    21d0:	00032703          	lw	a4,0(t1)
    21d4:	00e50533          	add	a0,a0,a4
    21d8:	6ea448e3          	blt	s0,a0,30c8 <__stack_size+0x10c8>
    21dc:	00e62633          	slt	a2,a2,a4
    21e0:	00c787b3          	add	a5,a5,a2
    21e4:	01079793          	slli	a5,a5,0x10
    21e8:	4107d793          	srai	a5,a5,0x10
    21ec:	00430613          	addi	a2,t1,4
    21f0:	00070e13          	mv	t3,a4
    21f4:	00062703          	lw	a4,0(a2)
    21f8:	00e50533          	add	a0,a0,a4
    21fc:	6aa442e3          	blt	s0,a0,30a0 <__stack_size+0x10a0>
    2200:	00ee2e33          	slt	t3,t3,a4
    2204:	01c787b3          	add	a5,a5,t3
    2208:	01079793          	slli	a5,a5,0x10
    220c:	4107d793          	srai	a5,a5,0x10
    2210:	00460613          	addi	a2,a2,4
    2214:	00070e13          	mv	t3,a4
    2218:	00062703          	lw	a4,0(a2)
    221c:	00e50533          	add	a0,a0,a4
    2220:	60a44ee3          	blt	s0,a0,303c <__stack_size+0x103c>
    2224:	00ee2e33          	slt	t3,t3,a4
    2228:	01c787b3          	add	a5,a5,t3
    222c:	01079793          	slli	a5,a5,0x10
    2230:	4107d793          	srai	a5,a5,0x10
    2234:	00460613          	addi	a2,a2,4
    2238:	00070e13          	mv	t3,a4
    223c:	00062703          	lw	a4,0(a2)
    2240:	00e50533          	add	a0,a0,a4
    2244:	5aa444e3          	blt	s0,a0,2fec <__stack_size+0xfec>
    2248:	00ee2e33          	slt	t3,t3,a4
    224c:	01c787b3          	add	a5,a5,t3
    2250:	01079793          	slli	a5,a5,0x10
    2254:	4107d793          	srai	a5,a5,0x10
    2258:	00460613          	addi	a2,a2,4
    225c:	00070e13          	mv	t3,a4
    2260:	00062703          	lw	a4,0(a2)
    2264:	00e50533          	add	a0,a0,a4
    2268:	50a446e3          	blt	s0,a0,2f74 <__stack_size+0xf74>
    226c:	00ee2e33          	slt	t3,t3,a4
    2270:	01c787b3          	add	a5,a5,t3
    2274:	01079793          	slli	a5,a5,0x10
    2278:	4107d793          	srai	a5,a5,0x10
    227c:	00460613          	addi	a2,a2,4
    2280:	00070e13          	mv	t3,a4
    2284:	00062703          	lw	a4,0(a2)
    2288:	00e50533          	add	a0,a0,a4
    228c:	4ca440e3          	blt	s0,a0,2f4c <__stack_size+0xf4c>
    2290:	00ee2e33          	slt	t3,t3,a4
    2294:	01c787b3          	add	a5,a5,t3
    2298:	01079793          	slli	a5,a5,0x10
    229c:	4107d793          	srai	a5,a5,0x10
    22a0:	00460613          	addi	a2,a2,4
    22a4:	00070e13          	mv	t3,a4
    22a8:	00062703          	lw	a4,0(a2)
    22ac:	00e50533          	add	a0,a0,a4
    22b0:	42a44ce3          	blt	s0,a0,2ee8 <__stack_size+0xee8>
    22b4:	00ee2e33          	slt	t3,t3,a4
    22b8:	01c787b3          	add	a5,a5,t3
    22bc:	01079793          	slli	a5,a5,0x10
    22c0:	4107d793          	srai	a5,a5,0x10
    22c4:	00460613          	addi	a2,a2,4
    22c8:	78c69a63          	bne	a3,a2,2a5c <__stack_size+0xa5c>
    22cc:	00158593          	addi	a1,a1,1
    22d0:	411306b3          	sub	a3,t1,a7
    22d4:	eab914e3          	bne	s2,a1,217c <__stack_size+0x17c>
    22d8:	00c12583          	lw	a1,12(sp)
    22dc:	00078513          	mv	a0,a5
    22e0:	003b1b93          	slli	s7,s6,0x3
    22e4:	71d010ef          	jal	ra,4200 <crc16>
    22e8:	000a8693          	mv	a3,s5
    22ec:	00098593          	mv	a1,s3
    22f0:	00050c13          	mv	s8,a0
    22f4:	000a0613          	mv	a2,s4
    22f8:	00090513          	mv	a0,s2
    22fc:	af4ff0ef          	jal	ra,15f0 <matrix_mul_matrix>
    2300:	00412683          	lw	a3,4(sp)
    2304:	00000793          	li	a5,0
    2308:	00000713          	li	a4,0
    230c:	00000513          	li	a0,0
    2310:	00000593          	li	a1,0
    2314:	00d986b3          	add	a3,s3,a3
    2318:	002b1813          	slli	a6,s6,0x2
    231c:	00d808b3          	add	a7,a6,a3
    2320:	41168333          	sub	t1,a3,a7
    2324:	ffc30313          	addi	t1,t1,-4
    2328:	00235313          	srli	t1,t1,0x2
    232c:	00130313          	addi	t1,t1,1
    2330:	00737313          	andi	t1,t1,7
    2334:	00088613          	mv	a2,a7
    2338:	0e0306e3          	beqz	t1,2c24 <__stack_size+0xc24>
    233c:	00100e13          	li	t3,1
    2340:	11c30263          	beq	t1,t3,2444 <__stack_size+0x444>
    2344:	00200e13          	li	t3,2
    2348:	0dc30c63          	beq	t1,t3,2420 <__stack_size+0x420>
    234c:	00300e13          	li	t3,3
    2350:	0bc30663          	beq	t1,t3,23fc <__stack_size+0x3fc>
    2354:	00400e13          	li	t3,4
    2358:	09c30063          	beq	t1,t3,23d8 <__stack_size+0x3d8>
    235c:	00500e13          	li	t3,5
    2360:	05c30a63          	beq	t1,t3,23b4 <__stack_size+0x3b4>
    2364:	00600e13          	li	t3,6
    2368:	03c30463          	beq	t1,t3,2390 <__stack_size+0x390>
    236c:	00070613          	mv	a2,a4
    2370:	0008a703          	lw	a4,0(a7)
    2374:	00e50533          	add	a0,a0,a4
    2378:	56a442e3          	blt	s0,a0,30dc <__stack_size+0x10dc>
    237c:	00e62633          	slt	a2,a2,a4
    2380:	00c787b3          	add	a5,a5,a2
    2384:	01079793          	slli	a5,a5,0x10
    2388:	4107d793          	srai	a5,a5,0x10
    238c:	00488613          	addi	a2,a7,4
    2390:	00070313          	mv	t1,a4
    2394:	00062703          	lw	a4,0(a2)
    2398:	00e50533          	add	a0,a0,a4
    239c:	4ca444e3          	blt	s0,a0,3064 <__stack_size+0x1064>
    23a0:	00e32333          	slt	t1,t1,a4
    23a4:	006787b3          	add	a5,a5,t1
    23a8:	01079793          	slli	a5,a5,0x10
    23ac:	4107d793          	srai	a5,a5,0x10
    23b0:	00460613          	addi	a2,a2,4
    23b4:	00070313          	mv	t1,a4
    23b8:	00062703          	lw	a4,0(a2)
    23bc:	00e50533          	add	a0,a0,a4
    23c0:	46a444e3          	blt	s0,a0,3028 <__stack_size+0x1028>
    23c4:	00e32333          	slt	t1,t1,a4
    23c8:	006787b3          	add	a5,a5,t1
    23cc:	01079793          	slli	a5,a5,0x10
    23d0:	4107d793          	srai	a5,a5,0x10
    23d4:	00460613          	addi	a2,a2,4
    23d8:	00070313          	mv	t1,a4
    23dc:	00062703          	lw	a4,0(a2)
    23e0:	00e50533          	add	a0,a0,a4
    23e4:	3ea44ae3          	blt	s0,a0,2fd8 <__stack_size+0xfd8>
    23e8:	00e32333          	slt	t1,t1,a4
    23ec:	006787b3          	add	a5,a5,t1
    23f0:	01079793          	slli	a5,a5,0x10
    23f4:	4107d793          	srai	a5,a5,0x10
    23f8:	00460613          	addi	a2,a2,4
    23fc:	00070313          	mv	t1,a4
    2400:	00062703          	lw	a4,0(a2)
    2404:	00e50533          	add	a0,a0,a4
    2408:	3aa444e3          	blt	s0,a0,2fb0 <__stack_size+0xfb0>
    240c:	00e32333          	slt	t1,t1,a4
    2410:	006787b3          	add	a5,a5,t1
    2414:	01079793          	slli	a5,a5,0x10
    2418:	4107d793          	srai	a5,a5,0x10
    241c:	00460613          	addi	a2,a2,4
    2420:	00070313          	mv	t1,a4
    2424:	00062703          	lw	a4,0(a2)
    2428:	00e50533          	add	a0,a0,a4
    242c:	30a446e3          	blt	s0,a0,2f38 <__stack_size+0xf38>
    2430:	00e32333          	slt	t1,t1,a4
    2434:	006787b3          	add	a5,a5,t1
    2438:	01079793          	slli	a5,a5,0x10
    243c:	4107d793          	srai	a5,a5,0x10
    2440:	00460613          	addi	a2,a2,4
    2444:	00070313          	mv	t1,a4
    2448:	00062703          	lw	a4,0(a2)
    244c:	00e50533          	add	a0,a0,a4
    2450:	2ca440e3          	blt	s0,a0,2f10 <__stack_size+0xf10>
    2454:	00e32333          	slt	t1,t1,a4
    2458:	006787b3          	add	a5,a5,t1
    245c:	01079793          	slli	a5,a5,0x10
    2460:	4107d793          	srai	a5,a5,0x10
    2464:	00460613          	addi	a2,a2,4
    2468:	7ac69e63          	bne	a3,a2,2c24 <__stack_size+0xc24>
    246c:	00158593          	addi	a1,a1,1
    2470:	417886b3          	sub	a3,a7,s7
    2474:	eab914e3          	bne	s2,a1,231c <__stack_size+0x31c>
    2478:	00078513          	mv	a0,a5
    247c:	000c0593          	mv	a1,s8
    2480:	581010ef          	jal	ra,4200 <crc16>
    2484:	000a8693          	mv	a3,s5
    2488:	00098593          	mv	a1,s3
    248c:	000a0613          	mv	a2,s4
    2490:	00050b93          	mv	s7,a0
    2494:	00090513          	mv	a0,s2
    2498:	be8ff0ef          	jal	ra,1880 <matrix_mul_matrix_bitextract>
    249c:	00412603          	lw	a2,4(sp)
    24a0:	003b1a93          	slli	s5,s6,0x3
    24a4:	00000793          	li	a5,0
    24a8:	00000713          	li	a4,0
    24ac:	00000513          	li	a0,0
    24b0:	00000693          	li	a3,0
    24b4:	00c989b3          	add	s3,s3,a2
    24b8:	002b1593          	slli	a1,s6,0x2
    24bc:	01358833          	add	a6,a1,s3
    24c0:	410988b3          	sub	a7,s3,a6
    24c4:	ffc88893          	addi	a7,a7,-4
    24c8:	0028d893          	srli	a7,a7,0x2
    24cc:	00188893          	addi	a7,a7,1
    24d0:	0078f893          	andi	a7,a7,7
    24d4:	00080613          	mv	a2,a6
    24d8:	10088ae3          	beqz	a7,2dec <__stack_size+0xdec>
    24dc:	00100313          	li	t1,1
    24e0:	10688263          	beq	a7,t1,25e4 <__stack_size+0x5e4>
    24e4:	00200313          	li	t1,2
    24e8:	0c688c63          	beq	a7,t1,25c0 <__stack_size+0x5c0>
    24ec:	00300313          	li	t1,3
    24f0:	0a688663          	beq	a7,t1,259c <__stack_size+0x59c>
    24f4:	00400313          	li	t1,4
    24f8:	08688063          	beq	a7,t1,2578 <__stack_size+0x578>
    24fc:	00500313          	li	t1,5
    2500:	04688a63          	beq	a7,t1,2554 <__stack_size+0x554>
    2504:	00600313          	li	t1,6
    2508:	02688463          	beq	a7,t1,2530 <__stack_size+0x530>
    250c:	00070613          	mv	a2,a4
    2510:	00082703          	lw	a4,0(a6)
    2514:	00e50533          	add	a0,a0,a4
    2518:	38a44ee3          	blt	s0,a0,30b4 <__stack_size+0x10b4>
    251c:	00e62633          	slt	a2,a2,a4
    2520:	00c787b3          	add	a5,a5,a2
    2524:	01079793          	slli	a5,a5,0x10
    2528:	4107d793          	srai	a5,a5,0x10
    252c:	00480613          	addi	a2,a6,4
    2530:	00070893          	mv	a7,a4
    2534:	00062703          	lw	a4,0(a2)
    2538:	00e50533          	add	a0,a0,a4
    253c:	34a448e3          	blt	s0,a0,308c <__stack_size+0x108c>
    2540:	00e8a8b3          	slt	a7,a7,a4
    2544:	011787b3          	add	a5,a5,a7
    2548:	01079793          	slli	a5,a5,0x10
    254c:	4107d793          	srai	a5,a5,0x10
    2550:	00460613          	addi	a2,a2,4
    2554:	00070893          	mv	a7,a4
    2558:	00062703          	lw	a4,0(a2)
    255c:	00e50533          	add	a0,a0,a4
    2560:	2aa44ae3          	blt	s0,a0,3014 <__stack_size+0x1014>
    2564:	00e8a8b3          	slt	a7,a7,a4
    2568:	011787b3          	add	a5,a5,a7
    256c:	01079793          	slli	a5,a5,0x10
    2570:	4107d793          	srai	a5,a5,0x10
    2574:	00460613          	addi	a2,a2,4
    2578:	00070893          	mv	a7,a4
    257c:	00062703          	lw	a4,0(a2)
    2580:	00e50533          	add	a0,a0,a4
    2584:	24a440e3          	blt	s0,a0,2fc4 <__stack_size+0xfc4>
    2588:	00e8a8b3          	slt	a7,a7,a4
    258c:	011787b3          	add	a5,a5,a7
    2590:	01079793          	slli	a5,a5,0x10
    2594:	4107d793          	srai	a5,a5,0x10
    2598:	00460613          	addi	a2,a2,4
    259c:	00070893          	mv	a7,a4
    25a0:	00062703          	lw	a4,0(a2)
    25a4:	00e50533          	add	a0,a0,a4
    25a8:	1ea44ae3          	blt	s0,a0,2f9c <__stack_size+0xf9c>
    25ac:	00e8a8b3          	slt	a7,a7,a4
    25b0:	011787b3          	add	a5,a5,a7
    25b4:	01079793          	slli	a5,a5,0x10
    25b8:	4107d793          	srai	a5,a5,0x10
    25bc:	00460613          	addi	a2,a2,4
    25c0:	00070893          	mv	a7,a4
    25c4:	00062703          	lw	a4,0(a2)
    25c8:	00e50533          	add	a0,a0,a4
    25cc:	14a44ce3          	blt	s0,a0,2f24 <__stack_size+0xf24>
    25d0:	00e8a8b3          	slt	a7,a7,a4
    25d4:	011787b3          	add	a5,a5,a7
    25d8:	01079793          	slli	a5,a5,0x10
    25dc:	4107d793          	srai	a5,a5,0x10
    25e0:	00460613          	addi	a2,a2,4
    25e4:	00070893          	mv	a7,a4
    25e8:	00062703          	lw	a4,0(a2)
    25ec:	00e50533          	add	a0,a0,a4
    25f0:	10a446e3          	blt	s0,a0,2efc <__stack_size+0xefc>
    25f4:	00e8a8b3          	slt	a7,a7,a4
    25f8:	011787b3          	add	a5,a5,a7
    25fc:	01079793          	slli	a5,a5,0x10
    2600:	4107d793          	srai	a5,a5,0x10
    2604:	00460613          	addi	a2,a2,4
    2608:	7ec99263          	bne	s3,a2,2dec <__stack_size+0xdec>
    260c:	00168693          	addi	a3,a3,1
    2610:	415809b3          	sub	s3,a6,s5
    2614:	ead914e3          	bne	s2,a3,24bc <__stack_size+0x4bc>
    2618:	00078513          	mv	a0,a5
    261c:	000b8593          	mv	a1,s7
    2620:	3e1010ef          	jal	ra,4200 <crc16>
    2624:	00812783          	lw	a5,8(sp)
    2628:	002b1e93          	slli	t4,s6,0x2
    262c:	00000e13          	li	t3,0
    2630:	00fa0a33          	add	s4,s4,a5
    2634:	001b1b13          	slli	s6,s6,0x1
    2638:	014b06b3          	add	a3,s6,s4
    263c:	40da0733          	sub	a4,s4,a3
    2640:	ffe70713          	addi	a4,a4,-2
    2644:	00175713          	srli	a4,a4,0x1
    2648:	00170713          	addi	a4,a4,1
    264c:	00777713          	andi	a4,a4,7
    2650:	00068793          	mv	a5,a3
    2654:	0a070463          	beqz	a4,26fc <__stack_size+0x6fc>
    2658:	00100613          	li	a2,1
    265c:	08c70663          	beq	a4,a2,26e8 <__stack_size+0x6e8>
    2660:	00200613          	li	a2,2
    2664:	06c70a63          	beq	a4,a2,26d8 <__stack_size+0x6d8>
    2668:	00300613          	li	a2,3
    266c:	04c70e63          	beq	a4,a2,26c8 <__stack_size+0x6c8>
    2670:	00400613          	li	a2,4
    2674:	04c70263          	beq	a4,a2,26b8 <__stack_size+0x6b8>
    2678:	00500613          	li	a2,5
    267c:	02c70663          	beq	a4,a2,26a8 <__stack_size+0x6a8>
    2680:	00600613          	li	a2,6
    2684:	00c70a63          	beq	a4,a2,2698 <__stack_size+0x698>
    2688:	0006d703          	lhu	a4,0(a3)
    268c:	00268793          	addi	a5,a3,2
    2690:	40970733          	sub	a4,a4,s1
    2694:	00e69023          	sh	a4,0(a3)
    2698:	0007d703          	lhu	a4,0(a5)
    269c:	00278793          	addi	a5,a5,2
    26a0:	40970733          	sub	a4,a4,s1
    26a4:	fee79f23          	sh	a4,-2(a5)
    26a8:	0007d703          	lhu	a4,0(a5)
    26ac:	00278793          	addi	a5,a5,2
    26b0:	40970733          	sub	a4,a4,s1
    26b4:	fee79f23          	sh	a4,-2(a5)
    26b8:	0007d703          	lhu	a4,0(a5)
    26bc:	00278793          	addi	a5,a5,2
    26c0:	40970733          	sub	a4,a4,s1
    26c4:	fee79f23          	sh	a4,-2(a5)
    26c8:	0007d703          	lhu	a4,0(a5)
    26cc:	00278793          	addi	a5,a5,2
    26d0:	40970733          	sub	a4,a4,s1
    26d4:	fee79f23          	sh	a4,-2(a5)
    26d8:	0007d703          	lhu	a4,0(a5)
    26dc:	00278793          	addi	a5,a5,2
    26e0:	40970733          	sub	a4,a4,s1
    26e4:	fee79f23          	sh	a4,-2(a5)
    26e8:	0007d703          	lhu	a4,0(a5)
    26ec:	00278793          	addi	a5,a5,2
    26f0:	40970733          	sub	a4,a4,s1
    26f4:	fee79f23          	sh	a4,-2(a5)
    26f8:	06fa0663          	beq	s4,a5,2764 <__stack_size+0x764>
    26fc:	0007df83          	lhu	t6,0(a5)
    2700:	0027df03          	lhu	t5,2(a5)
    2704:	0047d303          	lhu	t1,4(a5)
    2708:	0067d883          	lhu	a7,6(a5)
    270c:	0087d803          	lhu	a6,8(a5)
    2710:	00a7d583          	lhu	a1,10(a5)
    2714:	00c7d603          	lhu	a2,12(a5)
    2718:	00e7d703          	lhu	a4,14(a5)
    271c:	409f8fb3          	sub	t6,t6,s1
    2720:	409f0f33          	sub	t5,t5,s1
    2724:	40930333          	sub	t1,t1,s1
    2728:	409888b3          	sub	a7,a7,s1
    272c:	40980833          	sub	a6,a6,s1
    2730:	409585b3          	sub	a1,a1,s1
    2734:	40960633          	sub	a2,a2,s1
    2738:	40970733          	sub	a4,a4,s1
    273c:	01f79023          	sh	t6,0(a5)
    2740:	01e79123          	sh	t5,2(a5)
    2744:	00679223          	sh	t1,4(a5)
    2748:	01179323          	sh	a7,6(a5)
    274c:	01079423          	sh	a6,8(a5)
    2750:	00b79523          	sh	a1,10(a5)
    2754:	00c79623          	sh	a2,12(a5)
    2758:	00e79723          	sh	a4,14(a5)
    275c:	01078793          	addi	a5,a5,16
    2760:	f8fa1ee3          	bne	s4,a5,26fc <__stack_size+0x6fc>
    2764:	001e0e13          	addi	t3,t3,1
    2768:	41d68a33          	sub	s4,a3,t4
    276c:	edc916e3          	bne	s2,t3,2638 <__stack_size+0x638>
    2770:	04c12083          	lw	ra,76(sp)
    2774:	04812403          	lw	s0,72(sp)
    2778:	01051513          	slli	a0,a0,0x10
    277c:	04412483          	lw	s1,68(sp)
    2780:	04012903          	lw	s2,64(sp)
    2784:	03c12983          	lw	s3,60(sp)
    2788:	03812a03          	lw	s4,56(sp)
    278c:	03412a83          	lw	s5,52(sp)
    2790:	03012b03          	lw	s6,48(sp)
    2794:	02c12b83          	lw	s7,44(sp)
    2798:	02812c03          	lw	s8,40(sp)
    279c:	02412c83          	lw	s9,36(sp)
    27a0:	02012d03          	lw	s10,32(sp)
    27a4:	01c12d83          	lw	s11,28(sp)
    27a8:	41055513          	srai	a0,a0,0x10
    27ac:	05010113          	addi	sp,sp,80
    27b0:	00008067          	ret
    27b4:	0048a783          	lw	a5,4(a7)
    27b8:	00a50693          	addi	a3,a0,10
    27bc:	00000313          	li	t1,0
    27c0:	01069693          	slli	a3,a3,0x10
    27c4:	00f30333          	add	t1,t1,a5
    27c8:	4106d693          	srai	a3,a3,0x10
    27cc:	00488893          	addi	a7,a7,4
    27d0:	0e645863          	bge	s0,t1,28c0 <__stack_size+0x8c0>
    27d4:	0048a503          	lw	a0,4(a7)
    27d8:	00a68693          	addi	a3,a3,10
    27dc:	00000313          	li	t1,0
    27e0:	01069693          	slli	a3,a3,0x10
    27e4:	00a30333          	add	t1,t1,a0
    27e8:	4106d693          	srai	a3,a3,0x10
    27ec:	0e644863          	blt	s0,t1,28dc <__stack_size+0x8dc>
    27f0:	00a7a7b3          	slt	a5,a5,a0
    27f4:	00f686b3          	add	a3,a3,a5
    27f8:	0088a783          	lw	a5,8(a7)
    27fc:	01069693          	slli	a3,a3,0x10
    2800:	4106d693          	srai	a3,a3,0x10
    2804:	00f30333          	add	t1,t1,a5
    2808:	0e644863          	blt	s0,t1,28f8 <__stack_size+0x8f8>
    280c:	00f52533          	slt	a0,a0,a5
    2810:	00a686b3          	add	a3,a3,a0
    2814:	00c8a503          	lw	a0,12(a7)
    2818:	01069693          	slli	a3,a3,0x10
    281c:	4106d693          	srai	a3,a3,0x10
    2820:	00a30333          	add	t1,t1,a0
    2824:	0e644863          	blt	s0,t1,2914 <__stack_size+0x914>
    2828:	00a7a7b3          	slt	a5,a5,a0
    282c:	00f686b3          	add	a3,a3,a5
    2830:	0108a783          	lw	a5,16(a7)
    2834:	01069693          	slli	a3,a3,0x10
    2838:	4106d693          	srai	a3,a3,0x10
    283c:	00f30333          	add	t1,t1,a5
    2840:	0e644863          	blt	s0,t1,2930 <__stack_size+0x930>
    2844:	00f52533          	slt	a0,a0,a5
    2848:	00a686b3          	add	a3,a3,a0
    284c:	0148a503          	lw	a0,20(a7)
    2850:	01069693          	slli	a3,a3,0x10
    2854:	4106d693          	srai	a3,a3,0x10
    2858:	00a30333          	add	t1,t1,a0
    285c:	0e644863          	blt	s0,t1,294c <__stack_size+0x94c>
    2860:	00a7a7b3          	slt	a5,a5,a0
    2864:	00f686b3          	add	a3,a3,a5
    2868:	0188a783          	lw	a5,24(a7)
    286c:	01069693          	slli	a3,a3,0x10
    2870:	4106d693          	srai	a3,a3,0x10
    2874:	00f30333          	add	t1,t1,a5
    2878:	0e644863          	blt	s0,t1,2968 <__stack_size+0x968>
    287c:	00f52533          	slt	a0,a0,a5
    2880:	00a686b3          	add	a3,a3,a0
    2884:	01069513          	slli	a0,a3,0x10
    2888:	41055513          	srai	a0,a0,0x10
    288c:	01c88893          	addi	a7,a7,28
    2890:	eee88663          	beq	a7,a4,1f7c <matrix_test+0x4bc>
    2894:	0008ae83          	lw	t4,0(a7)
    2898:	01d30333          	add	t1,t1,t4
    289c:	f0644ce3          	blt	s0,t1,27b4 <__stack_size+0x7b4>
    28a0:	01d7a6b3          	slt	a3,a5,t4
    28a4:	0048a783          	lw	a5,4(a7)
    28a8:	00d506b3          	add	a3,a0,a3
    28ac:	01069693          	slli	a3,a3,0x10
    28b0:	00f30333          	add	t1,t1,a5
    28b4:	4106d693          	srai	a3,a3,0x10
    28b8:	00488893          	addi	a7,a7,4
    28bc:	f0644ce3          	blt	s0,t1,27d4 <__stack_size+0x7d4>
    28c0:	0048a503          	lw	a0,4(a7)
    28c4:	00feaeb3          	slt	t4,t4,a5
    28c8:	01d686b3          	add	a3,a3,t4
    28cc:	01069693          	slli	a3,a3,0x10
    28d0:	00a30333          	add	t1,t1,a0
    28d4:	4106d693          	srai	a3,a3,0x10
    28d8:	f0645ce3          	bge	s0,t1,27f0 <__stack_size+0x7f0>
    28dc:	0088a783          	lw	a5,8(a7)
    28e0:	00a68693          	addi	a3,a3,10
    28e4:	00000313          	li	t1,0
    28e8:	01069693          	slli	a3,a3,0x10
    28ec:	00f30333          	add	t1,t1,a5
    28f0:	4106d693          	srai	a3,a3,0x10
    28f4:	f0645ce3          	bge	s0,t1,280c <__stack_size+0x80c>
    28f8:	00c8a503          	lw	a0,12(a7)
    28fc:	00a68693          	addi	a3,a3,10
    2900:	00000313          	li	t1,0
    2904:	01069693          	slli	a3,a3,0x10
    2908:	00a30333          	add	t1,t1,a0
    290c:	4106d693          	srai	a3,a3,0x10
    2910:	f0645ce3          	bge	s0,t1,2828 <__stack_size+0x828>
    2914:	0108a783          	lw	a5,16(a7)
    2918:	00a68693          	addi	a3,a3,10
    291c:	00000313          	li	t1,0
    2920:	01069693          	slli	a3,a3,0x10
    2924:	00f30333          	add	t1,t1,a5
    2928:	4106d693          	srai	a3,a3,0x10
    292c:	f0645ce3          	bge	s0,t1,2844 <__stack_size+0x844>
    2930:	0148a503          	lw	a0,20(a7)
    2934:	00a68693          	addi	a3,a3,10
    2938:	00000313          	li	t1,0
    293c:	01069693          	slli	a3,a3,0x10
    2940:	00a30333          	add	t1,t1,a0
    2944:	4106d693          	srai	a3,a3,0x10
    2948:	f0645ce3          	bge	s0,t1,2860 <__stack_size+0x860>
    294c:	0188a783          	lw	a5,24(a7)
    2950:	00a68693          	addi	a3,a3,10
    2954:	00000313          	li	t1,0
    2958:	01069693          	slli	a3,a3,0x10
    295c:	00f30333          	add	t1,t1,a5
    2960:	4106d693          	srai	a3,a3,0x10
    2964:	f0645ce3          	bge	s0,t1,287c <__stack_size+0x87c>
    2968:	00a68693          	addi	a3,a3,10
    296c:	01069513          	slli	a0,a3,0x10
    2970:	41055513          	srai	a0,a0,0x10
    2974:	00000313          	li	t1,0
    2978:	f15ff06f          	j	288c <__stack_size+0x88c>
    297c:	00462703          	lw	a4,4(a2)
    2980:	00a78793          	addi	a5,a5,10
    2984:	00000513          	li	a0,0
    2988:	01079793          	slli	a5,a5,0x10
    298c:	00e50533          	add	a0,a0,a4
    2990:	4107d793          	srai	a5,a5,0x10
    2994:	00460613          	addi	a2,a2,4
    2998:	0ea45863          	bge	s0,a0,2a88 <__stack_size+0xa88>
    299c:	00462e03          	lw	t3,4(a2)
    29a0:	00a78793          	addi	a5,a5,10
    29a4:	00000513          	li	a0,0
    29a8:	01079793          	slli	a5,a5,0x10
    29ac:	01c50533          	add	a0,a0,t3
    29b0:	4107d793          	srai	a5,a5,0x10
    29b4:	0ea44863          	blt	s0,a0,2aa4 <__stack_size+0xaa4>
    29b8:	01c72733          	slt	a4,a4,t3
    29bc:	00e787b3          	add	a5,a5,a4
    29c0:	00862703          	lw	a4,8(a2)
    29c4:	01079793          	slli	a5,a5,0x10
    29c8:	4107d793          	srai	a5,a5,0x10
    29cc:	00e50533          	add	a0,a0,a4
    29d0:	0ea44863          	blt	s0,a0,2ac0 <__stack_size+0xac0>
    29d4:	00ee2e33          	slt	t3,t3,a4
    29d8:	01c787b3          	add	a5,a5,t3
    29dc:	00c62e03          	lw	t3,12(a2)
    29e0:	01079793          	slli	a5,a5,0x10
    29e4:	4107d793          	srai	a5,a5,0x10
    29e8:	01c50533          	add	a0,a0,t3
    29ec:	0ea44863          	blt	s0,a0,2adc <__stack_size+0xadc>
    29f0:	01c72733          	slt	a4,a4,t3
    29f4:	00e787b3          	add	a5,a5,a4
    29f8:	01062703          	lw	a4,16(a2)
    29fc:	01079793          	slli	a5,a5,0x10
    2a00:	4107d793          	srai	a5,a5,0x10
    2a04:	00e50533          	add	a0,a0,a4
    2a08:	0ea44863          	blt	s0,a0,2af8 <__stack_size+0xaf8>
    2a0c:	00ee2e33          	slt	t3,t3,a4
    2a10:	01c787b3          	add	a5,a5,t3
    2a14:	01462e03          	lw	t3,20(a2)
    2a18:	01079793          	slli	a5,a5,0x10
    2a1c:	4107d793          	srai	a5,a5,0x10
    2a20:	01c50533          	add	a0,a0,t3
    2a24:	0ea44863          	blt	s0,a0,2b14 <__stack_size+0xb14>
    2a28:	01c72733          	slt	a4,a4,t3
    2a2c:	00e787b3          	add	a5,a5,a4
    2a30:	01862703          	lw	a4,24(a2)
    2a34:	01079793          	slli	a5,a5,0x10
    2a38:	4107d793          	srai	a5,a5,0x10
    2a3c:	00e50533          	add	a0,a0,a4
    2a40:	0ea44863          	blt	s0,a0,2b30 <__stack_size+0xb30>
    2a44:	00ee2e33          	slt	t3,t3,a4
    2a48:	01c787b3          	add	a5,a5,t3
    2a4c:	01079793          	slli	a5,a5,0x10
    2a50:	4107d793          	srai	a5,a5,0x10
    2a54:	01c60613          	addi	a2,a2,28
    2a58:	86c68ae3          	beq	a3,a2,22cc <__stack_size+0x2cc>
    2a5c:	00062e03          	lw	t3,0(a2)
    2a60:	01c50533          	add	a0,a0,t3
    2a64:	f0a44ce3          	blt	s0,a0,297c <__stack_size+0x97c>
    2a68:	01c72733          	slt	a4,a4,t3
    2a6c:	00e787b3          	add	a5,a5,a4
    2a70:	00462703          	lw	a4,4(a2)
    2a74:	01079793          	slli	a5,a5,0x10
    2a78:	4107d793          	srai	a5,a5,0x10
    2a7c:	00e50533          	add	a0,a0,a4
    2a80:	00460613          	addi	a2,a2,4
    2a84:	f0a44ce3          	blt	s0,a0,299c <__stack_size+0x99c>
    2a88:	00ee2e33          	slt	t3,t3,a4
    2a8c:	01c787b3          	add	a5,a5,t3
    2a90:	00462e03          	lw	t3,4(a2)
    2a94:	01079793          	slli	a5,a5,0x10
    2a98:	4107d793          	srai	a5,a5,0x10
    2a9c:	01c50533          	add	a0,a0,t3
    2aa0:	f0a45ce3          	bge	s0,a0,29b8 <__stack_size+0x9b8>
    2aa4:	00862703          	lw	a4,8(a2)
    2aa8:	00a78793          	addi	a5,a5,10
    2aac:	00000513          	li	a0,0
    2ab0:	01079793          	slli	a5,a5,0x10
    2ab4:	00e50533          	add	a0,a0,a4
    2ab8:	4107d793          	srai	a5,a5,0x10
    2abc:	f0a45ce3          	bge	s0,a0,29d4 <__stack_size+0x9d4>
    2ac0:	00c62e03          	lw	t3,12(a2)
    2ac4:	00a78793          	addi	a5,a5,10
    2ac8:	00000513          	li	a0,0
    2acc:	01079793          	slli	a5,a5,0x10
    2ad0:	01c50533          	add	a0,a0,t3
    2ad4:	4107d793          	srai	a5,a5,0x10
    2ad8:	f0a45ce3          	bge	s0,a0,29f0 <__stack_size+0x9f0>
    2adc:	01062703          	lw	a4,16(a2)
    2ae0:	00a78793          	addi	a5,a5,10
    2ae4:	00000513          	li	a0,0
    2ae8:	01079793          	slli	a5,a5,0x10
    2aec:	00e50533          	add	a0,a0,a4
    2af0:	4107d793          	srai	a5,a5,0x10
    2af4:	f0a45ce3          	bge	s0,a0,2a0c <__stack_size+0xa0c>
    2af8:	01462e03          	lw	t3,20(a2)
    2afc:	00a78793          	addi	a5,a5,10
    2b00:	00000513          	li	a0,0
    2b04:	01079793          	slli	a5,a5,0x10
    2b08:	01c50533          	add	a0,a0,t3
    2b0c:	4107d793          	srai	a5,a5,0x10
    2b10:	f0a45ce3          	bge	s0,a0,2a28 <__stack_size+0xa28>
    2b14:	01862703          	lw	a4,24(a2)
    2b18:	00a78793          	addi	a5,a5,10
    2b1c:	00000513          	li	a0,0
    2b20:	01079793          	slli	a5,a5,0x10
    2b24:	00e50533          	add	a0,a0,a4
    2b28:	4107d793          	srai	a5,a5,0x10
    2b2c:	f0a45ce3          	bge	s0,a0,2a44 <__stack_size+0xa44>
    2b30:	00a78793          	addi	a5,a5,10
    2b34:	01079793          	slli	a5,a5,0x10
    2b38:	4107d793          	srai	a5,a5,0x10
    2b3c:	00000513          	li	a0,0
    2b40:	f15ff06f          	j	2a54 <__stack_size+0xa54>
    2b44:	00462703          	lw	a4,4(a2)
    2b48:	00a78793          	addi	a5,a5,10
    2b4c:	00000513          	li	a0,0
    2b50:	01079793          	slli	a5,a5,0x10
    2b54:	00e50533          	add	a0,a0,a4
    2b58:	4107d793          	srai	a5,a5,0x10
    2b5c:	00460613          	addi	a2,a2,4
    2b60:	0ea45863          	bge	s0,a0,2c50 <__stack_size+0xc50>
    2b64:	00462303          	lw	t1,4(a2)
    2b68:	00a78793          	addi	a5,a5,10
    2b6c:	00000513          	li	a0,0
    2b70:	01079793          	slli	a5,a5,0x10
    2b74:	00650533          	add	a0,a0,t1
    2b78:	4107d793          	srai	a5,a5,0x10
    2b7c:	0ea44863          	blt	s0,a0,2c6c <__stack_size+0xc6c>
    2b80:	00672733          	slt	a4,a4,t1
    2b84:	00e787b3          	add	a5,a5,a4
    2b88:	00862703          	lw	a4,8(a2)
    2b8c:	01079793          	slli	a5,a5,0x10
    2b90:	4107d793          	srai	a5,a5,0x10
    2b94:	00e50533          	add	a0,a0,a4
    2b98:	0ea44863          	blt	s0,a0,2c88 <__stack_size+0xc88>
    2b9c:	00e32333          	slt	t1,t1,a4
    2ba0:	006787b3          	add	a5,a5,t1
    2ba4:	00c62303          	lw	t1,12(a2)
    2ba8:	01079793          	slli	a5,a5,0x10
    2bac:	4107d793          	srai	a5,a5,0x10
    2bb0:	00650533          	add	a0,a0,t1
    2bb4:	0ea44863          	blt	s0,a0,2ca4 <__stack_size+0xca4>
    2bb8:	00672733          	slt	a4,a4,t1
    2bbc:	00e787b3          	add	a5,a5,a4
    2bc0:	01062703          	lw	a4,16(a2)
    2bc4:	01079793          	slli	a5,a5,0x10
    2bc8:	4107d793          	srai	a5,a5,0x10
    2bcc:	00e50533          	add	a0,a0,a4
    2bd0:	0ea44863          	blt	s0,a0,2cc0 <__stack_size+0xcc0>
    2bd4:	00e32333          	slt	t1,t1,a4
    2bd8:	006787b3          	add	a5,a5,t1
    2bdc:	01462303          	lw	t1,20(a2)
    2be0:	01079793          	slli	a5,a5,0x10
    2be4:	4107d793          	srai	a5,a5,0x10
    2be8:	00650533          	add	a0,a0,t1
    2bec:	0ea44863          	blt	s0,a0,2cdc <__stack_size+0xcdc>
    2bf0:	00672733          	slt	a4,a4,t1
    2bf4:	00e787b3          	add	a5,a5,a4
    2bf8:	01862703          	lw	a4,24(a2)
    2bfc:	01079793          	slli	a5,a5,0x10
    2c00:	4107d793          	srai	a5,a5,0x10
    2c04:	00e50533          	add	a0,a0,a4
    2c08:	0ea44863          	blt	s0,a0,2cf8 <__stack_size+0xcf8>
    2c0c:	00e32333          	slt	t1,t1,a4
    2c10:	006787b3          	add	a5,a5,t1
    2c14:	01079793          	slli	a5,a5,0x10
    2c18:	4107d793          	srai	a5,a5,0x10
    2c1c:	01c60613          	addi	a2,a2,28
    2c20:	84c686e3          	beq	a3,a2,246c <__stack_size+0x46c>
    2c24:	00062303          	lw	t1,0(a2)
    2c28:	00650533          	add	a0,a0,t1
    2c2c:	f0a44ce3          	blt	s0,a0,2b44 <__stack_size+0xb44>
    2c30:	00672733          	slt	a4,a4,t1
    2c34:	00e787b3          	add	a5,a5,a4
    2c38:	00462703          	lw	a4,4(a2)
    2c3c:	01079793          	slli	a5,a5,0x10
    2c40:	4107d793          	srai	a5,a5,0x10
    2c44:	00e50533          	add	a0,a0,a4
    2c48:	00460613          	addi	a2,a2,4
    2c4c:	f0a44ce3          	blt	s0,a0,2b64 <__stack_size+0xb64>
    2c50:	00e32333          	slt	t1,t1,a4
    2c54:	006787b3          	add	a5,a5,t1
    2c58:	00462303          	lw	t1,4(a2)
    2c5c:	01079793          	slli	a5,a5,0x10
    2c60:	4107d793          	srai	a5,a5,0x10
    2c64:	00650533          	add	a0,a0,t1
    2c68:	f0a45ce3          	bge	s0,a0,2b80 <__stack_size+0xb80>
    2c6c:	00862703          	lw	a4,8(a2)
    2c70:	00a78793          	addi	a5,a5,10
    2c74:	00000513          	li	a0,0
    2c78:	01079793          	slli	a5,a5,0x10
    2c7c:	00e50533          	add	a0,a0,a4
    2c80:	4107d793          	srai	a5,a5,0x10
    2c84:	f0a45ce3          	bge	s0,a0,2b9c <__stack_size+0xb9c>
    2c88:	00c62303          	lw	t1,12(a2)
    2c8c:	00a78793          	addi	a5,a5,10
    2c90:	00000513          	li	a0,0
    2c94:	01079793          	slli	a5,a5,0x10
    2c98:	00650533          	add	a0,a0,t1
    2c9c:	4107d793          	srai	a5,a5,0x10
    2ca0:	f0a45ce3          	bge	s0,a0,2bb8 <__stack_size+0xbb8>
    2ca4:	01062703          	lw	a4,16(a2)
    2ca8:	00a78793          	addi	a5,a5,10
    2cac:	00000513          	li	a0,0
    2cb0:	01079793          	slli	a5,a5,0x10
    2cb4:	00e50533          	add	a0,a0,a4
    2cb8:	4107d793          	srai	a5,a5,0x10
    2cbc:	f0a45ce3          	bge	s0,a0,2bd4 <__stack_size+0xbd4>
    2cc0:	01462303          	lw	t1,20(a2)
    2cc4:	00a78793          	addi	a5,a5,10
    2cc8:	00000513          	li	a0,0
    2ccc:	01079793          	slli	a5,a5,0x10
    2cd0:	00650533          	add	a0,a0,t1
    2cd4:	4107d793          	srai	a5,a5,0x10
    2cd8:	f0a45ce3          	bge	s0,a0,2bf0 <__stack_size+0xbf0>
    2cdc:	01862703          	lw	a4,24(a2)
    2ce0:	00a78793          	addi	a5,a5,10
    2ce4:	00000513          	li	a0,0
    2ce8:	01079793          	slli	a5,a5,0x10
    2cec:	00e50533          	add	a0,a0,a4
    2cf0:	4107d793          	srai	a5,a5,0x10
    2cf4:	f0a45ce3          	bge	s0,a0,2c0c <__stack_size+0xc0c>
    2cf8:	00a78793          	addi	a5,a5,10
    2cfc:	01079793          	slli	a5,a5,0x10
    2d00:	4107d793          	srai	a5,a5,0x10
    2d04:	00000513          	li	a0,0
    2d08:	f15ff06f          	j	2c1c <__stack_size+0xc1c>
    2d0c:	00462703          	lw	a4,4(a2)
    2d10:	00a78793          	addi	a5,a5,10
    2d14:	00000513          	li	a0,0
    2d18:	01079793          	slli	a5,a5,0x10
    2d1c:	00e50533          	add	a0,a0,a4
    2d20:	4107d793          	srai	a5,a5,0x10
    2d24:	00460613          	addi	a2,a2,4
    2d28:	0ea45863          	bge	s0,a0,2e18 <__stack_size+0xe18>
    2d2c:	00462883          	lw	a7,4(a2)
    2d30:	00a78793          	addi	a5,a5,10
    2d34:	00000513          	li	a0,0
    2d38:	01079793          	slli	a5,a5,0x10
    2d3c:	01150533          	add	a0,a0,a7
    2d40:	4107d793          	srai	a5,a5,0x10
    2d44:	0ea44863          	blt	s0,a0,2e34 <__stack_size+0xe34>
    2d48:	01172733          	slt	a4,a4,a7
    2d4c:	00e787b3          	add	a5,a5,a4
    2d50:	00862703          	lw	a4,8(a2)
    2d54:	01079793          	slli	a5,a5,0x10
    2d58:	4107d793          	srai	a5,a5,0x10
    2d5c:	00e50533          	add	a0,a0,a4
    2d60:	0ea44863          	blt	s0,a0,2e50 <__stack_size+0xe50>
    2d64:	00e8a8b3          	slt	a7,a7,a4
    2d68:	011787b3          	add	a5,a5,a7
    2d6c:	00c62883          	lw	a7,12(a2)
    2d70:	01079793          	slli	a5,a5,0x10
    2d74:	4107d793          	srai	a5,a5,0x10
    2d78:	01150533          	add	a0,a0,a7
    2d7c:	0ea44863          	blt	s0,a0,2e6c <__stack_size+0xe6c>
    2d80:	01172733          	slt	a4,a4,a7
    2d84:	00e787b3          	add	a5,a5,a4
    2d88:	01062703          	lw	a4,16(a2)
    2d8c:	01079793          	slli	a5,a5,0x10
    2d90:	4107d793          	srai	a5,a5,0x10
    2d94:	00e50533          	add	a0,a0,a4
    2d98:	0ea44863          	blt	s0,a0,2e88 <__stack_size+0xe88>
    2d9c:	00e8a8b3          	slt	a7,a7,a4
    2da0:	011787b3          	add	a5,a5,a7
    2da4:	01462883          	lw	a7,20(a2)
    2da8:	01079793          	slli	a5,a5,0x10
    2dac:	4107d793          	srai	a5,a5,0x10
    2db0:	01150533          	add	a0,a0,a7
    2db4:	0ea44863          	blt	s0,a0,2ea4 <__stack_size+0xea4>
    2db8:	01172733          	slt	a4,a4,a7
    2dbc:	00e787b3          	add	a5,a5,a4
    2dc0:	01862703          	lw	a4,24(a2)
    2dc4:	01079793          	slli	a5,a5,0x10
    2dc8:	4107d793          	srai	a5,a5,0x10
    2dcc:	00e50533          	add	a0,a0,a4
    2dd0:	0ea44863          	blt	s0,a0,2ec0 <__stack_size+0xec0>
    2dd4:	00e8a8b3          	slt	a7,a7,a4
    2dd8:	011787b3          	add	a5,a5,a7
    2ddc:	01079793          	slli	a5,a5,0x10
    2de0:	4107d793          	srai	a5,a5,0x10
    2de4:	01c60613          	addi	a2,a2,28
    2de8:	82c982e3          	beq	s3,a2,260c <__stack_size+0x60c>
    2dec:	00062883          	lw	a7,0(a2)
    2df0:	01150533          	add	a0,a0,a7
    2df4:	f0a44ce3          	blt	s0,a0,2d0c <__stack_size+0xd0c>
    2df8:	01172733          	slt	a4,a4,a7
    2dfc:	00e787b3          	add	a5,a5,a4
    2e00:	00462703          	lw	a4,4(a2)
    2e04:	01079793          	slli	a5,a5,0x10
    2e08:	4107d793          	srai	a5,a5,0x10
    2e0c:	00e50533          	add	a0,a0,a4
    2e10:	00460613          	addi	a2,a2,4
    2e14:	f0a44ce3          	blt	s0,a0,2d2c <__stack_size+0xd2c>
    2e18:	00e8a8b3          	slt	a7,a7,a4
    2e1c:	011787b3          	add	a5,a5,a7
    2e20:	00462883          	lw	a7,4(a2)
    2e24:	01079793          	slli	a5,a5,0x10
    2e28:	4107d793          	srai	a5,a5,0x10
    2e2c:	01150533          	add	a0,a0,a7
    2e30:	f0a45ce3          	bge	s0,a0,2d48 <__stack_size+0xd48>
    2e34:	00862703          	lw	a4,8(a2)
    2e38:	00a78793          	addi	a5,a5,10
    2e3c:	00000513          	li	a0,0
    2e40:	01079793          	slli	a5,a5,0x10
    2e44:	00e50533          	add	a0,a0,a4
    2e48:	4107d793          	srai	a5,a5,0x10
    2e4c:	f0a45ce3          	bge	s0,a0,2d64 <__stack_size+0xd64>
    2e50:	00c62883          	lw	a7,12(a2)
    2e54:	00a78793          	addi	a5,a5,10
    2e58:	00000513          	li	a0,0
    2e5c:	01079793          	slli	a5,a5,0x10
    2e60:	01150533          	add	a0,a0,a7
    2e64:	4107d793          	srai	a5,a5,0x10
    2e68:	f0a45ce3          	bge	s0,a0,2d80 <__stack_size+0xd80>
    2e6c:	01062703          	lw	a4,16(a2)
    2e70:	00a78793          	addi	a5,a5,10
    2e74:	00000513          	li	a0,0
    2e78:	01079793          	slli	a5,a5,0x10
    2e7c:	00e50533          	add	a0,a0,a4
    2e80:	4107d793          	srai	a5,a5,0x10
    2e84:	f0a45ce3          	bge	s0,a0,2d9c <__stack_size+0xd9c>
    2e88:	01462883          	lw	a7,20(a2)
    2e8c:	00a78793          	addi	a5,a5,10
    2e90:	00000513          	li	a0,0
    2e94:	01079793          	slli	a5,a5,0x10
    2e98:	01150533          	add	a0,a0,a7
    2e9c:	4107d793          	srai	a5,a5,0x10
    2ea0:	f0a45ce3          	bge	s0,a0,2db8 <__stack_size+0xdb8>
    2ea4:	01862703          	lw	a4,24(a2)
    2ea8:	00a78793          	addi	a5,a5,10
    2eac:	00000513          	li	a0,0
    2eb0:	01079793          	slli	a5,a5,0x10
    2eb4:	00e50533          	add	a0,a0,a4
    2eb8:	4107d793          	srai	a5,a5,0x10
    2ebc:	f0a45ce3          	bge	s0,a0,2dd4 <__stack_size+0xdd4>
    2ec0:	00a78793          	addi	a5,a5,10
    2ec4:	01079793          	slli	a5,a5,0x10
    2ec8:	4107d793          	srai	a5,a5,0x10
    2ecc:	00000513          	li	a0,0
    2ed0:	f15ff06f          	j	2de4 <__stack_size+0xde4>
    2ed4:	00a50693          	addi	a3,a0,10
    2ed8:	01069513          	slli	a0,a3,0x10
    2edc:	41055513          	srai	a0,a0,0x10
    2ee0:	00000313          	li	t1,0
    2ee4:	890ff06f          	j	1f74 <matrix_test+0x4b4>
    2ee8:	00a78793          	addi	a5,a5,10
    2eec:	01079793          	slli	a5,a5,0x10
    2ef0:	4107d793          	srai	a5,a5,0x10
    2ef4:	00000513          	li	a0,0
    2ef8:	bccff06f          	j	22c4 <__stack_size+0x2c4>
    2efc:	00a78793          	addi	a5,a5,10
    2f00:	01079793          	slli	a5,a5,0x10
    2f04:	4107d793          	srai	a5,a5,0x10
    2f08:	00000513          	li	a0,0
    2f0c:	ef8ff06f          	j	2604 <__stack_size+0x604>
    2f10:	00a78793          	addi	a5,a5,10
    2f14:	01079793          	slli	a5,a5,0x10
    2f18:	4107d793          	srai	a5,a5,0x10
    2f1c:	00000513          	li	a0,0
    2f20:	d44ff06f          	j	2464 <__stack_size+0x464>
    2f24:	00a78793          	addi	a5,a5,10
    2f28:	01079793          	slli	a5,a5,0x10
    2f2c:	4107d793          	srai	a5,a5,0x10
    2f30:	00000513          	li	a0,0
    2f34:	eacff06f          	j	25e0 <__stack_size+0x5e0>
    2f38:	00a78793          	addi	a5,a5,10
    2f3c:	01079793          	slli	a5,a5,0x10
    2f40:	4107d793          	srai	a5,a5,0x10
    2f44:	00000513          	li	a0,0
    2f48:	cf8ff06f          	j	2440 <__stack_size+0x440>
    2f4c:	00a78793          	addi	a5,a5,10
    2f50:	01079793          	slli	a5,a5,0x10
    2f54:	4107d793          	srai	a5,a5,0x10
    2f58:	00000513          	li	a0,0
    2f5c:	b44ff06f          	j	22a0 <__stack_size+0x2a0>
    2f60:	00a50693          	addi	a3,a0,10
    2f64:	01069513          	slli	a0,a3,0x10
    2f68:	41055513          	srai	a0,a0,0x10
    2f6c:	00000313          	li	t1,0
    2f70:	fe1fe06f          	j	1f50 <matrix_test+0x490>
    2f74:	00a78793          	addi	a5,a5,10
    2f78:	01079793          	slli	a5,a5,0x10
    2f7c:	4107d793          	srai	a5,a5,0x10
    2f80:	00000513          	li	a0,0
    2f84:	af8ff06f          	j	227c <__stack_size+0x27c>
    2f88:	00a50693          	addi	a3,a0,10
    2f8c:	01069513          	slli	a0,a3,0x10
    2f90:	41055513          	srai	a0,a0,0x10
    2f94:	00000313          	li	t1,0
    2f98:	f91fe06f          	j	1f28 <matrix_test+0x468>
    2f9c:	00a78793          	addi	a5,a5,10
    2fa0:	01079793          	slli	a5,a5,0x10
    2fa4:	4107d793          	srai	a5,a5,0x10
    2fa8:	00000513          	li	a0,0
    2fac:	e10ff06f          	j	25bc <__stack_size+0x5bc>
    2fb0:	00a78793          	addi	a5,a5,10
    2fb4:	01079793          	slli	a5,a5,0x10
    2fb8:	4107d793          	srai	a5,a5,0x10
    2fbc:	00000513          	li	a0,0
    2fc0:	c5cff06f          	j	241c <__stack_size+0x41c>
    2fc4:	00a78793          	addi	a5,a5,10
    2fc8:	01079793          	slli	a5,a5,0x10
    2fcc:	4107d793          	srai	a5,a5,0x10
    2fd0:	00000513          	li	a0,0
    2fd4:	dc4ff06f          	j	2598 <__stack_size+0x598>
    2fd8:	00a78793          	addi	a5,a5,10
    2fdc:	01079793          	slli	a5,a5,0x10
    2fe0:	4107d793          	srai	a5,a5,0x10
    2fe4:	00000513          	li	a0,0
    2fe8:	c10ff06f          	j	23f8 <__stack_size+0x3f8>
    2fec:	00a78793          	addi	a5,a5,10
    2ff0:	01079793          	slli	a5,a5,0x10
    2ff4:	4107d793          	srai	a5,a5,0x10
    2ff8:	00000513          	li	a0,0
    2ffc:	a5cff06f          	j	2258 <__stack_size+0x258>
    3000:	00a50693          	addi	a3,a0,10
    3004:	01069513          	slli	a0,a3,0x10
    3008:	41055513          	srai	a0,a0,0x10
    300c:	00000313          	li	t1,0
    3010:	ef1fe06f          	j	1f00 <matrix_test+0x440>
    3014:	00a78793          	addi	a5,a5,10
    3018:	01079793          	slli	a5,a5,0x10
    301c:	4107d793          	srai	a5,a5,0x10
    3020:	00000513          	li	a0,0
    3024:	d50ff06f          	j	2574 <__stack_size+0x574>
    3028:	00a78793          	addi	a5,a5,10
    302c:	01079793          	slli	a5,a5,0x10
    3030:	4107d793          	srai	a5,a5,0x10
    3034:	00000513          	li	a0,0
    3038:	b9cff06f          	j	23d4 <__stack_size+0x3d4>
    303c:	00a78793          	addi	a5,a5,10
    3040:	01079793          	slli	a5,a5,0x10
    3044:	4107d793          	srai	a5,a5,0x10
    3048:	00000513          	li	a0,0
    304c:	9e8ff06f          	j	2234 <__stack_size+0x234>
    3050:	00a50693          	addi	a3,a0,10
    3054:	01069513          	slli	a0,a3,0x10
    3058:	41055513          	srai	a0,a0,0x10
    305c:	00000313          	li	t1,0
    3060:	e79fe06f          	j	1ed8 <matrix_test+0x418>
    3064:	00a78793          	addi	a5,a5,10
    3068:	01079793          	slli	a5,a5,0x10
    306c:	4107d793          	srai	a5,a5,0x10
    3070:	00000513          	li	a0,0
    3074:	b3cff06f          	j	23b0 <__stack_size+0x3b0>
    3078:	00a50693          	addi	a3,a0,10
    307c:	01069513          	slli	a0,a3,0x10
    3080:	41055513          	srai	a0,a0,0x10
    3084:	00000313          	li	t1,0
    3088:	e29fe06f          	j	1eb0 <matrix_test+0x3f0>
    308c:	00a78793          	addi	a5,a5,10
    3090:	01079793          	slli	a5,a5,0x10
    3094:	4107d793          	srai	a5,a5,0x10
    3098:	00000513          	li	a0,0
    309c:	cb4ff06f          	j	2550 <__stack_size+0x550>
    30a0:	00a78793          	addi	a5,a5,10
    30a4:	01079793          	slli	a5,a5,0x10
    30a8:	4107d793          	srai	a5,a5,0x10
    30ac:	00000513          	li	a0,0
    30b0:	960ff06f          	j	2210 <__stack_size+0x210>
    30b4:	00a78793          	addi	a5,a5,10
    30b8:	01079793          	slli	a5,a5,0x10
    30bc:	4107d793          	srai	a5,a5,0x10
    30c0:	00000513          	li	a0,0
    30c4:	c68ff06f          	j	252c <__stack_size+0x52c>
    30c8:	00a78793          	addi	a5,a5,10
    30cc:	01079793          	slli	a5,a5,0x10
    30d0:	4107d793          	srai	a5,a5,0x10
    30d4:	00000513          	li	a0,0
    30d8:	914ff06f          	j	21ec <__stack_size+0x1ec>
    30dc:	00a78793          	addi	a5,a5,10
    30e0:	01079793          	slli	a5,a5,0x10
    30e4:	4107d793          	srai	a5,a5,0x10
    30e8:	00000513          	li	a0,0
    30ec:	aa0ff06f          	j	238c <__stack_size+0x38c>
    30f0:	00a50693          	addi	a3,a0,10
    30f4:	01069513          	slli	a0,a3,0x10
    30f8:	41055513          	srai	a0,a0,0x10
    30fc:	00000313          	li	t1,0
    3100:	d89fe06f          	j	1e88 <matrix_test+0x3c8>
    3104:	00000593          	li	a1,0
    3108:	0f8010ef          	jal	ra,4200 <crc16>
    310c:	00050593          	mv	a1,a0
    3110:	00000513          	li	a0,0
    3114:	0ec010ef          	jal	ra,4200 <crc16>
    3118:	000a8693          	mv	a3,s5
    311c:	000a0613          	mv	a2,s4
    3120:	00050413          	mv	s0,a0
    3124:	00098593          	mv	a1,s3
    3128:	00000513          	li	a0,0
    312c:	cc4fe0ef          	jal	ra,15f0 <matrix_mul_matrix>
    3130:	00040593          	mv	a1,s0
    3134:	00000513          	li	a0,0
    3138:	0c8010ef          	jal	ra,4200 <crc16>
    313c:	00050413          	mv	s0,a0
    3140:	00098593          	mv	a1,s3
    3144:	000a8693          	mv	a3,s5
    3148:	000a0613          	mv	a2,s4
    314c:	00000513          	li	a0,0
    3150:	f30fe0ef          	jal	ra,1880 <matrix_mul_matrix_bitextract>
    3154:	00040593          	mv	a1,s0
    3158:	00000513          	li	a0,0
    315c:	0a4010ef          	jal	ra,4200 <crc16>
    3160:	e10ff06f          	j	2770 <__stack_size+0x770>
	...

00003170 <core_bench_matrix>:
    3170:	ff010113          	addi	sp,sp,-16
    3174:	00050793          	mv	a5,a0
    3178:	00812423          	sw	s0,8(sp)
    317c:	00852683          	lw	a3,8(a0)
    3180:	00060413          	mv	s0,a2
    3184:	00058713          	mv	a4,a1
    3188:	00052503          	lw	a0,0(a0)
    318c:	00c7a583          	lw	a1,12(a5)
    3190:	0047a603          	lw	a2,4(a5)
    3194:	00112623          	sw	ra,12(sp)
    3198:	929fe0ef          	jal	ra,1ac0 <matrix_test>
    319c:	00040593          	mv	a1,s0
    31a0:	00812403          	lw	s0,8(sp)
    31a4:	00c12083          	lw	ra,12(sp)
    31a8:	01010113          	addi	sp,sp,16
    31ac:	0540106f          	j	4200 <crc16>
	...

000031c0 <core_init_state>:
    31c0:	fff50893          	addi	a7,a0,-1
    31c4:	00100793          	li	a5,1
    31c8:	00060813          	mv	a6,a2
    31cc:	00000693          	li	a3,0
    31d0:	1717fe63          	bgeu	a5,a7,334c <core_init_state+0x18c>
    31d4:	ff010113          	addi	sp,sp,-16
    31d8:	100003b7          	lui	t2,0x10000
    31dc:	100002b7          	lui	t0,0x10000
    31e0:	10000fb7          	lui	t6,0x10000
    31e4:	10000f37          	lui	t5,0x10000
    31e8:	00812623          	sw	s0,12(sp)
    31ec:	00912423          	sw	s1,8(sp)
    31f0:	01212223          	sw	s2,4(sp)
    31f4:	01312023          	sw	s3,0(sp)
    31f8:	00800413          	li	s0,8
    31fc:	02c00e93          	li	t4,44
    3200:	00400613          	li	a2,4
    3204:	00100e13          	li	t3,1
    3208:	57838393          	addi	t2,t2,1400 # 10000578 <intpat>
    320c:	56828293          	addi	t0,t0,1384 # 10000568 <floatpat>
    3210:	588f8f93          	addi	t6,t6,1416 # 10000588 <scipat>
    3214:	558f0f13          	addi	t5,t5,1368 # 10000558 <errpat>
    3218:	00700313          	li	t1,7
    321c:	0900006f          	j	32ac <core_init_state+0xec>
    3220:	10f66063          	bltu	a2,a5,3320 <core_init_state+0x160>
    3224:	ffd78793          	addi	a5,a5,-3
    3228:	01079793          	slli	a5,a5,0x10
    322c:	0107d793          	srli	a5,a5,0x10
    3230:	0cfe6e63          	bltu	t3,a5,330c <core_init_state+0x14c>
    3234:	00271713          	slli	a4,a4,0x2
    3238:	00e28733          	add	a4,t0,a4
    323c:	00072703          	lw	a4,0(a4)
    3240:	00800793          	li	a5,8
    3244:	00168913          	addi	s2,a3,1
    3248:	00f90933          	add	s2,s2,a5
    324c:	09197c63          	bgeu	s2,a7,32e4 <core_init_state+0x124>
    3250:	00074983          	lbu	s3,0(a4)
    3254:	00d804b3          	add	s1,a6,a3
    3258:	01348023          	sb	s3,0(s1)
    325c:	00174983          	lbu	s3,1(a4)
    3260:	013480a3          	sb	s3,1(s1)
    3264:	00274983          	lbu	s3,2(a4)
    3268:	01348123          	sb	s3,2(s1)
    326c:	00374983          	lbu	s3,3(a4)
    3270:	013481a3          	sb	s3,3(s1)
    3274:	02c78463          	beq	a5,a2,329c <core_init_state+0xdc>
    3278:	00474983          	lbu	s3,4(a4)
    327c:	01348223          	sb	s3,4(s1)
    3280:	00574983          	lbu	s3,5(a4)
    3284:	013482a3          	sb	s3,5(s1)
    3288:	00674983          	lbu	s3,6(a4)
    328c:	01348323          	sb	s3,6(s1)
    3290:	00879663          	bne	a5,s0,329c <core_init_state+0xdc>
    3294:	00774703          	lbu	a4,7(a4)
    3298:	00e483a3          	sb	a4,7(s1)
    329c:	00f807b3          	add	a5,a6,a5
    32a0:	00d787b3          	add	a5,a5,a3
    32a4:	01d78023          	sb	t4,0(a5)
    32a8:	00090693          	mv	a3,s2
    32ac:	00158793          	addi	a5,a1,1
    32b0:	01079593          	slli	a1,a5,0x10
    32b4:	4105d593          	srai	a1,a1,0x10
    32b8:	4035d713          	srai	a4,a1,0x3
    32bc:	0077f793          	andi	a5,a5,7
    32c0:	00377713          	andi	a4,a4,3
    32c4:	f4679ee3          	bne	a5,t1,3220 <core_init_state+0x60>
    32c8:	00271713          	slli	a4,a4,0x2
    32cc:	00800793          	li	a5,8
    32d0:	00168913          	addi	s2,a3,1
    32d4:	00ef0733          	add	a4,t5,a4
    32d8:	00f90933          	add	s2,s2,a5
    32dc:	00072703          	lw	a4,0(a4)
    32e0:	f71968e3          	bltu	s2,a7,3250 <core_init_state+0x90>
    32e4:	04a6f863          	bgeu	a3,a0,3334 <core_init_state+0x174>
    32e8:	00c12403          	lw	s0,12(sp)
    32ec:	00812483          	lw	s1,8(sp)
    32f0:	00412903          	lw	s2,4(sp)
    32f4:	00012983          	lw	s3,0(sp)
    32f8:	40d50633          	sub	a2,a0,a3
    32fc:	00000593          	li	a1,0
    3300:	00d80533          	add	a0,a6,a3
    3304:	01010113          	addi	sp,sp,16
    3308:	4d40306f          	j	67dc <memset>
    330c:	00271713          	slli	a4,a4,0x2
    3310:	00e38733          	add	a4,t2,a4
    3314:	00072703          	lw	a4,0(a4)
    3318:	00400793          	li	a5,4
    331c:	f29ff06f          	j	3244 <core_init_state+0x84>
    3320:	00271713          	slli	a4,a4,0x2
    3324:	00ef8733          	add	a4,t6,a4
    3328:	00072703          	lw	a4,0(a4)
    332c:	00800793          	li	a5,8
    3330:	f15ff06f          	j	3244 <core_init_state+0x84>
    3334:	00c12403          	lw	s0,12(sp)
    3338:	00812483          	lw	s1,8(sp)
    333c:	00412903          	lw	s2,4(sp)
    3340:	00012983          	lw	s3,0(sp)
    3344:	01010113          	addi	sp,sp,16
    3348:	00008067          	ret
    334c:	40d50633          	sub	a2,a0,a3
    3350:	00000593          	li	a1,0
    3354:	00d80533          	add	a0,a6,a3
    3358:	4840306f          	j	67dc <memset>
    335c:	0000                	unimp
	...

00003360 <core_state_transition>:
    3360:	00052683          	lw	a3,0(a0)
    3364:	00050393          	mv	t2,a0
    3368:	00000513          	li	a0,0
    336c:	0006c783          	lbu	a5,0(a3)
    3370:	38078863          	beqz	a5,3700 <core_state_transition+0x3a0>
    3374:	fe010113          	addi	sp,sp,-32
    3378:	00812e23          	sw	s0,28(sp)
    337c:	00912c23          	sw	s1,24(sp)
    3380:	01212a23          	sw	s2,20(sp)
    3384:	01312823          	sw	s3,16(sp)
    3388:	01412623          	sw	s4,12(sp)
    338c:	01512423          	sw	s5,8(sp)
    3390:	00600293          	li	t0,6
    3394:	00400f93          	li	t6,4
    3398:	00500f13          	li	t5,5
    339c:	00300813          	li	a6,3
    33a0:	00200e93          	li	t4,2
    33a4:	02b00913          	li	s2,43
    33a8:	02d00993          	li	s3,45
    33ac:	02e00413          	li	s0,46
    33b0:	04500493          	li	s1,69
    33b4:	00900313          	li	t1,9
    33b8:	00700e13          	li	t3,7
    33bc:	00100a13          	li	s4,1
    33c0:	02c00893          	li	a7,44
    33c4:	00168613          	addi	a2,a3,1
    33c8:	05178e63          	beq	a5,a7,3424 <core_state_transition+0xc4>
    33cc:	21050a63          	beq	a0,a6,35e0 <core_state_transition+0x280>
    33d0:	02a86863          	bltu	a6,a0,3400 <core_state_transition+0xa0>
    33d4:	0e050263          	beqz	a0,34b8 <core_state_transition+0x158>
    33d8:	3fd51a63          	bne	a0,t4,37cc <core_state_transition+0x46c>
    33dc:	0085a503          	lw	a0,8(a1)
    33e0:	fd078713          	addi	a4,a5,-48
    33e4:	0ff77713          	zext.b	a4,a4
    33e8:	00150a93          	addi	s5,a0,1
    33ec:	18e37a63          	bgeu	t1,a4,3580 <core_state_transition+0x220>
    33f0:	26878063          	beq	a5,s0,3650 <core_state_transition+0x2f0>
    33f4:	00100513          	li	a0,1
    33f8:	0155a423          	sw	s5,8(a1)
    33fc:	0280006f          	j	3424 <core_state_transition+0xc4>
    3400:	04550e63          	beq	a0,t0,345c <core_state_transition+0xfc>
    3404:	07c51c63          	bne	a0,t3,347c <core_state_transition+0x11c>
    3408:	fd078793          	addi	a5,a5,-48
    340c:	0ff7f793          	zext.b	a5,a5
    3410:	18f37863          	bgeu	t1,a5,35a0 <core_state_transition+0x240>
    3414:	0045a783          	lw	a5,4(a1)
    3418:	00100513          	li	a0,1
    341c:	00178793          	addi	a5,a5,1
    3420:	00f5a223          	sw	a5,4(a1)
    3424:	01c12403          	lw	s0,28(sp)
    3428:	00c3a023          	sw	a2,0(t2)
    342c:	01812483          	lw	s1,24(sp)
    3430:	01412903          	lw	s2,20(sp)
    3434:	01012983          	lw	s3,16(sp)
    3438:	00c12a03          	lw	s4,12(sp)
    343c:	00812a83          	lw	s5,8(sp)
    3440:	02010113          	addi	sp,sp,32
    3444:	00008067          	ret
    3448:	00e5a623          	sw	a4,12(a1)
    344c:	00164783          	lbu	a5,1(a2)
    3450:	2c078063          	beqz	a5,3710 <core_state_transition+0x3b0>
    3454:	00168613          	addi	a2,a3,1
    3458:	27178c63          	beq	a5,a7,36d0 <core_state_transition+0x370>
    345c:	0185a703          	lw	a4,24(a1)
    3460:	fd078793          	addi	a5,a5,-48
    3464:	0ff7f793          	zext.b	a5,a5
    3468:	00170713          	addi	a4,a4,1
    346c:	14f37a63          	bgeu	t1,a5,35c0 <core_state_transition+0x260>
    3470:	00100513          	li	a0,1
    3474:	00e5ac23          	sw	a4,24(a1)
    3478:	fadff06f          	j	3424 <core_state_transition+0xc4>
    347c:	1df50263          	beq	a0,t6,3640 <core_state_transition+0x2e0>
    3480:	09e51463          	bne	a0,t5,3508 <core_state_transition+0x1a8>
    3484:	0df7f713          	andi	a4,a5,223
    3488:	08970a63          	beq	a4,s1,351c <core_state_transition+0x1bc>
    348c:	fd078793          	addi	a5,a5,-48
    3490:	0ff7f793          	zext.b	a5,a5
    3494:	16f36a63          	bltu	t1,a5,3608 <core_state_transition+0x2a8>
    3498:	0016c783          	lbu	a5,1(a3)
    349c:	2c078663          	beqz	a5,3768 <core_state_transition+0x408>
    34a0:	00160713          	addi	a4,a2,1
    34a4:	2d178663          	beq	a5,a7,3770 <core_state_transition+0x410>
    34a8:	00060693          	mv	a3,a2
    34ac:	00500513          	li	a0,5
    34b0:	00070613          	mv	a2,a4
    34b4:	f51ff06f          	j	3404 <core_state_transition+0xa4>
    34b8:	0005a503          	lw	a0,0(a1)
    34bc:	fd078713          	addi	a4,a5,-48
    34c0:	0ff77713          	zext.b	a4,a4
    34c4:	00150a93          	addi	s5,a0,1
    34c8:	08e36a63          	bltu	t1,a4,355c <core_state_transition+0x1fc>
    34cc:	0155a023          	sw	s5,0(a1)
    34d0:	0016c783          	lbu	a5,1(a3)
    34d4:	24078a63          	beqz	a5,3728 <core_state_transition+0x3c8>
    34d8:	00160693          	addi	a3,a2,1
    34dc:	21178863          	beq	a5,a7,36ec <core_state_transition+0x38c>
    34e0:	12878e63          	beq	a5,s0,361c <core_state_transition+0x2bc>
    34e4:	fd078793          	addi	a5,a5,-48
    34e8:	0ff7f793          	zext.b	a5,a5
    34ec:	10f36263          	bltu	t1,a5,35f0 <core_state_transition+0x290>
    34f0:	00164783          	lbu	a5,1(a2)
    34f4:	26078063          	beqz	a5,3754 <core_state_transition+0x3f4>
    34f8:	00168613          	addi	a2,a3,1
    34fc:	27178263          	beq	a5,a7,3760 <core_state_transition+0x400>
    3500:	00400513          	li	a0,4
    3504:	f01ff06f          	j	3404 <core_state_transition+0xa4>
    3508:	0016c783          	lbu	a5,1(a3)
    350c:	1e078663          	beqz	a5,36f8 <core_state_transition+0x398>
    3510:	00600513          	li	a0,6
    3514:	00060693          	mv	a3,a2
    3518:	eadff06f          	j	33c4 <core_state_transition+0x64>
    351c:	0145a783          	lw	a5,20(a1)
    3520:	00178793          	addi	a5,a5,1
    3524:	00f5aa23          	sw	a5,20(a1)
    3528:	0016c783          	lbu	a5,1(a3)
    352c:	1c078e63          	beqz	a5,3708 <core_state_transition+0x3a8>
    3530:	00160693          	addi	a3,a2,1
    3534:	1f178463          	beq	a5,a7,371c <core_state_transition+0x3bc>
    3538:	00c5a703          	lw	a4,12(a1)
    353c:	fd578793          	addi	a5,a5,-43
    3540:	0fd7f793          	andi	a5,a5,253
    3544:	00170713          	addi	a4,a4,1
    3548:	f00780e3          	beqz	a5,3448 <core_state_transition+0xe8>
    354c:	00068613          	mv	a2,a3
    3550:	00100513          	li	a0,1
    3554:	00e5a623          	sw	a4,12(a1)
    3558:	ecdff06f          	j	3424 <core_state_transition+0xc4>
    355c:	11278a63          	beq	a5,s2,3670 <core_state_transition+0x310>
    3560:	15378863          	beq	a5,s3,36b0 <core_state_transition+0x350>
    3564:	12878663          	beq	a5,s0,3690 <core_state_transition+0x330>
    3568:	0045a783          	lw	a5,4(a1)
    356c:	00100513          	li	a0,1
    3570:	0155a023          	sw	s5,0(a1)
    3574:	00178793          	addi	a5,a5,1
    3578:	00f5a223          	sw	a5,4(a1)
    357c:	ea9ff06f          	j	3424 <core_state_transition+0xc4>
    3580:	0155a423          	sw	s5,8(a1)
    3584:	0016c783          	lbu	a5,1(a3)
    3588:	1a078c63          	beqz	a5,3740 <core_state_transition+0x3e0>
    358c:	00160693          	addi	a3,a2,1
    3590:	f51798e3          	bne	a5,a7,34e0 <core_state_transition+0x180>
    3594:	00068613          	mv	a2,a3
    3598:	00400513          	li	a0,4
    359c:	e89ff06f          	j	3424 <core_state_transition+0xc4>
    35a0:	0016c783          	lbu	a5,1(a3)
    35a4:	18078663          	beqz	a5,3730 <core_state_transition+0x3d0>
    35a8:	00160713          	addi	a4,a2,1
    35ac:	00700513          	li	a0,7
    35b0:	13178a63          	beq	a5,a7,36e4 <core_state_transition+0x384>
    35b4:	00060693          	mv	a3,a2
    35b8:	00070613          	mv	a2,a4
    35bc:	e15ff06f          	j	33d0 <core_state_transition+0x70>
    35c0:	00e5ac23          	sw	a4,24(a1)
    35c4:	0016c783          	lbu	a5,1(a3)
    35c8:	16078863          	beqz	a5,3738 <core_state_transition+0x3d8>
    35cc:	00160713          	addi	a4,a2,1
    35d0:	11178463          	beq	a5,a7,36d8 <core_state_transition+0x378>
    35d4:	00060693          	mv	a3,a2
    35d8:	00070613          	mv	a2,a4
    35dc:	e2dff06f          	j	3408 <core_state_transition+0xa8>
    35e0:	00060713          	mv	a4,a2
    35e4:	00068613          	mv	a2,a3
    35e8:	00070693          	mv	a3,a4
    35ec:	f4dff06f          	j	3538 <core_state_transition+0x1d8>
    35f0:	0105a783          	lw	a5,16(a1)
    35f4:	00068613          	mv	a2,a3
    35f8:	00100513          	li	a0,1
    35fc:	00178793          	addi	a5,a5,1
    3600:	00f5a823          	sw	a5,16(a1)
    3604:	e21ff06f          	j	3424 <core_state_transition+0xc4>
    3608:	0145a783          	lw	a5,20(a1)
    360c:	00100513          	li	a0,1
    3610:	00178793          	addi	a5,a5,1
    3614:	00f5aa23          	sw	a5,20(a1)
    3618:	e0dff06f          	j	3424 <core_state_transition+0xc4>
    361c:	0105a783          	lw	a5,16(a1)
    3620:	00178793          	addi	a5,a5,1
    3624:	00f5a823          	sw	a5,16(a1)
    3628:	00164783          	lbu	a5,1(a2)
    362c:	10078e63          	beqz	a5,3748 <core_state_transition+0x3e8>
    3630:	00168613          	addi	a2,a3,1
    3634:	e51798e3          	bne	a5,a7,3484 <core_state_transition+0x124>
    3638:	00500513          	li	a0,5
    363c:	de9ff06f          	j	3424 <core_state_transition+0xc4>
    3640:	00060713          	mv	a4,a2
    3644:	00068613          	mv	a2,a3
    3648:	00070693          	mv	a3,a4
    364c:	e95ff06f          	j	34e0 <core_state_transition+0x180>
    3650:	0155a423          	sw	s5,8(a1)
    3654:	0016c783          	lbu	a5,1(a3)
    3658:	12078863          	beqz	a5,3788 <core_state_transition+0x428>
    365c:	00160713          	addi	a4,a2,1
    3660:	11178e63          	beq	a5,a7,377c <core_state_transition+0x41c>
    3664:	00060693          	mv	a3,a2
    3668:	00070613          	mv	a2,a4
    366c:	e19ff06f          	j	3484 <core_state_transition+0x124>
    3670:	0155a023          	sw	s5,0(a1)
    3674:	0016c783          	lbu	a5,1(a3)
    3678:	12078263          	beqz	a5,379c <core_state_transition+0x43c>
    367c:	00160713          	addi	a4,a2,1
    3680:	11178863          	beq	a5,a7,3790 <core_state_transition+0x430>
    3684:	00060693          	mv	a3,a2
    3688:	00070613          	mv	a2,a4
    368c:	d51ff06f          	j	33dc <core_state_transition+0x7c>
    3690:	0155a023          	sw	s5,0(a1)
    3694:	0016c783          	lbu	a5,1(a3)
    3698:	12078663          	beqz	a5,37c4 <core_state_transition+0x464>
    369c:	00160713          	addi	a4,a2,1
    36a0:	11178c63          	beq	a5,a7,37b8 <core_state_transition+0x458>
    36a4:	00060693          	mv	a3,a2
    36a8:	00070613          	mv	a2,a4
    36ac:	dd9ff06f          	j	3484 <core_state_transition+0x124>
    36b0:	0155a023          	sw	s5,0(a1)
    36b4:	0016c783          	lbu	a5,1(a3)
    36b8:	0e078663          	beqz	a5,37a4 <core_state_transition+0x444>
    36bc:	00160713          	addi	a4,a2,1
    36c0:	0f178663          	beq	a5,a7,37ac <core_state_transition+0x44c>
    36c4:	00060693          	mv	a3,a2
    36c8:	00070613          	mv	a2,a4
    36cc:	d11ff06f          	j	33dc <core_state_transition+0x7c>
    36d0:	00600513          	li	a0,6
    36d4:	d51ff06f          	j	3424 <core_state_transition+0xc4>
    36d8:	00070613          	mv	a2,a4
    36dc:	00700513          	li	a0,7
    36e0:	d45ff06f          	j	3424 <core_state_transition+0xc4>
    36e4:	00070613          	mv	a2,a4
    36e8:	d3dff06f          	j	3424 <core_state_transition+0xc4>
    36ec:	00068613          	mv	a2,a3
    36f0:	00400513          	li	a0,4
    36f4:	d31ff06f          	j	3424 <core_state_transition+0xc4>
    36f8:	00600513          	li	a0,6
    36fc:	d29ff06f          	j	3424 <core_state_transition+0xc4>
    3700:	00d3a023          	sw	a3,0(t2)
    3704:	00008067          	ret
    3708:	00300513          	li	a0,3
    370c:	d19ff06f          	j	3424 <core_state_transition+0xc4>
    3710:	00068613          	mv	a2,a3
    3714:	00600513          	li	a0,6
    3718:	d0dff06f          	j	3424 <core_state_transition+0xc4>
    371c:	00068613          	mv	a2,a3
    3720:	00300513          	li	a0,3
    3724:	d01ff06f          	j	3424 <core_state_transition+0xc4>
    3728:	00400513          	li	a0,4
    372c:	cf9ff06f          	j	3424 <core_state_transition+0xc4>
    3730:	00700513          	li	a0,7
    3734:	cf1ff06f          	j	3424 <core_state_transition+0xc4>
    3738:	00700513          	li	a0,7
    373c:	ce9ff06f          	j	3424 <core_state_transition+0xc4>
    3740:	00400513          	li	a0,4
    3744:	ce1ff06f          	j	3424 <core_state_transition+0xc4>
    3748:	00068613          	mv	a2,a3
    374c:	00500513          	li	a0,5
    3750:	cd5ff06f          	j	3424 <core_state_transition+0xc4>
    3754:	00068613          	mv	a2,a3
    3758:	00400513          	li	a0,4
    375c:	cc9ff06f          	j	3424 <core_state_transition+0xc4>
    3760:	00400513          	li	a0,4
    3764:	cc1ff06f          	j	3424 <core_state_transition+0xc4>
    3768:	00500513          	li	a0,5
    376c:	cb9ff06f          	j	3424 <core_state_transition+0xc4>
    3770:	00070613          	mv	a2,a4
    3774:	00500513          	li	a0,5
    3778:	cadff06f          	j	3424 <core_state_transition+0xc4>
    377c:	00070613          	mv	a2,a4
    3780:	00500513          	li	a0,5
    3784:	ca1ff06f          	j	3424 <core_state_transition+0xc4>
    3788:	00500513          	li	a0,5
    378c:	c99ff06f          	j	3424 <core_state_transition+0xc4>
    3790:	00070613          	mv	a2,a4
    3794:	00200513          	li	a0,2
    3798:	c8dff06f          	j	3424 <core_state_transition+0xc4>
    379c:	00200513          	li	a0,2
    37a0:	c85ff06f          	j	3424 <core_state_transition+0xc4>
    37a4:	00200513          	li	a0,2
    37a8:	c7dff06f          	j	3424 <core_state_transition+0xc4>
    37ac:	00070613          	mv	a2,a4
    37b0:	00200513          	li	a0,2
    37b4:	c71ff06f          	j	3424 <core_state_transition+0xc4>
    37b8:	00070613          	mv	a2,a4
    37bc:	00500513          	li	a0,5
    37c0:	c65ff06f          	j	3424 <core_state_transition+0xc4>
    37c4:	00500513          	li	a0,5
    37c8:	c5dff06f          	j	3424 <core_state_transition+0xc4>
    37cc:	0016c783          	lbu	a5,1(a3)
    37d0:	c4078ae3          	beqz	a5,3424 <core_state_transition+0xc4>
    37d4:	c54508e3          	beq	a0,s4,3424 <core_state_transition+0xc4>
    37d8:	d3dff06f          	j	3514 <core_state_transition+0x1b4>
	...

000037f0 <core_bench_state>:
    37f0:	f9010113          	addi	sp,sp,-112
    37f4:	06812423          	sw	s0,104(sp)
    37f8:	06912223          	sw	s1,100(sp)
    37fc:	07212023          	sw	s2,96(sp)
    3800:	05312e23          	sw	s3,92(sp)
    3804:	05412c23          	sw	s4,88(sp)
    3808:	05512a23          	sw	s5,84(sp)
    380c:	05612823          	sw	s6,80(sp)
    3810:	06112623          	sw	ra,108(sp)
    3814:	00058413          	mv	s0,a1
    3818:	0005c583          	lbu	a1,0(a1)
    381c:	03010913          	addi	s2,sp,48
    3820:	02012823          	sw	zero,48(sp)
    3824:	00092223          	sw	zero,4(s2)
    3828:	00092423          	sw	zero,8(s2)
    382c:	00092623          	sw	zero,12(s2)
    3830:	00092823          	sw	zero,16(s2)
    3834:	00092a23          	sw	zero,20(s2)
    3838:	00092c23          	sw	zero,24(s2)
    383c:	00092e23          	sw	zero,28(s2)
    3840:	00012823          	sw	zero,16(sp)
    3844:	00012a23          	sw	zero,20(sp)
    3848:	00012c23          	sw	zero,24(sp)
    384c:	00012e23          	sw	zero,28(sp)
    3850:	02012023          	sw	zero,32(sp)
    3854:	02012223          	sw	zero,36(sp)
    3858:	02012423          	sw	zero,40(sp)
    385c:	02012623          	sw	zero,44(sp)
    3860:	00050b13          	mv	s6,a0
    3864:	00060a93          	mv	s5,a2
    3868:	00068a13          	mv	s4,a3
    386c:	00070993          	mv	s3,a4
    3870:	00078493          	mv	s1,a5
    3874:	02058c63          	beqz	a1,38ac <core_bench_state+0xbc>
    3878:	00812623          	sw	s0,12(sp)
    387c:	00090593          	mv	a1,s2
    3880:	00c10513          	addi	a0,sp,12
    3884:	addff0ef          	jal	ra,3360 <core_state_transition>
    3888:	05010793          	addi	a5,sp,80
    388c:	00251813          	slli	a6,a0,0x2
    3890:	01078833          	add	a6,a5,a6
    3894:	00c12703          	lw	a4,12(sp)
    3898:	fc082783          	lw	a5,-64(a6)
    389c:	00074703          	lbu	a4,0(a4)
    38a0:	00178793          	addi	a5,a5,1
    38a4:	fcf82023          	sw	a5,-64(a6)
    38a8:	fc071ae3          	bnez	a4,387c <core_bench_state+0x8c>
    38ac:	01640b33          	add	s6,s0,s6
    38b0:	03647a63          	bgeu	s0,s6,38e4 <core_bench_state+0xf4>
    38b4:	00040813          	mv	a6,s0
    38b8:	02c00713          	li	a4,44
    38bc:	00812623          	sw	s0,12(sp)
    38c0:	0080006f          	j	38c8 <core_bench_state+0xd8>
    38c4:	01012623          	sw	a6,12(sp)
    38c8:	00084783          	lbu	a5,0(a6)
    38cc:	00e78663          	beq	a5,a4,38d8 <core_bench_state+0xe8>
    38d0:	0157c7b3          	xor	a5,a5,s5
    38d4:	00f80023          	sb	a5,0(a6)
    38d8:	00c12803          	lw	a6,12(sp)
    38dc:	01380833          	add	a6,a6,s3
    38e0:	ff6862e3          	bltu	a6,s6,38c4 <core_bench_state+0xd4>
    38e4:	00044783          	lbu	a5,0(s0) # fffff000 <__dual_issue_riscv_irq_stack_top+0xefffb000>
    38e8:	02078c63          	beqz	a5,3920 <core_bench_state+0x130>
    38ec:	00812623          	sw	s0,12(sp)
    38f0:	00090593          	mv	a1,s2
    38f4:	00c10513          	addi	a0,sp,12
    38f8:	a69ff0ef          	jal	ra,3360 <core_state_transition>
    38fc:	05010793          	addi	a5,sp,80
    3900:	00251613          	slli	a2,a0,0x2
    3904:	00c78633          	add	a2,a5,a2
    3908:	00c12703          	lw	a4,12(sp)
    390c:	fc062783          	lw	a5,-64(a2)
    3910:	00074703          	lbu	a4,0(a4)
    3914:	00178793          	addi	a5,a5,1
    3918:	fcf62023          	sw	a5,-64(a2)
    391c:	fc071ae3          	bnez	a4,38f0 <core_bench_state+0x100>
    3920:	00812623          	sw	s0,12(sp)
    3924:	02c00713          	li	a4,44
    3928:	03647263          	bgeu	s0,s6,394c <core_bench_state+0x15c>
    392c:	00044783          	lbu	a5,0(s0)
    3930:	00e78663          	beq	a5,a4,393c <core_bench_state+0x14c>
    3934:	0147c7b3          	xor	a5,a5,s4
    3938:	00f40023          	sb	a5,0(s0)
    393c:	00c12403          	lw	s0,12(sp)
    3940:	01340433          	add	s0,s0,s3
    3944:	00812623          	sw	s0,12(sp)
    3948:	ff6462e3          	bltu	s0,s6,392c <core_bench_state+0x13c>
    394c:	00090993          	mv	s3,s2
    3950:	01010413          	addi	s0,sp,16
    3954:	00042503          	lw	a0,0(s0)
    3958:	00048593          	mv	a1,s1
    395c:	00440413          	addi	s0,s0,4
    3960:	370000ef          	jal	ra,3cd0 <crcu32>
    3964:	00050593          	mv	a1,a0
    3968:	0009a503          	lw	a0,0(s3)
    396c:	00498993          	addi	s3,s3,4
    3970:	360000ef          	jal	ra,3cd0 <crcu32>
    3974:	00050493          	mv	s1,a0
    3978:	fc891ee3          	bne	s2,s0,3954 <core_bench_state+0x164>
    397c:	06c12083          	lw	ra,108(sp)
    3980:	06812403          	lw	s0,104(sp)
    3984:	06412483          	lw	s1,100(sp)
    3988:	06012903          	lw	s2,96(sp)
    398c:	05c12983          	lw	s3,92(sp)
    3990:	05812a03          	lw	s4,88(sp)
    3994:	05412a83          	lw	s5,84(sp)
    3998:	05012b03          	lw	s6,80(sp)
    399c:	07010113          	addi	sp,sp,112
    39a0:	00008067          	ret
	...

000039b0 <get_seed_32>:
    39b0:	00300793          	li	a5,3
    39b4:	02f50c63          	beq	a0,a5,39ec <get_seed_32+0x3c>
    39b8:	00a7de63          	bge	a5,a0,39d4 <get_seed_32+0x24>
    39bc:	00400793          	li	a5,4
    39c0:	02f50c63          	beq	a0,a5,39f8 <get_seed_32+0x48>
    39c4:	00500793          	li	a5,5
    39c8:	04f51463          	bne	a0,a5,3a10 <get_seed_32+0x60>
    39cc:	8181a503          	lw	a0,-2024(gp) # 100006f0 <seed5_volatile>
    39d0:	00008067          	ret
    39d4:	00100793          	li	a5,1
    39d8:	02f50663          	beq	a0,a5,3a04 <get_seed_32+0x54>
    39dc:	00200793          	li	a5,2
    39e0:	02f51c63          	bne	a0,a5,3a18 <get_seed_32+0x68>
    39e4:	8141a503          	lw	a0,-2028(gp) # 100006ec <seed2_volatile>
    39e8:	00008067          	ret
    39ec:	100007b7          	lui	a5,0x10000
    39f0:	6d87a503          	lw	a0,1752(a5) # 100006d8 <seed3_volatile>
    39f4:	00008067          	ret
    39f8:	100007b7          	lui	a5,0x10000
    39fc:	6dc7a503          	lw	a0,1756(a5) # 100006dc <seed4_volatile>
    3a00:	00008067          	ret
    3a04:	100007b7          	lui	a5,0x10000
    3a08:	6e87a503          	lw	a0,1768(a5) # 100006e8 <seed1_volatile>
    3a0c:	00008067          	ret
    3a10:	00000513          	li	a0,0
    3a14:	00008067          	ret
    3a18:	00000513          	li	a0,0
    3a1c:	00008067          	ret
	...

00003a30 <crcu16>:
    3a30:	00a5c6b3          	xor	a3,a1,a0
    3a34:	0ff57713          	zext.b	a4,a0
    3a38:	0016f693          	andi	a3,a3,1
    3a3c:	00050793          	mv	a5,a0
    3a40:	00175613          	srli	a2,a4,0x1
    3a44:	0015d513          	srli	a0,a1,0x1
    3a48:	00068c63          	beqz	a3,3a60 <crcu16+0x30>
    3a4c:	ffffa6b7          	lui	a3,0xffffa
    3a50:	00168693          	addi	a3,a3,1 # ffffa001 <__dual_issue_riscv_irq_stack_top+0xefff6001>
    3a54:	00d54533          	xor	a0,a0,a3
    3a58:	01051513          	slli	a0,a0,0x10
    3a5c:	01055513          	srli	a0,a0,0x10
    3a60:	00c54633          	xor	a2,a0,a2
    3a64:	00167613          	andi	a2,a2,1
    3a68:	00275693          	srli	a3,a4,0x2
    3a6c:	00155513          	srli	a0,a0,0x1
    3a70:	00060c63          	beqz	a2,3a88 <crcu16+0x58>
    3a74:	ffffa637          	lui	a2,0xffffa
    3a78:	00160613          	addi	a2,a2,1 # ffffa001 <__dual_issue_riscv_irq_stack_top+0xefff6001>
    3a7c:	00c54533          	xor	a0,a0,a2
    3a80:	01051513          	slli	a0,a0,0x10
    3a84:	01055513          	srli	a0,a0,0x10
    3a88:	00d546b3          	xor	a3,a0,a3
    3a8c:	0016f693          	andi	a3,a3,1
    3a90:	00375613          	srli	a2,a4,0x3
    3a94:	00155513          	srli	a0,a0,0x1
    3a98:	00068c63          	beqz	a3,3ab0 <crcu16+0x80>
    3a9c:	ffffa6b7          	lui	a3,0xffffa
    3aa0:	00168693          	addi	a3,a3,1 # ffffa001 <__dual_issue_riscv_irq_stack_top+0xefff6001>
    3aa4:	00d54533          	xor	a0,a0,a3
    3aa8:	01051513          	slli	a0,a0,0x10
    3aac:	01055513          	srli	a0,a0,0x10
    3ab0:	00c54633          	xor	a2,a0,a2
    3ab4:	00167613          	andi	a2,a2,1
    3ab8:	00475693          	srli	a3,a4,0x4
    3abc:	00155513          	srli	a0,a0,0x1
    3ac0:	00060c63          	beqz	a2,3ad8 <crcu16+0xa8>
    3ac4:	ffffa637          	lui	a2,0xffffa
    3ac8:	00160613          	addi	a2,a2,1 # ffffa001 <__dual_issue_riscv_irq_stack_top+0xefff6001>
    3acc:	00c54533          	xor	a0,a0,a2
    3ad0:	01051513          	slli	a0,a0,0x10
    3ad4:	01055513          	srli	a0,a0,0x10
    3ad8:	00d546b3          	xor	a3,a0,a3
    3adc:	0016f693          	andi	a3,a3,1
    3ae0:	00575613          	srli	a2,a4,0x5
    3ae4:	00155513          	srli	a0,a0,0x1
    3ae8:	00068c63          	beqz	a3,3b00 <crcu16+0xd0>
    3aec:	ffffa6b7          	lui	a3,0xffffa
    3af0:	00168693          	addi	a3,a3,1 # ffffa001 <__dual_issue_riscv_irq_stack_top+0xefff6001>
    3af4:	00d54533          	xor	a0,a0,a3
    3af8:	01051513          	slli	a0,a0,0x10
    3afc:	01055513          	srli	a0,a0,0x10
    3b00:	00c54633          	xor	a2,a0,a2
    3b04:	00167613          	andi	a2,a2,1
    3b08:	00675693          	srli	a3,a4,0x6
    3b0c:	00155513          	srli	a0,a0,0x1
    3b10:	00060c63          	beqz	a2,3b28 <crcu16+0xf8>
    3b14:	ffffa637          	lui	a2,0xffffa
    3b18:	00160613          	addi	a2,a2,1 # ffffa001 <__dual_issue_riscv_irq_stack_top+0xefff6001>
    3b1c:	00c54533          	xor	a0,a0,a2
    3b20:	01051513          	slli	a0,a0,0x10
    3b24:	01055513          	srli	a0,a0,0x10
    3b28:	00d546b3          	xor	a3,a0,a3
    3b2c:	0016f693          	andi	a3,a3,1
    3b30:	00775713          	srli	a4,a4,0x7
    3b34:	00155513          	srli	a0,a0,0x1
    3b38:	00068c63          	beqz	a3,3b50 <crcu16+0x120>
    3b3c:	ffffa6b7          	lui	a3,0xffffa
    3b40:	00168693          	addi	a3,a3,1 # ffffa001 <__dual_issue_riscv_irq_stack_top+0xefff6001>
    3b44:	00d54533          	xor	a0,a0,a3
    3b48:	01051513          	slli	a0,a0,0x10
    3b4c:	01055513          	srli	a0,a0,0x10
    3b50:	00157693          	andi	a3,a0,1
    3b54:	00155513          	srli	a0,a0,0x1
    3b58:	14e69463          	bne	a3,a4,3ca0 <crcu16+0x270>
    3b5c:	0087d693          	srli	a3,a5,0x8
    3b60:	00a6c6b3          	xor	a3,a3,a0
    3b64:	0016f693          	andi	a3,a3,1
    3b68:	0087d713          	srli	a4,a5,0x8
    3b6c:	00155513          	srli	a0,a0,0x1
    3b70:	0097d793          	srli	a5,a5,0x9
    3b74:	00068c63          	beqz	a3,3b8c <crcu16+0x15c>
    3b78:	ffffa6b7          	lui	a3,0xffffa
    3b7c:	00168693          	addi	a3,a3,1 # ffffa001 <__dual_issue_riscv_irq_stack_top+0xefff6001>
    3b80:	00d54533          	xor	a0,a0,a3
    3b84:	01051513          	slli	a0,a0,0x10
    3b88:	01055513          	srli	a0,a0,0x10
    3b8c:	00f547b3          	xor	a5,a0,a5
    3b90:	0017f793          	andi	a5,a5,1
    3b94:	00275693          	srli	a3,a4,0x2
    3b98:	00155513          	srli	a0,a0,0x1
    3b9c:	00078c63          	beqz	a5,3bb4 <crcu16+0x184>
    3ba0:	ffffa7b7          	lui	a5,0xffffa
    3ba4:	00178793          	addi	a5,a5,1 # ffffa001 <__dual_issue_riscv_irq_stack_top+0xefff6001>
    3ba8:	00f54533          	xor	a0,a0,a5
    3bac:	01051513          	slli	a0,a0,0x10
    3bb0:	01055513          	srli	a0,a0,0x10
    3bb4:	00d547b3          	xor	a5,a0,a3
    3bb8:	0017f793          	andi	a5,a5,1
    3bbc:	00375693          	srli	a3,a4,0x3
    3bc0:	00155513          	srli	a0,a0,0x1
    3bc4:	00078c63          	beqz	a5,3bdc <crcu16+0x1ac>
    3bc8:	ffffa7b7          	lui	a5,0xffffa
    3bcc:	00178793          	addi	a5,a5,1 # ffffa001 <__dual_issue_riscv_irq_stack_top+0xefff6001>
    3bd0:	00f54533          	xor	a0,a0,a5
    3bd4:	01051513          	slli	a0,a0,0x10
    3bd8:	01055513          	srli	a0,a0,0x10
    3bdc:	00d546b3          	xor	a3,a0,a3
    3be0:	0016f693          	andi	a3,a3,1
    3be4:	00475793          	srli	a5,a4,0x4
    3be8:	00155513          	srli	a0,a0,0x1
    3bec:	00068c63          	beqz	a3,3c04 <crcu16+0x1d4>
    3bf0:	ffffa6b7          	lui	a3,0xffffa
    3bf4:	00168693          	addi	a3,a3,1 # ffffa001 <__dual_issue_riscv_irq_stack_top+0xefff6001>
    3bf8:	00d54533          	xor	a0,a0,a3
    3bfc:	01051513          	slli	a0,a0,0x10
    3c00:	01055513          	srli	a0,a0,0x10
    3c04:	00f547b3          	xor	a5,a0,a5
    3c08:	0017f793          	andi	a5,a5,1
    3c0c:	00575693          	srli	a3,a4,0x5
    3c10:	00155513          	srli	a0,a0,0x1
    3c14:	00078c63          	beqz	a5,3c2c <crcu16+0x1fc>
    3c18:	ffffa7b7          	lui	a5,0xffffa
    3c1c:	00178793          	addi	a5,a5,1 # ffffa001 <__dual_issue_riscv_irq_stack_top+0xefff6001>
    3c20:	00f54533          	xor	a0,a0,a5
    3c24:	01051513          	slli	a0,a0,0x10
    3c28:	01055513          	srli	a0,a0,0x10
    3c2c:	00d546b3          	xor	a3,a0,a3
    3c30:	0016f693          	andi	a3,a3,1
    3c34:	00675793          	srli	a5,a4,0x6
    3c38:	00155513          	srli	a0,a0,0x1
    3c3c:	00068c63          	beqz	a3,3c54 <crcu16+0x224>
    3c40:	ffffa6b7          	lui	a3,0xffffa
    3c44:	00168693          	addi	a3,a3,1 # ffffa001 <__dual_issue_riscv_irq_stack_top+0xefff6001>
    3c48:	00d54533          	xor	a0,a0,a3
    3c4c:	01051513          	slli	a0,a0,0x10
    3c50:	01055513          	srli	a0,a0,0x10
    3c54:	00f547b3          	xor	a5,a0,a5
    3c58:	0017f793          	andi	a5,a5,1
    3c5c:	00775713          	srli	a4,a4,0x7
    3c60:	00155513          	srli	a0,a0,0x1
    3c64:	00078c63          	beqz	a5,3c7c <crcu16+0x24c>
    3c68:	ffffa7b7          	lui	a5,0xffffa
    3c6c:	00178793          	addi	a5,a5,1 # ffffa001 <__dual_issue_riscv_irq_stack_top+0xefff6001>
    3c70:	00f54533          	xor	a0,a0,a5
    3c74:	01051513          	slli	a0,a0,0x10
    3c78:	01055513          	srli	a0,a0,0x10
    3c7c:	00157793          	andi	a5,a0,1
    3c80:	00155513          	srli	a0,a0,0x1
    3c84:	00e78c63          	beq	a5,a4,3c9c <crcu16+0x26c>
    3c88:	ffffa7b7          	lui	a5,0xffffa
    3c8c:	00178793          	addi	a5,a5,1 # ffffa001 <__dual_issue_riscv_irq_stack_top+0xefff6001>
    3c90:	00f54533          	xor	a0,a0,a5
    3c94:	01051513          	slli	a0,a0,0x10
    3c98:	01055513          	srli	a0,a0,0x10
    3c9c:	00008067          	ret
    3ca0:	ffffa737          	lui	a4,0xffffa
    3ca4:	00170713          	addi	a4,a4,1 # ffffa001 <__dual_issue_riscv_irq_stack_top+0xefff6001>
    3ca8:	00e54533          	xor	a0,a0,a4
    3cac:	01051513          	slli	a0,a0,0x10
    3cb0:	01055513          	srli	a0,a0,0x10
    3cb4:	ea9ff06f          	j	3b5c <crcu16+0x12c>
	...

00003cd0 <crcu32>:
    3cd0:	00a5c833          	xor	a6,a1,a0
    3cd4:	0ff57693          	zext.b	a3,a0
    3cd8:	01051713          	slli	a4,a0,0x10
    3cdc:	00187813          	andi	a6,a6,1
    3ce0:	00050793          	mv	a5,a0
    3ce4:	01075713          	srli	a4,a4,0x10
    3ce8:	0016d613          	srli	a2,a3,0x1
    3cec:	0015d513          	srli	a0,a1,0x1
    3cf0:	00080c63          	beqz	a6,3d08 <crcu32+0x38>
    3cf4:	ffffa5b7          	lui	a1,0xffffa
    3cf8:	00158593          	addi	a1,a1,1 # ffffa001 <__dual_issue_riscv_irq_stack_top+0xefff6001>
    3cfc:	00b54533          	xor	a0,a0,a1
    3d00:	01051513          	slli	a0,a0,0x10
    3d04:	01055513          	srli	a0,a0,0x10
    3d08:	00c545b3          	xor	a1,a0,a2
    3d0c:	0015f593          	andi	a1,a1,1
    3d10:	0026d613          	srli	a2,a3,0x2
    3d14:	00155513          	srli	a0,a0,0x1
    3d18:	00058c63          	beqz	a1,3d30 <crcu32+0x60>
    3d1c:	ffffa5b7          	lui	a1,0xffffa
    3d20:	00158593          	addi	a1,a1,1 # ffffa001 <__dual_issue_riscv_irq_stack_top+0xefff6001>
    3d24:	00b54533          	xor	a0,a0,a1
    3d28:	01051513          	slli	a0,a0,0x10
    3d2c:	01055513          	srli	a0,a0,0x10
    3d30:	00c54633          	xor	a2,a0,a2
    3d34:	00167613          	andi	a2,a2,1
    3d38:	0036d593          	srli	a1,a3,0x3
    3d3c:	00155513          	srli	a0,a0,0x1
    3d40:	00060c63          	beqz	a2,3d58 <crcu32+0x88>
    3d44:	ffffa637          	lui	a2,0xffffa
    3d48:	00160613          	addi	a2,a2,1 # ffffa001 <__dual_issue_riscv_irq_stack_top+0xefff6001>
    3d4c:	00c54533          	xor	a0,a0,a2
    3d50:	01051513          	slli	a0,a0,0x10
    3d54:	01055513          	srli	a0,a0,0x10
    3d58:	00b545b3          	xor	a1,a0,a1
    3d5c:	0015f593          	andi	a1,a1,1
    3d60:	0046d613          	srli	a2,a3,0x4
    3d64:	00155513          	srli	a0,a0,0x1
    3d68:	00058c63          	beqz	a1,3d80 <crcu32+0xb0>
    3d6c:	ffffa5b7          	lui	a1,0xffffa
    3d70:	00158593          	addi	a1,a1,1 # ffffa001 <__dual_issue_riscv_irq_stack_top+0xefff6001>
    3d74:	00b54533          	xor	a0,a0,a1
    3d78:	01051513          	slli	a0,a0,0x10
    3d7c:	01055513          	srli	a0,a0,0x10
    3d80:	00c54633          	xor	a2,a0,a2
    3d84:	00167613          	andi	a2,a2,1
    3d88:	0056d593          	srli	a1,a3,0x5
    3d8c:	00155513          	srli	a0,a0,0x1
    3d90:	00060c63          	beqz	a2,3da8 <crcu32+0xd8>
    3d94:	ffffa637          	lui	a2,0xffffa
    3d98:	00160613          	addi	a2,a2,1 # ffffa001 <__dual_issue_riscv_irq_stack_top+0xefff6001>
    3d9c:	00c54533          	xor	a0,a0,a2
    3da0:	01051513          	slli	a0,a0,0x10
    3da4:	01055513          	srli	a0,a0,0x10
    3da8:	00b545b3          	xor	a1,a0,a1
    3dac:	0015f593          	andi	a1,a1,1
    3db0:	0066d613          	srli	a2,a3,0x6
    3db4:	00155513          	srli	a0,a0,0x1
    3db8:	00058c63          	beqz	a1,3dd0 <crcu32+0x100>
    3dbc:	ffffa5b7          	lui	a1,0xffffa
    3dc0:	00158593          	addi	a1,a1,1 # ffffa001 <__dual_issue_riscv_irq_stack_top+0xefff6001>
    3dc4:	00b54533          	xor	a0,a0,a1
    3dc8:	01051513          	slli	a0,a0,0x10
    3dcc:	01055513          	srli	a0,a0,0x10
    3dd0:	00c54633          	xor	a2,a0,a2
    3dd4:	00167613          	andi	a2,a2,1
    3dd8:	0076d693          	srli	a3,a3,0x7
    3ddc:	00155513          	srli	a0,a0,0x1
    3de0:	00060c63          	beqz	a2,3df8 <crcu32+0x128>
    3de4:	ffffa637          	lui	a2,0xffffa
    3de8:	00160613          	addi	a2,a2,1 # ffffa001 <__dual_issue_riscv_irq_stack_top+0xefff6001>
    3dec:	00c54533          	xor	a0,a0,a2
    3df0:	01051513          	slli	a0,a0,0x10
    3df4:	01055513          	srli	a0,a0,0x10
    3df8:	00157613          	andi	a2,a0,1
    3dfc:	00155513          	srli	a0,a0,0x1
    3e00:	3cd61a63          	bne	a2,a3,41d4 <crcu32+0x504>
    3e04:	00875613          	srli	a2,a4,0x8
    3e08:	00c54633          	xor	a2,a0,a2
    3e0c:	00167613          	andi	a2,a2,1
    3e10:	00875693          	srli	a3,a4,0x8
    3e14:	00155513          	srli	a0,a0,0x1
    3e18:	00975713          	srli	a4,a4,0x9
    3e1c:	00060c63          	beqz	a2,3e34 <crcu32+0x164>
    3e20:	ffffa637          	lui	a2,0xffffa
    3e24:	00160613          	addi	a2,a2,1 # ffffa001 <__dual_issue_riscv_irq_stack_top+0xefff6001>
    3e28:	00c54533          	xor	a0,a0,a2
    3e2c:	01051513          	slli	a0,a0,0x10
    3e30:	01055513          	srli	a0,a0,0x10
    3e34:	00e54733          	xor	a4,a0,a4
    3e38:	00177713          	andi	a4,a4,1
    3e3c:	0026d613          	srli	a2,a3,0x2
    3e40:	00155513          	srli	a0,a0,0x1
    3e44:	00070c63          	beqz	a4,3e5c <crcu32+0x18c>
    3e48:	ffffa737          	lui	a4,0xffffa
    3e4c:	00170713          	addi	a4,a4,1 # ffffa001 <__dual_issue_riscv_irq_stack_top+0xefff6001>
    3e50:	00e54533          	xor	a0,a0,a4
    3e54:	01051513          	slli	a0,a0,0x10
    3e58:	01055513          	srli	a0,a0,0x10
    3e5c:	00c54733          	xor	a4,a0,a2
    3e60:	00177713          	andi	a4,a4,1
    3e64:	0036d613          	srli	a2,a3,0x3
    3e68:	00155513          	srli	a0,a0,0x1
    3e6c:	00070c63          	beqz	a4,3e84 <crcu32+0x1b4>
    3e70:	ffffa737          	lui	a4,0xffffa
    3e74:	00170713          	addi	a4,a4,1 # ffffa001 <__dual_issue_riscv_irq_stack_top+0xefff6001>
    3e78:	00e54533          	xor	a0,a0,a4
    3e7c:	01051513          	slli	a0,a0,0x10
    3e80:	01055513          	srli	a0,a0,0x10
    3e84:	00c54633          	xor	a2,a0,a2
    3e88:	00167613          	andi	a2,a2,1
    3e8c:	0046d713          	srli	a4,a3,0x4
    3e90:	00155513          	srli	a0,a0,0x1
    3e94:	00060c63          	beqz	a2,3eac <crcu32+0x1dc>
    3e98:	ffffa637          	lui	a2,0xffffa
    3e9c:	00160613          	addi	a2,a2,1 # ffffa001 <__dual_issue_riscv_irq_stack_top+0xefff6001>
    3ea0:	00c54533          	xor	a0,a0,a2
    3ea4:	01051513          	slli	a0,a0,0x10
    3ea8:	01055513          	srli	a0,a0,0x10
    3eac:	00e54733          	xor	a4,a0,a4
    3eb0:	00177713          	andi	a4,a4,1
    3eb4:	0056d613          	srli	a2,a3,0x5
    3eb8:	00155513          	srli	a0,a0,0x1
    3ebc:	00070c63          	beqz	a4,3ed4 <crcu32+0x204>
    3ec0:	ffffa737          	lui	a4,0xffffa
    3ec4:	00170713          	addi	a4,a4,1 # ffffa001 <__dual_issue_riscv_irq_stack_top+0xefff6001>
    3ec8:	00e54533          	xor	a0,a0,a4
    3ecc:	01051513          	slli	a0,a0,0x10
    3ed0:	01055513          	srli	a0,a0,0x10
    3ed4:	00c54633          	xor	a2,a0,a2
    3ed8:	00167613          	andi	a2,a2,1
    3edc:	0066d713          	srli	a4,a3,0x6
    3ee0:	00155513          	srli	a0,a0,0x1
    3ee4:	00060c63          	beqz	a2,3efc <crcu32+0x22c>
    3ee8:	ffffa637          	lui	a2,0xffffa
    3eec:	00160613          	addi	a2,a2,1 # ffffa001 <__dual_issue_riscv_irq_stack_top+0xefff6001>
    3ef0:	00c54533          	xor	a0,a0,a2
    3ef4:	01051513          	slli	a0,a0,0x10
    3ef8:	01055513          	srli	a0,a0,0x10
    3efc:	00e54733          	xor	a4,a0,a4
    3f00:	00177713          	andi	a4,a4,1
    3f04:	0076d693          	srli	a3,a3,0x7
    3f08:	00155513          	srli	a0,a0,0x1
    3f0c:	00070c63          	beqz	a4,3f24 <crcu32+0x254>
    3f10:	ffffa737          	lui	a4,0xffffa
    3f14:	00170713          	addi	a4,a4,1 # ffffa001 <__dual_issue_riscv_irq_stack_top+0xefff6001>
    3f18:	00e54533          	xor	a0,a0,a4
    3f1c:	01051513          	slli	a0,a0,0x10
    3f20:	01055513          	srli	a0,a0,0x10
    3f24:	00157713          	andi	a4,a0,1
    3f28:	00155513          	srli	a0,a0,0x1
    3f2c:	28d71863          	bne	a4,a3,41bc <crcu32+0x4ec>
    3f30:	0107d713          	srli	a4,a5,0x10
    3f34:	00e546b3          	xor	a3,a0,a4
    3f38:	0016f693          	andi	a3,a3,1
    3f3c:	0ff77713          	zext.b	a4,a4
    3f40:	0107d793          	srli	a5,a5,0x10
    3f44:	00175613          	srli	a2,a4,0x1
    3f48:	00155513          	srli	a0,a0,0x1
    3f4c:	00068c63          	beqz	a3,3f64 <crcu32+0x294>
    3f50:	ffffa6b7          	lui	a3,0xffffa
    3f54:	00168693          	addi	a3,a3,1 # ffffa001 <__dual_issue_riscv_irq_stack_top+0xefff6001>
    3f58:	00d54533          	xor	a0,a0,a3
    3f5c:	01051513          	slli	a0,a0,0x10
    3f60:	01055513          	srli	a0,a0,0x10
    3f64:	00c54633          	xor	a2,a0,a2
    3f68:	00167613          	andi	a2,a2,1
    3f6c:	00275693          	srli	a3,a4,0x2
    3f70:	00155513          	srli	a0,a0,0x1
    3f74:	00060c63          	beqz	a2,3f8c <crcu32+0x2bc>
    3f78:	ffffa637          	lui	a2,0xffffa
    3f7c:	00160613          	addi	a2,a2,1 # ffffa001 <__dual_issue_riscv_irq_stack_top+0xefff6001>
    3f80:	00c54533          	xor	a0,a0,a2
    3f84:	01051513          	slli	a0,a0,0x10
    3f88:	01055513          	srli	a0,a0,0x10
    3f8c:	00d546b3          	xor	a3,a0,a3
    3f90:	0016f693          	andi	a3,a3,1
    3f94:	00375613          	srli	a2,a4,0x3
    3f98:	00155513          	srli	a0,a0,0x1
    3f9c:	00068c63          	beqz	a3,3fb4 <crcu32+0x2e4>
    3fa0:	ffffa6b7          	lui	a3,0xffffa
    3fa4:	00168693          	addi	a3,a3,1 # ffffa001 <__dual_issue_riscv_irq_stack_top+0xefff6001>
    3fa8:	00d54533          	xor	a0,a0,a3
    3fac:	01051513          	slli	a0,a0,0x10
    3fb0:	01055513          	srli	a0,a0,0x10
    3fb4:	00c54633          	xor	a2,a0,a2
    3fb8:	00167613          	andi	a2,a2,1
    3fbc:	00475693          	srli	a3,a4,0x4
    3fc0:	00155513          	srli	a0,a0,0x1
    3fc4:	00060c63          	beqz	a2,3fdc <crcu32+0x30c>
    3fc8:	ffffa637          	lui	a2,0xffffa
    3fcc:	00160613          	addi	a2,a2,1 # ffffa001 <__dual_issue_riscv_irq_stack_top+0xefff6001>
    3fd0:	00c54533          	xor	a0,a0,a2
    3fd4:	01051513          	slli	a0,a0,0x10
    3fd8:	01055513          	srli	a0,a0,0x10
    3fdc:	00d546b3          	xor	a3,a0,a3
    3fe0:	0016f693          	andi	a3,a3,1
    3fe4:	00575613          	srli	a2,a4,0x5
    3fe8:	00155513          	srli	a0,a0,0x1
    3fec:	00068c63          	beqz	a3,4004 <crcu32+0x334>
    3ff0:	ffffa6b7          	lui	a3,0xffffa
    3ff4:	00168693          	addi	a3,a3,1 # ffffa001 <__dual_issue_riscv_irq_stack_top+0xefff6001>
    3ff8:	00d54533          	xor	a0,a0,a3
    3ffc:	01051513          	slli	a0,a0,0x10
    4000:	01055513          	srli	a0,a0,0x10
    4004:	00c54633          	xor	a2,a0,a2
    4008:	00167613          	andi	a2,a2,1
    400c:	00675693          	srli	a3,a4,0x6
    4010:	00155513          	srli	a0,a0,0x1
    4014:	00060c63          	beqz	a2,402c <crcu32+0x35c>
    4018:	ffffa637          	lui	a2,0xffffa
    401c:	00160613          	addi	a2,a2,1 # ffffa001 <__dual_issue_riscv_irq_stack_top+0xefff6001>
    4020:	00c54533          	xor	a0,a0,a2
    4024:	01051513          	slli	a0,a0,0x10
    4028:	01055513          	srli	a0,a0,0x10
    402c:	00d546b3          	xor	a3,a0,a3
    4030:	0016f693          	andi	a3,a3,1
    4034:	00775713          	srli	a4,a4,0x7
    4038:	00155513          	srli	a0,a0,0x1
    403c:	00068c63          	beqz	a3,4054 <crcu32+0x384>
    4040:	ffffa6b7          	lui	a3,0xffffa
    4044:	00168693          	addi	a3,a3,1 # ffffa001 <__dual_issue_riscv_irq_stack_top+0xefff6001>
    4048:	00d54533          	xor	a0,a0,a3
    404c:	01051513          	slli	a0,a0,0x10
    4050:	01055513          	srli	a0,a0,0x10
    4054:	00157693          	andi	a3,a0,1
    4058:	00155513          	srli	a0,a0,0x1
    405c:	14e69463          	bne	a3,a4,41a4 <crcu32+0x4d4>
    4060:	0087d693          	srli	a3,a5,0x8
    4064:	00a6c6b3          	xor	a3,a3,a0
    4068:	0016f693          	andi	a3,a3,1
    406c:	0087d713          	srli	a4,a5,0x8
    4070:	00155513          	srli	a0,a0,0x1
    4074:	0097d793          	srli	a5,a5,0x9
    4078:	00068c63          	beqz	a3,4090 <crcu32+0x3c0>
    407c:	ffffa6b7          	lui	a3,0xffffa
    4080:	00168693          	addi	a3,a3,1 # ffffa001 <__dual_issue_riscv_irq_stack_top+0xefff6001>
    4084:	00d54533          	xor	a0,a0,a3
    4088:	01051513          	slli	a0,a0,0x10
    408c:	01055513          	srli	a0,a0,0x10
    4090:	00a7c7b3          	xor	a5,a5,a0
    4094:	0017f793          	andi	a5,a5,1
    4098:	00275693          	srli	a3,a4,0x2
    409c:	00155513          	srli	a0,a0,0x1
    40a0:	00078c63          	beqz	a5,40b8 <crcu32+0x3e8>
    40a4:	ffffa7b7          	lui	a5,0xffffa
    40a8:	00178793          	addi	a5,a5,1 # ffffa001 <__dual_issue_riscv_irq_stack_top+0xefff6001>
    40ac:	00f54533          	xor	a0,a0,a5
    40b0:	01051513          	slli	a0,a0,0x10
    40b4:	01055513          	srli	a0,a0,0x10
    40b8:	00a6c7b3          	xor	a5,a3,a0
    40bc:	0017f793          	andi	a5,a5,1
    40c0:	00375693          	srli	a3,a4,0x3
    40c4:	00155513          	srli	a0,a0,0x1
    40c8:	00078c63          	beqz	a5,40e0 <crcu32+0x410>
    40cc:	ffffa7b7          	lui	a5,0xffffa
    40d0:	00178793          	addi	a5,a5,1 # ffffa001 <__dual_issue_riscv_irq_stack_top+0xefff6001>
    40d4:	00f54533          	xor	a0,a0,a5
    40d8:	01051513          	slli	a0,a0,0x10
    40dc:	01055513          	srli	a0,a0,0x10
    40e0:	00d546b3          	xor	a3,a0,a3
    40e4:	0016f693          	andi	a3,a3,1
    40e8:	00475793          	srli	a5,a4,0x4
    40ec:	00155513          	srli	a0,a0,0x1
    40f0:	00068c63          	beqz	a3,4108 <crcu32+0x438>
    40f4:	ffffa6b7          	lui	a3,0xffffa
    40f8:	00168693          	addi	a3,a3,1 # ffffa001 <__dual_issue_riscv_irq_stack_top+0xefff6001>
    40fc:	00d54533          	xor	a0,a0,a3
    4100:	01051513          	slli	a0,a0,0x10
    4104:	01055513          	srli	a0,a0,0x10
    4108:	00f547b3          	xor	a5,a0,a5
    410c:	0017f793          	andi	a5,a5,1
    4110:	00575693          	srli	a3,a4,0x5
    4114:	00155513          	srli	a0,a0,0x1
    4118:	00078c63          	beqz	a5,4130 <crcu32+0x460>
    411c:	ffffa7b7          	lui	a5,0xffffa
    4120:	00178793          	addi	a5,a5,1 # ffffa001 <__dual_issue_riscv_irq_stack_top+0xefff6001>
    4124:	00f54533          	xor	a0,a0,a5
    4128:	01051513          	slli	a0,a0,0x10
    412c:	01055513          	srli	a0,a0,0x10
    4130:	00d546b3          	xor	a3,a0,a3
    4134:	0016f693          	andi	a3,a3,1
    4138:	00675793          	srli	a5,a4,0x6
    413c:	00155513          	srli	a0,a0,0x1
    4140:	00068c63          	beqz	a3,4158 <crcu32+0x488>
    4144:	ffffa6b7          	lui	a3,0xffffa
    4148:	00168693          	addi	a3,a3,1 # ffffa001 <__dual_issue_riscv_irq_stack_top+0xefff6001>
    414c:	00d54533          	xor	a0,a0,a3
    4150:	01051513          	slli	a0,a0,0x10
    4154:	01055513          	srli	a0,a0,0x10
    4158:	00f547b3          	xor	a5,a0,a5
    415c:	0017f793          	andi	a5,a5,1
    4160:	00775713          	srli	a4,a4,0x7
    4164:	00155513          	srli	a0,a0,0x1
    4168:	00078c63          	beqz	a5,4180 <crcu32+0x4b0>
    416c:	ffffa7b7          	lui	a5,0xffffa
    4170:	00178793          	addi	a5,a5,1 # ffffa001 <__dual_issue_riscv_irq_stack_top+0xefff6001>
    4174:	00f54533          	xor	a0,a0,a5
    4178:	01051513          	slli	a0,a0,0x10
    417c:	01055513          	srli	a0,a0,0x10
    4180:	00157793          	andi	a5,a0,1
    4184:	00155513          	srli	a0,a0,0x1
    4188:	00e78c63          	beq	a5,a4,41a0 <crcu32+0x4d0>
    418c:	ffffa7b7          	lui	a5,0xffffa
    4190:	00178793          	addi	a5,a5,1 # ffffa001 <__dual_issue_riscv_irq_stack_top+0xefff6001>
    4194:	00f54533          	xor	a0,a0,a5
    4198:	01051513          	slli	a0,a0,0x10
    419c:	01055513          	srli	a0,a0,0x10
    41a0:	00008067          	ret
    41a4:	ffffa737          	lui	a4,0xffffa
    41a8:	00170713          	addi	a4,a4,1 # ffffa001 <__dual_issue_riscv_irq_stack_top+0xefff6001>
    41ac:	00e54533          	xor	a0,a0,a4
    41b0:	01051513          	slli	a0,a0,0x10
    41b4:	01055513          	srli	a0,a0,0x10
    41b8:	ea9ff06f          	j	4060 <crcu32+0x390>
    41bc:	ffffa737          	lui	a4,0xffffa
    41c0:	00170713          	addi	a4,a4,1 # ffffa001 <__dual_issue_riscv_irq_stack_top+0xefff6001>
    41c4:	00e54533          	xor	a0,a0,a4
    41c8:	01051513          	slli	a0,a0,0x10
    41cc:	01055513          	srli	a0,a0,0x10
    41d0:	d61ff06f          	j	3f30 <crcu32+0x260>
    41d4:	ffffa6b7          	lui	a3,0xffffa
    41d8:	00168693          	addi	a3,a3,1 # ffffa001 <__dual_issue_riscv_irq_stack_top+0xefff6001>
    41dc:	00d54533          	xor	a0,a0,a3
    41e0:	01051513          	slli	a0,a0,0x10
    41e4:	01055513          	srli	a0,a0,0x10
    41e8:	c1dff06f          	j	3e04 <crcu32+0x134>
	...

00004200 <crc16>:
    4200:	00a5c6b3          	xor	a3,a1,a0
    4204:	0ff57713          	zext.b	a4,a0
    4208:	01051793          	slli	a5,a0,0x10
    420c:	0016f693          	andi	a3,a3,1
    4210:	0107d793          	srli	a5,a5,0x10
    4214:	00175613          	srli	a2,a4,0x1
    4218:	0015d513          	srli	a0,a1,0x1
    421c:	00068c63          	beqz	a3,4234 <crc16+0x34>
    4220:	ffffa6b7          	lui	a3,0xffffa
    4224:	00168693          	addi	a3,a3,1 # ffffa001 <__dual_issue_riscv_irq_stack_top+0xefff6001>
    4228:	00d54533          	xor	a0,a0,a3
    422c:	01051513          	slli	a0,a0,0x10
    4230:	01055513          	srli	a0,a0,0x10
    4234:	00c54633          	xor	a2,a0,a2
    4238:	00167613          	andi	a2,a2,1
    423c:	00275693          	srli	a3,a4,0x2
    4240:	00155513          	srli	a0,a0,0x1
    4244:	00060c63          	beqz	a2,425c <crc16+0x5c>
    4248:	ffffa637          	lui	a2,0xffffa
    424c:	00160613          	addi	a2,a2,1 # ffffa001 <__dual_issue_riscv_irq_stack_top+0xefff6001>
    4250:	00c54533          	xor	a0,a0,a2
    4254:	01051513          	slli	a0,a0,0x10
    4258:	01055513          	srli	a0,a0,0x10
    425c:	00d546b3          	xor	a3,a0,a3
    4260:	0016f693          	andi	a3,a3,1
    4264:	00375613          	srli	a2,a4,0x3
    4268:	00155513          	srli	a0,a0,0x1
    426c:	00068c63          	beqz	a3,4284 <crc16+0x84>
    4270:	ffffa6b7          	lui	a3,0xffffa
    4274:	00168693          	addi	a3,a3,1 # ffffa001 <__dual_issue_riscv_irq_stack_top+0xefff6001>
    4278:	00d54533          	xor	a0,a0,a3
    427c:	01051513          	slli	a0,a0,0x10
    4280:	01055513          	srli	a0,a0,0x10
    4284:	00c54633          	xor	a2,a0,a2
    4288:	00167613          	andi	a2,a2,1
    428c:	00475693          	srli	a3,a4,0x4
    4290:	00155513          	srli	a0,a0,0x1
    4294:	00060c63          	beqz	a2,42ac <crc16+0xac>
    4298:	ffffa637          	lui	a2,0xffffa
    429c:	00160613          	addi	a2,a2,1 # ffffa001 <__dual_issue_riscv_irq_stack_top+0xefff6001>
    42a0:	00c54533          	xor	a0,a0,a2
    42a4:	01051513          	slli	a0,a0,0x10
    42a8:	01055513          	srli	a0,a0,0x10
    42ac:	00d546b3          	xor	a3,a0,a3
    42b0:	0016f693          	andi	a3,a3,1
    42b4:	00575613          	srli	a2,a4,0x5
    42b8:	00155513          	srli	a0,a0,0x1
    42bc:	00068c63          	beqz	a3,42d4 <crc16+0xd4>
    42c0:	ffffa6b7          	lui	a3,0xffffa
    42c4:	00168693          	addi	a3,a3,1 # ffffa001 <__dual_issue_riscv_irq_stack_top+0xefff6001>
    42c8:	00d54533          	xor	a0,a0,a3
    42cc:	01051513          	slli	a0,a0,0x10
    42d0:	01055513          	srli	a0,a0,0x10
    42d4:	00c54633          	xor	a2,a0,a2
    42d8:	00167613          	andi	a2,a2,1
    42dc:	00675693          	srli	a3,a4,0x6
    42e0:	00155513          	srli	a0,a0,0x1
    42e4:	00060c63          	beqz	a2,42fc <crc16+0xfc>
    42e8:	ffffa637          	lui	a2,0xffffa
    42ec:	00160613          	addi	a2,a2,1 # ffffa001 <__dual_issue_riscv_irq_stack_top+0xefff6001>
    42f0:	00c54533          	xor	a0,a0,a2
    42f4:	01051513          	slli	a0,a0,0x10
    42f8:	01055513          	srli	a0,a0,0x10
    42fc:	00d546b3          	xor	a3,a0,a3
    4300:	0016f693          	andi	a3,a3,1
    4304:	00775713          	srli	a4,a4,0x7
    4308:	00155513          	srli	a0,a0,0x1
    430c:	00068c63          	beqz	a3,4324 <crc16+0x124>
    4310:	ffffa6b7          	lui	a3,0xffffa
    4314:	00168693          	addi	a3,a3,1 # ffffa001 <__dual_issue_riscv_irq_stack_top+0xefff6001>
    4318:	00d54533          	xor	a0,a0,a3
    431c:	01051513          	slli	a0,a0,0x10
    4320:	01055513          	srli	a0,a0,0x10
    4324:	00157693          	andi	a3,a0,1
    4328:	00155513          	srli	a0,a0,0x1
    432c:	14e69463          	bne	a3,a4,4474 <crc16+0x274>
    4330:	0087d693          	srli	a3,a5,0x8
    4334:	00a6c6b3          	xor	a3,a3,a0
    4338:	0016f693          	andi	a3,a3,1
    433c:	0087d713          	srli	a4,a5,0x8
    4340:	00155513          	srli	a0,a0,0x1
    4344:	0097d793          	srli	a5,a5,0x9
    4348:	00068c63          	beqz	a3,4360 <crc16+0x160>
    434c:	ffffa6b7          	lui	a3,0xffffa
    4350:	00168693          	addi	a3,a3,1 # ffffa001 <__dual_issue_riscv_irq_stack_top+0xefff6001>
    4354:	00d54533          	xor	a0,a0,a3
    4358:	01051513          	slli	a0,a0,0x10
    435c:	01055513          	srli	a0,a0,0x10
    4360:	00f547b3          	xor	a5,a0,a5
    4364:	0017f793          	andi	a5,a5,1
    4368:	00275693          	srli	a3,a4,0x2
    436c:	00155513          	srli	a0,a0,0x1
    4370:	00078c63          	beqz	a5,4388 <crc16+0x188>
    4374:	ffffa7b7          	lui	a5,0xffffa
    4378:	00178793          	addi	a5,a5,1 # ffffa001 <__dual_issue_riscv_irq_stack_top+0xefff6001>
    437c:	00f54533          	xor	a0,a0,a5
    4380:	01051513          	slli	a0,a0,0x10
    4384:	01055513          	srli	a0,a0,0x10
    4388:	00d547b3          	xor	a5,a0,a3
    438c:	0017f793          	andi	a5,a5,1
    4390:	00375693          	srli	a3,a4,0x3
    4394:	00155513          	srli	a0,a0,0x1
    4398:	00078c63          	beqz	a5,43b0 <crc16+0x1b0>
    439c:	ffffa7b7          	lui	a5,0xffffa
    43a0:	00178793          	addi	a5,a5,1 # ffffa001 <__dual_issue_riscv_irq_stack_top+0xefff6001>
    43a4:	00f54533          	xor	a0,a0,a5
    43a8:	01051513          	slli	a0,a0,0x10
    43ac:	01055513          	srli	a0,a0,0x10
    43b0:	00d546b3          	xor	a3,a0,a3
    43b4:	0016f693          	andi	a3,a3,1
    43b8:	00475793          	srli	a5,a4,0x4
    43bc:	00155513          	srli	a0,a0,0x1
    43c0:	00068c63          	beqz	a3,43d8 <crc16+0x1d8>
    43c4:	ffffa6b7          	lui	a3,0xffffa
    43c8:	00168693          	addi	a3,a3,1 # ffffa001 <__dual_issue_riscv_irq_stack_top+0xefff6001>
    43cc:	00d54533          	xor	a0,a0,a3
    43d0:	01051513          	slli	a0,a0,0x10
    43d4:	01055513          	srli	a0,a0,0x10
    43d8:	00f547b3          	xor	a5,a0,a5
    43dc:	0017f793          	andi	a5,a5,1
    43e0:	00575693          	srli	a3,a4,0x5
    43e4:	00155513          	srli	a0,a0,0x1
    43e8:	00078c63          	beqz	a5,4400 <crc16+0x200>
    43ec:	ffffa7b7          	lui	a5,0xffffa
    43f0:	00178793          	addi	a5,a5,1 # ffffa001 <__dual_issue_riscv_irq_stack_top+0xefff6001>
    43f4:	00f54533          	xor	a0,a0,a5
    43f8:	01051513          	slli	a0,a0,0x10
    43fc:	01055513          	srli	a0,a0,0x10
    4400:	00d546b3          	xor	a3,a0,a3
    4404:	0016f693          	andi	a3,a3,1
    4408:	00675793          	srli	a5,a4,0x6
    440c:	00155513          	srli	a0,a0,0x1
    4410:	00068c63          	beqz	a3,4428 <crc16+0x228>
    4414:	ffffa6b7          	lui	a3,0xffffa
    4418:	00168693          	addi	a3,a3,1 # ffffa001 <__dual_issue_riscv_irq_stack_top+0xefff6001>
    441c:	00d54533          	xor	a0,a0,a3
    4420:	01051513          	slli	a0,a0,0x10
    4424:	01055513          	srli	a0,a0,0x10
    4428:	00f547b3          	xor	a5,a0,a5
    442c:	0017f793          	andi	a5,a5,1
    4430:	00775713          	srli	a4,a4,0x7
    4434:	00155513          	srli	a0,a0,0x1
    4438:	00078c63          	beqz	a5,4450 <crc16+0x250>
    443c:	ffffa7b7          	lui	a5,0xffffa
    4440:	00178793          	addi	a5,a5,1 # ffffa001 <__dual_issue_riscv_irq_stack_top+0xefff6001>
    4444:	00f54533          	xor	a0,a0,a5
    4448:	01051513          	slli	a0,a0,0x10
    444c:	01055513          	srli	a0,a0,0x10
    4450:	00157793          	andi	a5,a0,1
    4454:	00155513          	srli	a0,a0,0x1
    4458:	00e78c63          	beq	a5,a4,4470 <crc16+0x270>
    445c:	ffffa7b7          	lui	a5,0xffffa
    4460:	00178793          	addi	a5,a5,1 # ffffa001 <__dual_issue_riscv_irq_stack_top+0xefff6001>
    4464:	00f54533          	xor	a0,a0,a5
    4468:	01051513          	slli	a0,a0,0x10
    446c:	01055513          	srli	a0,a0,0x10
    4470:	00008067          	ret
    4474:	ffffa737          	lui	a4,0xffffa
    4478:	00170713          	addi	a4,a4,1 # ffffa001 <__dual_issue_riscv_irq_stack_top+0xefff6001>
    447c:	00e54533          	xor	a0,a0,a4
    4480:	01051513          	slli	a0,a0,0x10
    4484:	01055513          	srli	a0,a0,0x10
    4488:	ea9ff06f          	j	4330 <crc16+0x130>
	...

000044a0 <check_data_types>:
    44a0:	00000513          	li	a0,0
    44a4:	00008067          	ret
	...

000044c0 <start_time>:
    44c0:	ff010113          	addi	sp,sp,-16
    44c4:	00112623          	sw	ra,12(sp)
    44c8:	128000ef          	jal	ra,45f0 <get_cycle_value>
    44cc:	00c12083          	lw	ra,12(sp)
    44d0:	82a1a023          	sw	a0,-2016(gp) # 100006f8 <t0>
    44d4:	82b1a223          	sw	a1,-2012(gp) # 100006fc <t0+0x4>
    44d8:	01010113          	addi	sp,sp,16
    44dc:	00008067          	ret
	...

000044f0 <stop_time>:
    44f0:	ff010113          	addi	sp,sp,-16
    44f4:	00112623          	sw	ra,12(sp)
    44f8:	0f8000ef          	jal	ra,45f0 <get_cycle_value>
    44fc:	00c12083          	lw	ra,12(sp)
    4500:	82a1a423          	sw	a0,-2008(gp) # 10000700 <t1>
    4504:	82b1a623          	sw	a1,-2004(gp) # 10000704 <t1+0x4>
    4508:	01010113          	addi	sp,sp,16
    450c:	00008067          	ret
	...

00004520 <get_time>:
    4520:	82818713          	addi	a4,gp,-2008 # 10000700 <t1>
    4524:	82018793          	addi	a5,gp,-2016 # 100006f8 <t0>
    4528:	00072583          	lw	a1,0(a4)
    452c:	0007a503          	lw	a0,0(a5)
    4530:	00472703          	lw	a4,4(a4)
    4534:	0047a783          	lw	a5,4(a5)
    4538:	40a58533          	sub	a0,a1,a0
    453c:	00a5b5b3          	sltu	a1,a1,a0
    4540:	40f707b3          	sub	a5,a4,a5
    4544:	40b785b3          	sub	a1,a5,a1
    4548:	00008067          	ret
    454c:	0000                	unimp
	...

00004550 <time_in_secs>:
    4550:	01859593          	slli	a1,a1,0x18
    4554:	00855513          	srli	a0,a0,0x8
    4558:	ff010113          	addi	sp,sp,-16
    455c:	00a5e533          	or	a0,a1,a0
    4560:	00112623          	sw	ra,12(sp)
    4564:	120020ef          	jal	ra,6684 <__floatunsidf>
    4568:	8081a603          	lw	a2,-2040(gp) # 100006e0 <seed4_volatile+0x4>
    456c:	80c1a683          	lw	a3,-2036(gp) # 100006e4 <seed4_volatile+0x8>
    4570:	0fd010ef          	jal	ra,5e6c <__divdf3>
    4574:	090020ef          	jal	ra,6604 <__fixunsdfsi>
    4578:	00c12083          	lw	ra,12(sp)
    457c:	01010113          	addi	sp,sp,16
    4580:	00008067          	ret
	...

00004590 <portable_init>:
    4590:	0400006f          	j	45d0 <uart_init>
	...

000045a0 <uart_putc>:
    45a0:	20000737          	lui	a4,0x20000
    45a4:	00472783          	lw	a5,4(a4) # 20000004 <__dual_issue_riscv_irq_stack_top+0xfffc004>
    45a8:	0017f793          	andi	a5,a5,1
    45ac:	fe079ce3          	bnez	a5,45a4 <uart_putc+0x4>
    45b0:	00a72623          	sw	a0,12(a4)
    45b4:	00008067          	ret
	...

000045d0 <uart_init>:
    45d0:	200007b7          	lui	a5,0x20000
    45d4:	00300713          	li	a4,3
    45d8:	00e7a023          	sw	a4,0(a5) # 20000000 <__dual_issue_riscv_irq_stack_top+0xfffc000>
    45dc:	000047b7          	lui	a5,0x4
    45e0:	5a078793          	addi	a5,a5,1440 # 45a0 <uart_putc>
    45e4:	82f1aa23          	sw	a5,-1996(gp) # 1000070c <xfunc_out>
    45e8:	00008067          	ret
    45ec:	0000                	unimp
	...

000045f0 <get_cycle_value>:
    45f0:	c0002573          	rdcycle	a0
    45f4:	c80025f3          	rdcycleh	a1
    45f8:	00008067          	ret
	...

00004610 <xprintf>:
    4610:	f7010113          	addi	sp,sp,-144
    4614:	06812423          	sw	s0,104(sp)
    4618:	05812423          	sw	s8,72(sp)
    461c:	06112623          	sw	ra,108(sp)
    4620:	06912223          	sw	s1,100(sp)
    4624:	07212023          	sw	s2,96(sp)
    4628:	05312e23          	sw	s3,92(sp)
    462c:	05412c23          	sw	s4,88(sp)
    4630:	05512a23          	sw	s5,84(sp)
    4634:	05612823          	sw	s6,80(sp)
    4638:	05712623          	sw	s7,76(sp)
    463c:	05912223          	sw	s9,68(sp)
    4640:	05a12023          	sw	s10,64(sp)
    4644:	03b12e23          	sw	s11,60(sp)
    4648:	06b12a23          	sw	a1,116(sp)
    464c:	06c12c23          	sw	a2,120(sp)
    4650:	06d12e23          	sw	a3,124(sp)
    4654:	08e12023          	sw	a4,128(sp)
    4658:	08f12223          	sw	a5,132(sp)
    465c:	09012423          	sw	a6,136(sp)
    4660:	09112623          	sw	a7,140(sp)
    4664:	00050413          	mv	s0,a0
    4668:	00054503          	lbu	a0,0(a0)
    466c:	07410c13          	addi	s8,sp,116
    4670:	01812e23          	sw	s8,28(sp)
    4674:	04050063          	beqz	a0,46b4 <xprintf+0xa4>
    4678:	00140713          	addi	a4,s0,1
    467c:	02500993          	li	s3,37
    4680:	03000a93          	li	s5,48
    4684:	00900b13          	li	s6,9
    4688:	07350463          	beq	a0,s3,46f0 <xprintf+0xe0>
    468c:	83018613          	addi	a2,gp,-2000 # 10000708 <outptr>
    4690:	00062783          	lw	a5,0(a2)
    4694:	40078ae3          	beqz	a5,52a8 <xprintf+0xc98>
    4698:	00178593          	addi	a1,a5,1
    469c:	00070413          	mv	s0,a4
    46a0:	00b62023          	sw	a1,0(a2)
    46a4:	00a78023          	sb	a0,0(a5)
    46a8:	00044503          	lbu	a0,0(s0)
    46ac:	00140713          	addi	a4,s0,1
    46b0:	fc051ce3          	bnez	a0,4688 <xprintf+0x78>
    46b4:	06c12083          	lw	ra,108(sp)
    46b8:	06812403          	lw	s0,104(sp)
    46bc:	06412483          	lw	s1,100(sp)
    46c0:	06012903          	lw	s2,96(sp)
    46c4:	05c12983          	lw	s3,92(sp)
    46c8:	05812a03          	lw	s4,88(sp)
    46cc:	05412a83          	lw	s5,84(sp)
    46d0:	05012b03          	lw	s6,80(sp)
    46d4:	04c12b83          	lw	s7,76(sp)
    46d8:	04812c03          	lw	s8,72(sp)
    46dc:	04412c83          	lw	s9,68(sp)
    46e0:	04012d03          	lw	s10,64(sp)
    46e4:	03c12d83          	lw	s11,60(sp)
    46e8:	09010113          	addi	sp,sp,144
    46ec:	00008067          	ret
    46f0:	00144503          	lbu	a0,1(s0)
    46f4:	00240793          	addi	a5,s0,2
    46f8:	3d5502e3          	beq	a0,s5,52bc <xprintf+0xcac>
    46fc:	02d00713          	li	a4,45
    4700:	52e50ce3          	beq	a0,a4,5438 <xprintf+0xe28>
    4704:	00078413          	mv	s0,a5
    4708:	00000613          	li	a2,0
    470c:	fd050793          	addi	a5,a0,-48
    4710:	0ff7f793          	zext.b	a5,a5
    4714:	3cfb60e3          	bltu	s6,a5,52d4 <xprintf+0xcc4>
    4718:	00000b93          	li	s7,0
    471c:	002b9793          	slli	a5,s7,0x2
    4720:	017787b3          	add	a5,a5,s7
    4724:	00179793          	slli	a5,a5,0x1
    4728:	00140413          	addi	s0,s0,1
    472c:	00a787b3          	add	a5,a5,a0
    4730:	fff44503          	lbu	a0,-1(s0)
    4734:	fd078b93          	addi	s7,a5,-48
    4738:	fd050713          	addi	a4,a0,-48
    473c:	0ff77713          	zext.b	a4,a4
    4740:	fceb7ee3          	bgeu	s6,a4,471c <xprintf+0x10c>
    4744:	0df57793          	andi	a5,a0,223
    4748:	04c00713          	li	a4,76
    474c:	0ee782e3          	beq	a5,a4,5030 <xprintf+0xa20>
    4750:	f60502e3          	beqz	a0,46b4 <xprintf+0xa4>
    4754:	06000793          	li	a5,96
    4758:	00050713          	mv	a4,a0
    475c:	00a7f663          	bgeu	a5,a0,4768 <xprintf+0x158>
    4760:	fe050713          	addi	a4,a0,-32
    4764:	0ff77713          	zext.b	a4,a4
    4768:	04f00793          	li	a5,79
    476c:	72f70ce3          	beq	a4,a5,56a4 <xprintf+0x1094>
    4770:	0ce7e8e3          	bltu	a5,a4,5040 <xprintf+0xa30>
    4774:	04300793          	li	a5,67
    4778:	72f70ae3          	beq	a4,a5,56ac <xprintf+0x109c>
    477c:	04400593          	li	a1,68
    4780:	00a00793          	li	a5,10
    4784:	2eb71ee3          	bne	a4,a1,5280 <xprintf+0xc70>
    4788:	004c0693          	addi	a3,s8,4
    478c:	00467593          	andi	a1,a2,4
    4790:	00d12423          	sw	a3,8(sp)
    4794:	34058ae3          	beqz	a1,52e8 <xprintf+0xcd8>
    4798:	000c2883          	lw	a7,0(s8)
    479c:	04400813          	li	a6,68
    47a0:	00088593          	mv	a1,a7
    47a4:	5f0708e3          	beq	a4,a6,5594 <xprintf+0xf84>
    47a8:	00000813          	li	a6,0
    47ac:	07800593          	li	a1,120
    47b0:	00700713          	li	a4,7
    47b4:	00b51463          	bne	a0,a1,47bc <xprintf+0x1ac>
    47b8:	02700713          	li	a4,39
    47bc:	02f8f5b3          	remu	a1,a7,a5
    47c0:	01871713          	slli	a4,a4,0x18
    47c4:	41875713          	srai	a4,a4,0x18
    47c8:	02f8d533          	divu	a0,a7,a5
    47cc:	32bb78e3          	bgeu	s6,a1,52fc <xprintf+0xcec>
    47d0:	00b705b3          	add	a1,a4,a1
    47d4:	03058593          	addi	a1,a1,48
    47d8:	02b10023          	sb	a1,32(sp)
    47dc:	32f8eae3          	bltu	a7,a5,5310 <xprintf+0xd00>
    47e0:	02f575b3          	remu	a1,a0,a5
    47e4:	02f558b3          	divu	a7,a0,a5
    47e8:	32bb7ae3          	bgeu	s6,a1,531c <xprintf+0xd0c>
    47ec:	00b705b3          	add	a1,a4,a1
    47f0:	03058593          	addi	a1,a1,48
    47f4:	02b100a3          	sb	a1,33(sp)
    47f8:	32f56ce3          	bltu	a0,a5,5330 <xprintf+0xd20>
    47fc:	02f8f5b3          	remu	a1,a7,a5
    4800:	02f8d533          	divu	a0,a7,a5
    4804:	3ebb7ae3          	bgeu	s6,a1,53f8 <xprintf+0xde8>
    4808:	00b705b3          	add	a1,a4,a1
    480c:	03058593          	addi	a1,a1,48
    4810:	02b10123          	sb	a1,34(sp)
    4814:	3ef8ece3          	bltu	a7,a5,540c <xprintf+0xdfc>
    4818:	02f575b3          	remu	a1,a0,a5
    481c:	02f558b3          	divu	a7,a0,a5
    4820:	3ebb7ce3          	bgeu	s6,a1,5418 <xprintf+0xe08>
    4824:	00b705b3          	add	a1,a4,a1
    4828:	03058593          	addi	a1,a1,48
    482c:	02b101a3          	sb	a1,35(sp)
    4830:	3ef56ee3          	bltu	a0,a5,542c <xprintf+0xe1c>
    4834:	02f8f5b3          	remu	a1,a7,a5
    4838:	02f8d533          	divu	a0,a7,a5
    483c:	4ebb70e3          	bgeu	s6,a1,551c <xprintf+0xf0c>
    4840:	00b705b3          	add	a1,a4,a1
    4844:	03058593          	addi	a1,a1,48
    4848:	02b10223          	sb	a1,36(sp)
    484c:	4ef8e2e3          	bltu	a7,a5,5530 <xprintf+0xf20>
    4850:	02f575b3          	remu	a1,a0,a5
    4854:	02f558b3          	divu	a7,a0,a5
    4858:	4ebb72e3          	bgeu	s6,a1,553c <xprintf+0xf2c>
    485c:	00b705b3          	add	a1,a4,a1
    4860:	03058593          	addi	a1,a1,48
    4864:	02b102a3          	sb	a1,37(sp)
    4868:	4ef564e3          	bltu	a0,a5,5550 <xprintf+0xf40>
    486c:	02f8f5b3          	remu	a1,a7,a5
    4870:	02f8d533          	divu	a0,a7,a5
    4874:	4ebb7ce3          	bgeu	s6,a1,556c <xprintf+0xf5c>
    4878:	00b705b3          	add	a1,a4,a1
    487c:	03058593          	addi	a1,a1,48
    4880:	02b10323          	sb	a1,38(sp)
    4884:	4ef8eee3          	bltu	a7,a5,5580 <xprintf+0xf70>
    4888:	02f575b3          	remu	a1,a0,a5
    488c:	02f558b3          	divu	a7,a0,a5
    4890:	50bb7ee3          	bgeu	s6,a1,55ac <xprintf+0xf9c>
    4894:	00b705b3          	add	a1,a4,a1
    4898:	03058593          	addi	a1,a1,48
    489c:	02b103a3          	sb	a1,39(sp)
    48a0:	52f560e3          	bltu	a0,a5,55c0 <xprintf+0xfb0>
    48a4:	02f8f5b3          	remu	a1,a7,a5
    48a8:	02f8d533          	divu	a0,a7,a5
    48ac:	52bb78e3          	bgeu	s6,a1,55dc <xprintf+0xfcc>
    48b0:	00b705b3          	add	a1,a4,a1
    48b4:	03058593          	addi	a1,a1,48
    48b8:	02b10423          	sb	a1,40(sp)
    48bc:	52f8eae3          	bltu	a7,a5,55f0 <xprintf+0xfe0>
    48c0:	02f575b3          	remu	a1,a0,a5
    48c4:	02f558b3          	divu	a7,a0,a5
    48c8:	54bb78e3          	bgeu	s6,a1,5618 <xprintf+0x1008>
    48cc:	00b705b3          	add	a1,a4,a1
    48d0:	03058593          	addi	a1,a1,48
    48d4:	02b104a3          	sb	a1,41(sp)
    48d8:	00f57463          	bgeu	a0,a5,48e0 <xprintf+0x2d0>
    48dc:	4a40106f          	j	5d80 <xprintf+0x1770>
    48e0:	02f8f5b3          	remu	a1,a7,a5
    48e4:	02f8d533          	divu	a0,a7,a5
    48e8:	54bb7ae3          	bgeu	s6,a1,563c <xprintf+0x102c>
    48ec:	00b705b3          	add	a1,a4,a1
    48f0:	03058593          	addi	a1,a1,48
    48f4:	02b10523          	sb	a1,42(sp)
    48f8:	00f8f463          	bgeu	a7,a5,4900 <xprintf+0x2f0>
    48fc:	4900106f          	j	5d8c <xprintf+0x177c>
    4900:	02f575b3          	remu	a1,a0,a5
    4904:	02f558b3          	divu	a7,a0,a5
    4908:	54bb7ce3          	bgeu	s6,a1,5660 <xprintf+0x1050>
    490c:	00b705b3          	add	a1,a4,a1
    4910:	03058593          	addi	a1,a1,48
    4914:	02b105a3          	sb	a1,43(sp)
    4918:	00f57463          	bgeu	a0,a5,4920 <xprintf+0x310>
    491c:	47c0106f          	j	5d98 <xprintf+0x1788>
    4920:	02f8f5b3          	remu	a1,a7,a5
    4924:	02f8d533          	divu	a0,a7,a5
    4928:	54bb72e3          	bgeu	s6,a1,566c <xprintf+0x105c>
    492c:	00b705b3          	add	a1,a4,a1
    4930:	03058593          	addi	a1,a1,48
    4934:	02b10623          	sb	a1,44(sp)
    4938:	00f8f463          	bgeu	a7,a5,4940 <xprintf+0x330>
    493c:	4680106f          	j	5da4 <xprintf+0x1794>
    4940:	02f575b3          	remu	a1,a0,a5
    4944:	02f558b3          	divu	a7,a0,a5
    4948:	58bb74e3          	bgeu	s6,a1,56d0 <xprintf+0x10c0>
    494c:	00b705b3          	add	a1,a4,a1
    4950:	03058593          	addi	a1,a1,48
    4954:	02b106a3          	sb	a1,45(sp)
    4958:	00f57463          	bgeu	a0,a5,4960 <xprintf+0x350>
    495c:	4780106f          	j	5dd4 <xprintf+0x17c4>
    4960:	02f8f5b3          	remu	a1,a7,a5
    4964:	02f8d533          	divu	a0,a7,a5
    4968:	7abb7ce3          	bgeu	s6,a1,5920 <xprintf+0x1310>
    496c:	00b705b3          	add	a1,a4,a1
    4970:	03058593          	addi	a1,a1,48
    4974:	02b10723          	sb	a1,46(sp)
    4978:	00f8f463          	bgeu	a7,a5,4980 <xprintf+0x370>
    497c:	4640106f          	j	5de0 <xprintf+0x17d0>
    4980:	02f577b3          	remu	a5,a0,a5
    4984:	00f70733          	add	a4,a4,a5
    4988:	00fb6663          	bltu	s6,a5,4994 <xprintf+0x384>
    498c:	01879713          	slli	a4,a5,0x18
    4990:	41875713          	srai	a4,a4,0x18
    4994:	03070713          	addi	a4,a4,48
    4998:	01000d93          	li	s11,16
    499c:	00f00793          	li	a5,15
    49a0:	02e107a3          	sb	a4,47(sp)
    49a4:	00080c63          	beqz	a6,49bc <xprintf+0x3ac>
    49a8:	03010713          	addi	a4,sp,48
    49ac:	01b70733          	add	a4,a4,s11
    49b0:	00278d93          	addi	s11,a5,2
    49b4:	02d00793          	li	a5,45
    49b8:	fef70823          	sb	a5,-16(a4)
    49bc:	00167513          	andi	a0,a2,1
    49c0:	fff50513          	addi	a0,a0,-1
    49c4:	83018c13          	addi	s8,gp,-2000 # 10000708 <outptr>
    49c8:	ff057513          	andi	a0,a0,-16
    49cc:	00267613          	andi	a2,a2,2
    49d0:	000c2783          	lw	a5,0(s8)
    49d4:	001d8c93          	addi	s9,s11,1
    49d8:	03050a13          	addi	s4,a0,48
    49dc:	00060463          	beqz	a2,49e4 <xprintf+0x3d4>
    49e0:	38c0106f          	j	5d6c <xprintf+0x175c>
    49e4:	002d8613          	addi	a2,s11,2
    49e8:	017de463          	bltu	s11,s7,49f0 <xprintf+0x3e0>
    49ec:	3880106f          	j	5d74 <xprintf+0x1764>
    49f0:	419b8d33          	sub	s10,s7,s9
    49f4:	001b8713          	addi	a4,s7,1
    49f8:	007d7d13          	andi	s10,s10,7
    49fc:	00e12223          	sw	a4,4(sp)
    4a00:	0e0d0463          	beqz	s10,4ae8 <xprintf+0x4d8>
    4a04:	240782e3          	beqz	a5,5448 <xprintf+0xe38>
    4a08:	00178613          	addi	a2,a5,1
    4a0c:	01478023          	sb	s4,0(a5)
    4a10:	00cc2023          	sw	a2,0(s8)
    4a14:	00060793          	mv	a5,a2
    4a18:	001c8613          	addi	a2,s9,1
    4a1c:	00100813          	li	a6,1
    4a20:	00060c93          	mv	s9,a2
    4a24:	0d0d0263          	beq	s10,a6,4ae8 <xprintf+0x4d8>
    4a28:	00200813          	li	a6,2
    4a2c:	0b0d0263          	beq	s10,a6,4ad0 <xprintf+0x4c0>
    4a30:	00300813          	li	a6,3
    4a34:	090d0263          	beq	s10,a6,4ab8 <xprintf+0x4a8>
    4a38:	00400813          	li	a6,4
    4a3c:	070d0263          	beq	s10,a6,4aa0 <xprintf+0x490>
    4a40:	00500813          	li	a6,5
    4a44:	050d0063          	beq	s10,a6,4a84 <xprintf+0x474>
    4a48:	00600813          	li	a6,6
    4a4c:	030d0063          	beq	s10,a6,4a6c <xprintf+0x45c>
    4a50:	00079463          	bnez	a5,4a58 <xprintf+0x448>
    4a54:	2300106f          	j	5c84 <xprintf+0x1674>
    4a58:	00178713          	addi	a4,a5,1
    4a5c:	01478023          	sb	s4,0(a5)
    4a60:	00ec2023          	sw	a4,0(s8)
    4a64:	00070793          	mv	a5,a4
    4a68:	00160c93          	addi	s9,a2,1
    4a6c:	7e0782e3          	beqz	a5,5a50 <xprintf+0x1440>
    4a70:	00178613          	addi	a2,a5,1
    4a74:	01478023          	sb	s4,0(a5)
    4a78:	00cc2023          	sw	a2,0(s8)
    4a7c:	00060793          	mv	a5,a2
    4a80:	001c8c93          	addi	s9,s9,1
    4a84:	00079463          	bnez	a5,4a8c <xprintf+0x47c>
    4a88:	0140106f          	j	5a9c <xprintf+0x148c>
    4a8c:	00178613          	addi	a2,a5,1
    4a90:	01478023          	sb	s4,0(a5)
    4a94:	00cc2023          	sw	a2,0(s8)
    4a98:	00060793          	mv	a5,a2
    4a9c:	001c8c93          	addi	s9,s9,1
    4aa0:	6a078ae3          	beqz	a5,5954 <xprintf+0x1344>
    4aa4:	00178613          	addi	a2,a5,1
    4aa8:	01478023          	sb	s4,0(a5)
    4aac:	00cc2023          	sw	a2,0(s8)
    4ab0:	00060793          	mv	a5,a2
    4ab4:	001c8c93          	addi	s9,s9,1
    4ab8:	3c0780e3          	beqz	a5,5678 <xprintf+0x1068>
    4abc:	00178613          	addi	a2,a5,1
    4ac0:	01478023          	sb	s4,0(a5)
    4ac4:	00cc2023          	sw	a2,0(s8)
    4ac8:	00060793          	mv	a5,a2
    4acc:	001c8c93          	addi	s9,s9,1
    4ad0:	320786e3          	beqz	a5,55fc <xprintf+0xfec>
    4ad4:	00178613          	addi	a2,a5,1
    4ad8:	01478023          	sb	s4,0(a5)
    4adc:	00cc2023          	sw	a2,0(s8)
    4ae0:	00060793          	mv	a5,a2
    4ae4:	001c8c93          	addi	s9,s9,1
    4ae8:	0a078863          	beqz	a5,4b98 <xprintf+0x588>
    4aec:	00178613          	addi	a2,a5,1
    4af0:	01478023          	sb	s4,0(a5)
    4af4:	00cc2023          	sw	a2,0(s8)
    4af8:	00060793          	mv	a5,a2
    4afc:	001c8d13          	addi	s10,s9,1
    4b00:	0b9b8a63          	beq	s7,s9,4bb4 <xprintf+0x5a4>
    4b04:	0c0786e3          	beqz	a5,53d0 <xprintf+0xdc0>
    4b08:	00178713          	addi	a4,a5,1
    4b0c:	01478023          	sb	s4,0(a5)
    4b10:	00ec2023          	sw	a4,0(s8)
    4b14:	00070793          	mv	a5,a4
    4b18:	0a0780e3          	beqz	a5,53b8 <xprintf+0xda8>
    4b1c:	00178713          	addi	a4,a5,1
    4b20:	01478023          	sb	s4,0(a5)
    4b24:	00ec2023          	sw	a4,0(s8)
    4b28:	00070793          	mv	a5,a4
    4b2c:	06078ae3          	beqz	a5,53a0 <xprintf+0xd90>
    4b30:	00178713          	addi	a4,a5,1
    4b34:	01478023          	sb	s4,0(a5)
    4b38:	00ec2023          	sw	a4,0(s8)
    4b3c:	00070793          	mv	a5,a4
    4b40:	040784e3          	beqz	a5,5388 <xprintf+0xd78>
    4b44:	00178713          	addi	a4,a5,1
    4b48:	01478023          	sb	s4,0(a5)
    4b4c:	00ec2023          	sw	a4,0(s8)
    4b50:	00070793          	mv	a5,a4
    4b54:	00078ee3          	beqz	a5,5370 <xprintf+0xd60>
    4b58:	00178713          	addi	a4,a5,1
    4b5c:	01478023          	sb	s4,0(a5)
    4b60:	00ec2023          	sw	a4,0(s8)
    4b64:	00070793          	mv	a5,a4
    4b68:	7e078863          	beqz	a5,5358 <xprintf+0xd48>
    4b6c:	00178713          	addi	a4,a5,1
    4b70:	01478023          	sb	s4,0(a5)
    4b74:	00ec2023          	sw	a4,0(s8)
    4b78:	00070793          	mv	a5,a4
    4b7c:	7c078063          	beqz	a5,533c <xprintf+0xd2c>
    4b80:	00178713          	addi	a4,a5,1
    4b84:	01478023          	sb	s4,0(a5)
    4b88:	00ec2023          	sw	a4,0(s8)
    4b8c:	00070793          	mv	a5,a4
    4b90:	007d0c93          	addi	s9,s10,7
    4b94:	f4079ce3          	bnez	a5,4aec <xprintf+0x4dc>
    4b98:	8341a603          	lw	a2,-1996(gp) # 1000070c <xfunc_out>
    4b9c:	f60600e3          	beqz	a2,4afc <xprintf+0x4ec>
    4ba0:	000a0513          	mv	a0,s4
    4ba4:	000600e7          	jalr	a2
    4ba8:	000c2783          	lw	a5,0(s8)
    4bac:	001c8d13          	addi	s10,s9,1
    4bb0:	f59b9ae3          	bne	s7,s9,4b04 <xprintf+0x4f4>
    4bb4:	002b8c93          	addi	s9,s7,2
    4bb8:	fffd8d13          	addi	s10,s11,-1
    4bbc:	03010713          	addi	a4,sp,48
    4bc0:	01a70633          	add	a2,a4,s10
    4bc4:	ff064503          	lbu	a0,-16(a2)
    4bc8:	020780e3          	beqz	a5,53e8 <xprintf+0xdd8>
    4bcc:	00178613          	addi	a2,a5,1
    4bd0:	00cc2023          	sw	a2,0(s8)
    4bd4:	00a78023          	sb	a0,0(a5)
    4bd8:	240d0a63          	beqz	s10,4e2c <xprintf+0x81c>
    4bdc:	000c2783          	lw	a5,0(s8)
    4be0:	ffed8d13          	addi	s10,s11,-2
    4be4:	03010713          	addi	a4,sp,48
    4be8:	01a70633          	add	a2,a4,s10
    4bec:	ff064503          	lbu	a0,-16(a2)
    4bf0:	080782e3          	beqz	a5,5474 <xprintf+0xe64>
    4bf4:	00178613          	addi	a2,a5,1
    4bf8:	00cc2023          	sw	a2,0(s8)
    4bfc:	00a78023          	sb	a0,0(a5)
    4c00:	220d0663          	beqz	s10,4e2c <xprintf+0x81c>
    4c04:	000c2783          	lw	a5,0(s8)
    4c08:	ffdd8d13          	addi	s10,s11,-3
    4c0c:	03010713          	addi	a4,sp,48
    4c10:	01a70633          	add	a2,a4,s10
    4c14:	ff064503          	lbu	a0,-16(a2)
    4c18:	140782e3          	beqz	a5,555c <xprintf+0xf4c>
    4c1c:	00178613          	addi	a2,a5,1
    4c20:	00cc2023          	sw	a2,0(s8)
    4c24:	00a78023          	sb	a0,0(a5)
    4c28:	200d0263          	beqz	s10,4e2c <xprintf+0x81c>
    4c2c:	000c2783          	lw	a5,0(s8)
    4c30:	ffcd8d13          	addi	s10,s11,-4
    4c34:	03010713          	addi	a4,sp,48
    4c38:	01a70633          	add	a2,a4,s10
    4c3c:	ff064503          	lbu	a0,-16(a2)
    4c40:	180786e3          	beqz	a5,55cc <xprintf+0xfbc>
    4c44:	00178613          	addi	a2,a5,1
    4c48:	00cc2023          	sw	a2,0(s8)
    4c4c:	00a78023          	sb	a0,0(a5)
    4c50:	1c0d0e63          	beqz	s10,4e2c <xprintf+0x81c>
    4c54:	000c2783          	lw	a5,0(s8)
    4c58:	ffbd8d13          	addi	s10,s11,-5
    4c5c:	03010713          	addi	a4,sp,48
    4c60:	01a70633          	add	a2,a4,s10
    4c64:	ff064503          	lbu	a0,-16(a2)
    4c68:	1c0782e3          	beqz	a5,562c <xprintf+0x101c>
    4c6c:	00178613          	addi	a2,a5,1
    4c70:	00cc2023          	sw	a2,0(s8)
    4c74:	00a78023          	sb	a0,0(a5)
    4c78:	1a0d0a63          	beqz	s10,4e2c <xprintf+0x81c>
    4c7c:	000c2783          	lw	a5,0(s8)
    4c80:	ffad8d13          	addi	s10,s11,-6
    4c84:	03010713          	addi	a4,sp,48
    4c88:	01a70633          	add	a2,a4,s10
    4c8c:	ff064503          	lbu	a0,-16(a2)
    4c90:	200782e3          	beqz	a5,5694 <xprintf+0x1084>
    4c94:	00178613          	addi	a2,a5,1
    4c98:	00cc2023          	sw	a2,0(s8)
    4c9c:	00a78023          	sb	a0,0(a5)
    4ca0:	180d0663          	beqz	s10,4e2c <xprintf+0x81c>
    4ca4:	000c2783          	lw	a5,0(s8)
    4ca8:	ff9d8d13          	addi	s10,s11,-7
    4cac:	03010713          	addi	a4,sp,48
    4cb0:	01a70633          	add	a2,a4,s10
    4cb4:	ff064503          	lbu	a0,-16(a2)
    4cb8:	46078ae3          	beqz	a5,592c <xprintf+0x131c>
    4cbc:	00178613          	addi	a2,a5,1
    4cc0:	00cc2023          	sw	a2,0(s8)
    4cc4:	00a78023          	sb	a0,0(a5)
    4cc8:	160d0263          	beqz	s10,4e2c <xprintf+0x81c>
    4ccc:	000c2783          	lw	a5,0(s8)
    4cd0:	ff8d8d13          	addi	s10,s11,-8
    4cd4:	03010713          	addi	a4,sp,48
    4cd8:	01a70633          	add	a2,a4,s10
    4cdc:	ff064503          	lbu	a0,-16(a2)
    4ce0:	480788e3          	beqz	a5,5970 <xprintf+0x1360>
    4ce4:	00178613          	addi	a2,a5,1
    4ce8:	00cc2023          	sw	a2,0(s8)
    4cec:	00a78023          	sb	a0,0(a5)
    4cf0:	120d0e63          	beqz	s10,4e2c <xprintf+0x81c>
    4cf4:	000c2783          	lw	a5,0(s8)
    4cf8:	ff7d8d13          	addi	s10,s11,-9
    4cfc:	03010713          	addi	a4,sp,48
    4d00:	01a70633          	add	a2,a4,s10
    4d04:	ff064503          	lbu	a0,-16(a2)
    4d08:	480788e3          	beqz	a5,5998 <xprintf+0x1388>
    4d0c:	00178613          	addi	a2,a5,1
    4d10:	00cc2023          	sw	a2,0(s8)
    4d14:	00a78023          	sb	a0,0(a5)
    4d18:	100d0a63          	beqz	s10,4e2c <xprintf+0x81c>
    4d1c:	000c2783          	lw	a5,0(s8)
    4d20:	ff6d8d13          	addi	s10,s11,-10
    4d24:	03010713          	addi	a4,sp,48
    4d28:	01a70633          	add	a2,a4,s10
    4d2c:	ff064503          	lbu	a0,-16(a2)
    4d30:	54078ee3          	beqz	a5,5a8c <xprintf+0x147c>
    4d34:	00178613          	addi	a2,a5,1
    4d38:	00cc2023          	sw	a2,0(s8)
    4d3c:	00a78023          	sb	a0,0(a5)
    4d40:	0e0d0663          	beqz	s10,4e2c <xprintf+0x81c>
    4d44:	000c2783          	lw	a5,0(s8)
    4d48:	ff5d8d13          	addi	s10,s11,-11
    4d4c:	03010713          	addi	a4,sp,48
    4d50:	01a70633          	add	a2,a4,s10
    4d54:	ff064503          	lbu	a0,-16(a2)
    4d58:	440788e3          	beqz	a5,59a8 <xprintf+0x1398>
    4d5c:	00178613          	addi	a2,a5,1
    4d60:	00cc2023          	sw	a2,0(s8)
    4d64:	00a78023          	sb	a0,0(a5)
    4d68:	0c0d0263          	beqz	s10,4e2c <xprintf+0x81c>
    4d6c:	000c2783          	lw	a5,0(s8)
    4d70:	ff4d8d13          	addi	s10,s11,-12
    4d74:	03010713          	addi	a4,sp,48
    4d78:	01a70633          	add	a2,a4,s10
    4d7c:	ff064503          	lbu	a0,-16(a2)
    4d80:	52078ee3          	beqz	a5,5abc <xprintf+0x14ac>
    4d84:	00178613          	addi	a2,a5,1
    4d88:	00cc2023          	sw	a2,0(s8)
    4d8c:	00a78023          	sb	a0,0(a5)
    4d90:	080d0e63          	beqz	s10,4e2c <xprintf+0x81c>
    4d94:	000c2783          	lw	a5,0(s8)
    4d98:	ff3d8d13          	addi	s10,s11,-13
    4d9c:	03010713          	addi	a4,sp,48
    4da0:	01a70633          	add	a2,a4,s10
    4da4:	ff064503          	lbu	a0,-16(a2)
    4da8:	520782e3          	beqz	a5,5acc <xprintf+0x14bc>
    4dac:	00178613          	addi	a2,a5,1
    4db0:	00cc2023          	sw	a2,0(s8)
    4db4:	00a78023          	sb	a0,0(a5)
    4db8:	060d0a63          	beqz	s10,4e2c <xprintf+0x81c>
    4dbc:	000c2783          	lw	a5,0(s8)
    4dc0:	ff2d8d13          	addi	s10,s11,-14
    4dc4:	03010713          	addi	a4,sp,48
    4dc8:	01a70633          	add	a2,a4,s10
    4dcc:	ff064503          	lbu	a0,-16(a2)
    4dd0:	640786e3          	beqz	a5,5c1c <xprintf+0x160c>
    4dd4:	00178613          	addi	a2,a5,1
    4dd8:	00cc2023          	sw	a2,0(s8)
    4ddc:	00a78023          	sb	a0,0(a5)
    4de0:	040d0663          	beqz	s10,4e2c <xprintf+0x81c>
    4de4:	000c2783          	lw	a5,0(s8)
    4de8:	ff1d8d13          	addi	s10,s11,-15
    4dec:	03010713          	addi	a4,sp,48
    4df0:	01a70633          	add	a2,a4,s10
    4df4:	ff064503          	lbu	a0,-16(a2)
    4df8:	62078ae3          	beqz	a5,5c2c <xprintf+0x161c>
    4dfc:	00178613          	addi	a2,a5,1
    4e00:	00cc2023          	sw	a2,0(s8)
    4e04:	00a78023          	sb	a0,0(a5)
    4e08:	020d0263          	beqz	s10,4e2c <xprintf+0x81c>
    4e0c:	000c2783          	lw	a5,0(s8)
    4e10:	03010713          	addi	a4,sp,48
    4e14:	01b705b3          	add	a1,a4,s11
    4e18:	fe05c503          	lbu	a0,-32(a1)
    4e1c:	620780e3          	beqz	a5,5c3c <xprintf+0x162c>
    4e20:	00178613          	addi	a2,a5,1
    4e24:	00cc2023          	sw	a2,0(s8)
    4e28:	00a78023          	sb	a0,0(a5)
    4e2c:	00412783          	lw	a5,4(sp)
    4e30:	5377fee3          	bgeu	a5,s7,5b6c <xprintf+0x155c>
    4e34:	419b8d33          	sub	s10,s7,s9
    4e38:	007d7d13          	andi	s10,s10,7
    4e3c:	100d0063          	beqz	s10,4f3c <xprintf+0x92c>
    4e40:	000c2783          	lw	a5,0(s8)
    4e44:	60078e63          	beqz	a5,5460 <xprintf+0xe50>
    4e48:	00178613          	addi	a2,a5,1
    4e4c:	00cc2023          	sw	a2,0(s8)
    4e50:	02000613          	li	a2,32
    4e54:	00c78023          	sb	a2,0(a5)
    4e58:	001c8d93          	addi	s11,s9,1
    4e5c:	1d7cf663          	bgeu	s9,s7,5028 <xprintf+0xa18>
    4e60:	00100793          	li	a5,1
    4e64:	000d8c93          	mv	s9,s11
    4e68:	0cfd0a63          	beq	s10,a5,4f3c <xprintf+0x92c>
    4e6c:	00200793          	li	a5,2
    4e70:	0afd0863          	beq	s10,a5,4f20 <xprintf+0x910>
    4e74:	00300793          	li	a5,3
    4e78:	08fd0663          	beq	s10,a5,4f04 <xprintf+0x8f4>
    4e7c:	00400793          	li	a5,4
    4e80:	06fd0463          	beq	s10,a5,4ee8 <xprintf+0x8d8>
    4e84:	00500793          	li	a5,5
    4e88:	04fd0263          	beq	s10,a5,4ecc <xprintf+0x8bc>
    4e8c:	00600793          	li	a5,6
    4e90:	02fd0063          	beq	s10,a5,4eb0 <xprintf+0x8a0>
    4e94:	000c2783          	lw	a5,0(s8)
    4e98:	62078ae3          	beqz	a5,5ccc <xprintf+0x16bc>
    4e9c:	00178713          	addi	a4,a5,1
    4ea0:	00ec2023          	sw	a4,0(s8)
    4ea4:	02000713          	li	a4,32
    4ea8:	00e78023          	sb	a4,0(a5)
    4eac:	001d8c93          	addi	s9,s11,1
    4eb0:	000c2783          	lw	a5,0(s8)
    4eb4:	3a078ce3          	beqz	a5,5a6c <xprintf+0x145c>
    4eb8:	00178613          	addi	a2,a5,1
    4ebc:	00cc2023          	sw	a2,0(s8)
    4ec0:	02000613          	li	a2,32
    4ec4:	00c78023          	sb	a2,0(a5)
    4ec8:	001c8c93          	addi	s9,s9,1
    4ecc:	000c2783          	lw	a5,0(s8)
    4ed0:	2e0784e3          	beqz	a5,59b8 <xprintf+0x13a8>
    4ed4:	00178613          	addi	a2,a5,1
    4ed8:	00cc2023          	sw	a2,0(s8)
    4edc:	02000613          	li	a2,32
    4ee0:	00c78023          	sb	a2,0(a5)
    4ee4:	001c8c93          	addi	s9,s9,1
    4ee8:	000c2783          	lw	a5,0(s8)
    4eec:	28078ae3          	beqz	a5,5980 <xprintf+0x1370>
    4ef0:	00178613          	addi	a2,a5,1
    4ef4:	00cc2023          	sw	a2,0(s8)
    4ef8:	02000613          	li	a2,32
    4efc:	00c78023          	sb	a2,0(a5)
    4f00:	001c8c93          	addi	s9,s9,1
    4f04:	000c2783          	lw	a5,0(s8)
    4f08:	22078ae3          	beqz	a5,593c <xprintf+0x132c>
    4f0c:	00178613          	addi	a2,a5,1
    4f10:	00cc2023          	sw	a2,0(s8)
    4f14:	02000613          	li	a2,32
    4f18:	00c78023          	sb	a2,0(a5)
    4f1c:	001c8c93          	addi	s9,s9,1
    4f20:	000c2783          	lw	a5,0(s8)
    4f24:	72078263          	beqz	a5,5648 <xprintf+0x1038>
    4f28:	00178613          	addi	a2,a5,1
    4f2c:	00cc2023          	sw	a2,0(s8)
    4f30:	02000613          	li	a2,32
    4f34:	00c78023          	sb	a2,0(a5)
    4f38:	001c8c93          	addi	s9,s9,1
    4f3c:	000c2783          	lw	a5,0(s8)
    4f40:	0c078863          	beqz	a5,5010 <xprintf+0xa00>
    4f44:	00178613          	addi	a2,a5,1
    4f48:	00cc2023          	sw	a2,0(s8)
    4f4c:	02000613          	li	a2,32
    4f50:	00c78023          	sb	a2,0(a5)
    4f54:	001c8d13          	addi	s10,s9,1
    4f58:	0d7cf863          	bgeu	s9,s7,5028 <xprintf+0xa18>
    4f5c:	000c2783          	lw	a5,0(s8)
    4f60:	5a078463          	beqz	a5,5508 <xprintf+0xef8>
    4f64:	00178713          	addi	a4,a5,1
    4f68:	00ec2023          	sw	a4,0(s8)
    4f6c:	02000713          	li	a4,32
    4f70:	00e78023          	sb	a4,0(a5)
    4f74:	000c2783          	lw	a5,0(s8)
    4f78:	56078e63          	beqz	a5,54f4 <xprintf+0xee4>
    4f7c:	00178713          	addi	a4,a5,1
    4f80:	00ec2023          	sw	a4,0(s8)
    4f84:	02000713          	li	a4,32
    4f88:	00e78023          	sb	a4,0(a5)
    4f8c:	000c2783          	lw	a5,0(s8)
    4f90:	54078863          	beqz	a5,54e0 <xprintf+0xed0>
    4f94:	00178713          	addi	a4,a5,1
    4f98:	00ec2023          	sw	a4,0(s8)
    4f9c:	02000713          	li	a4,32
    4fa0:	00e78023          	sb	a4,0(a5)
    4fa4:	000c2783          	lw	a5,0(s8)
    4fa8:	52078263          	beqz	a5,54cc <xprintf+0xebc>
    4fac:	00178713          	addi	a4,a5,1
    4fb0:	00ec2023          	sw	a4,0(s8)
    4fb4:	02000713          	li	a4,32
    4fb8:	00e78023          	sb	a4,0(a5)
    4fbc:	000c2783          	lw	a5,0(s8)
    4fc0:	4c078263          	beqz	a5,5484 <xprintf+0xe74>
    4fc4:	00178713          	addi	a4,a5,1
    4fc8:	00ec2023          	sw	a4,0(s8)
    4fcc:	02000713          	li	a4,32
    4fd0:	00e78023          	sb	a4,0(a5)
    4fd4:	000c2783          	lw	a5,0(s8)
    4fd8:	4c078263          	beqz	a5,549c <xprintf+0xe8c>
    4fdc:	00178713          	addi	a4,a5,1
    4fe0:	00ec2023          	sw	a4,0(s8)
    4fe4:	02000713          	li	a4,32
    4fe8:	00e78023          	sb	a4,0(a5)
    4fec:	000c2783          	lw	a5,0(s8)
    4ff0:	4c078263          	beqz	a5,54b4 <xprintf+0xea4>
    4ff4:	00178713          	addi	a4,a5,1
    4ff8:	00ec2023          	sw	a4,0(s8)
    4ffc:	02000713          	li	a4,32
    5000:	00e78023          	sb	a4,0(a5)
    5004:	007d0c93          	addi	s9,s10,7
    5008:	000c2783          	lw	a5,0(s8)
    500c:	f2079ce3          	bnez	a5,4f44 <xprintf+0x934>
    5010:	8341a783          	lw	a5,-1996(gp) # 1000070c <xfunc_out>
    5014:	f40780e3          	beqz	a5,4f54 <xprintf+0x944>
    5018:	02000513          	li	a0,32
    501c:	000780e7          	jalr	a5
    5020:	001c8d13          	addi	s10,s9,1
    5024:	f37cece3          	bltu	s9,s7,4f5c <xprintf+0x94c>
    5028:	00812c03          	lw	s8,8(sp)
    502c:	e7cff06f          	j	46a8 <xprintf+0x98>
    5030:	00044503          	lbu	a0,0(s0)
    5034:	00466613          	ori	a2,a2,4
    5038:	00140413          	addi	s0,s0,1
    503c:	f14ff06f          	j	4750 <xprintf+0x140>
    5040:	05500793          	li	a5,85
    5044:	5ef70063          	beq	a4,a5,5624 <xprintf+0x1014>
    5048:	05800593          	li	a1,88
    504c:	01000793          	li	a5,16
    5050:	f2b70c63          	beq	a4,a1,4788 <xprintf+0x178>
    5054:	05300793          	li	a5,83
    5058:	22f71a63          	bne	a4,a5,528c <xprintf+0xc7c>
    505c:	000c2c83          	lw	s9,0(s8)
    5060:	004c0a13          	addi	s4,s8,4
    5064:	000cc503          	lbu	a0,0(s9)
    5068:	540504e3          	beqz	a0,5db0 <xprintf+0x17a0>
    506c:	00000793          	li	a5,0
    5070:	00078593          	mv	a1,a5
    5074:	00178793          	addi	a5,a5,1
    5078:	00fc8733          	add	a4,s9,a5
    507c:	00074703          	lbu	a4,0(a4)
    5080:	00258c13          	addi	s8,a1,2
    5084:	fe0716e3          	bnez	a4,5070 <xprintf+0xa60>
    5088:	00267613          	andi	a2,a2,2
    508c:	5c0618e3          	bnez	a2,5e5c <xprintf+0x184c>
    5090:	001c0d93          	addi	s11,s8,1
    5094:	6777f263          	bgeu	a5,s7,56f8 <xprintf+0x10e8>
    5098:	418b8d33          	sub	s10,s7,s8
    509c:	007d7d13          	andi	s10,s10,7
    50a0:	000c0793          	mv	a5,s8
    50a4:	83018d93          	addi	s11,gp,-2000 # 10000708 <outptr>
    50a8:	100d0063          	beqz	s10,51a8 <xprintf+0xb98>
    50ac:	000da783          	lw	a5,0(s11)
    50b0:	16078ce3          	beqz	a5,5a28 <xprintf+0x1418>
    50b4:	00178713          	addi	a4,a5,1
    50b8:	00eda023          	sw	a4,0(s11)
    50bc:	02000713          	li	a4,32
    50c0:	00e78023          	sb	a4,0(a5)
    50c4:	001c0713          	addi	a4,s8,1
    50c8:	617c7a63          	bgeu	s8,s7,56dc <xprintf+0x10cc>
    50cc:	00100613          	li	a2,1
    50d0:	00070793          	mv	a5,a4
    50d4:	0ccd0a63          	beq	s10,a2,51a8 <xprintf+0xb98>
    50d8:	00200613          	li	a2,2
    50dc:	0acd0863          	beq	s10,a2,518c <xprintf+0xb7c>
    50e0:	00300613          	li	a2,3
    50e4:	08cd0663          	beq	s10,a2,5170 <xprintf+0xb60>
    50e8:	00400613          	li	a2,4
    50ec:	06cd0463          	beq	s10,a2,5154 <xprintf+0xb44>
    50f0:	00500613          	li	a2,5
    50f4:	04cd0263          	beq	s10,a2,5138 <xprintf+0xb28>
    50f8:	00600613          	li	a2,6
    50fc:	02cd0063          	beq	s10,a2,511c <xprintf+0xb0c>
    5100:	000da783          	lw	a5,0(s11)
    5104:	52078ce3          	beqz	a5,5e3c <xprintf+0x182c>
    5108:	00178613          	addi	a2,a5,1
    510c:	00cda023          	sw	a2,0(s11)
    5110:	02000613          	li	a2,32
    5114:	00c78023          	sb	a2,0(a5)
    5118:	00170793          	addi	a5,a4,1
    511c:	000da703          	lw	a4,0(s11)
    5120:	4c0706e3          	beqz	a4,5dec <xprintf+0x17dc>
    5124:	00170613          	addi	a2,a4,1
    5128:	00cda023          	sw	a2,0(s11)
    512c:	02000613          	li	a2,32
    5130:	00c70023          	sb	a2,0(a4)
    5134:	00178793          	addi	a5,a5,1
    5138:	000da703          	lw	a4,0(s11)
    513c:	3c0700e3          	beqz	a4,5cfc <xprintf+0x16ec>
    5140:	00170613          	addi	a2,a4,1
    5144:	00cda023          	sw	a2,0(s11)
    5148:	02000613          	li	a2,32
    514c:	00c70023          	sb	a2,0(a4)
    5150:	00178793          	addi	a5,a5,1
    5154:	000da703          	lw	a4,0(s11)
    5158:	34070ae3          	beqz	a4,5cac <xprintf+0x169c>
    515c:	00170613          	addi	a2,a4,1
    5160:	00cda023          	sw	a2,0(s11)
    5164:	02000613          	li	a2,32
    5168:	00c70023          	sb	a2,0(a4)
    516c:	00178793          	addi	a5,a5,1
    5170:	000da703          	lw	a4,0(s11)
    5174:	3c070ce3          	beqz	a4,5d4c <xprintf+0x173c>
    5178:	00170613          	addi	a2,a4,1
    517c:	00cda023          	sw	a2,0(s11)
    5180:	02000613          	li	a2,32
    5184:	00c70023          	sb	a2,0(a4)
    5188:	00178793          	addi	a5,a5,1
    518c:	000da703          	lw	a4,0(s11)
    5190:	2a070ee3          	beqz	a4,5c4c <xprintf+0x163c>
    5194:	00170613          	addi	a2,a4,1
    5198:	00cda023          	sw	a2,0(s11)
    519c:	02000613          	li	a2,32
    51a0:	00c70023          	sb	a2,0(a4)
    51a4:	00178793          	addi	a5,a5,1
    51a8:	000da703          	lw	a4,0(s11)
    51ac:	020702e3          	beqz	a4,59d0 <xprintf+0x13c0>
    51b0:	00170613          	addi	a2,a4,1
    51b4:	00cda023          	sw	a2,0(s11)
    51b8:	02000613          	li	a2,32
    51bc:	00c70023          	sb	a2,0(a4)
    51c0:	00178d13          	addi	s10,a5,1
    51c4:	5177fc63          	bgeu	a5,s7,56dc <xprintf+0x10cc>
    51c8:	000da783          	lw	a5,0(s11)
    51cc:	180786e3          	beqz	a5,5b58 <xprintf+0x1548>
    51d0:	00178713          	addi	a4,a5,1
    51d4:	00eda023          	sw	a4,0(s11)
    51d8:	02000713          	li	a4,32
    51dc:	00e78023          	sb	a4,0(a5)
    51e0:	000da783          	lw	a5,0(s11)
    51e4:	160780e3          	beqz	a5,5b44 <xprintf+0x1534>
    51e8:	00178713          	addi	a4,a5,1
    51ec:	00eda023          	sw	a4,0(s11)
    51f0:	02000713          	li	a4,32
    51f4:	00e78023          	sb	a4,0(a5)
    51f8:	000da783          	lw	a5,0(s11)
    51fc:	12078ae3          	beqz	a5,5b30 <xprintf+0x1520>
    5200:	00178713          	addi	a4,a5,1
    5204:	00eda023          	sw	a4,0(s11)
    5208:	02000713          	li	a4,32
    520c:	00e78023          	sb	a4,0(a5)
    5210:	000da783          	lw	a5,0(s11)
    5214:	100784e3          	beqz	a5,5b1c <xprintf+0x150c>
    5218:	00178713          	addi	a4,a5,1
    521c:	00eda023          	sw	a4,0(s11)
    5220:	02000713          	li	a4,32
    5224:	00e78023          	sb	a4,0(a5)
    5228:	000da783          	lw	a5,0(s11)
    522c:	0c078ee3          	beqz	a5,5b08 <xprintf+0x14f8>
    5230:	00178713          	addi	a4,a5,1
    5234:	00eda023          	sw	a4,0(s11)
    5238:	02000713          	li	a4,32
    523c:	00e78023          	sb	a4,0(a5)
    5240:	000da783          	lw	a5,0(s11)
    5244:	0a0788e3          	beqz	a5,5af4 <xprintf+0x14e4>
    5248:	00178713          	addi	a4,a5,1
    524c:	00eda023          	sw	a4,0(s11)
    5250:	02000713          	li	a4,32
    5254:	00e78023          	sb	a4,0(a5)
    5258:	000da783          	lw	a5,0(s11)
    525c:	080780e3          	beqz	a5,5adc <xprintf+0x14cc>
    5260:	00178713          	addi	a4,a5,1
    5264:	00eda023          	sw	a4,0(s11)
    5268:	02000713          	li	a4,32
    526c:	00e78023          	sb	a4,0(a5)
    5270:	007d0793          	addi	a5,s10,7
    5274:	000da703          	lw	a4,0(s11)
    5278:	f2071ce3          	bnez	a4,51b0 <xprintf+0xba0>
    527c:	7540006f          	j	59d0 <xprintf+0x13c0>
    5280:	04200593          	li	a1,66
    5284:	00200793          	li	a5,2
    5288:	d0b70063          	beq	a4,a1,4788 <xprintf+0x178>
    528c:	83018713          	addi	a4,gp,-2000 # 10000708 <outptr>
    5290:	00072783          	lw	a5,0(a4)
    5294:	74078c63          	beqz	a5,59ec <xprintf+0x13dc>
    5298:	00178613          	addi	a2,a5,1
    529c:	00c72023          	sw	a2,0(a4)
    52a0:	00a78023          	sb	a0,0(a5)
    52a4:	c04ff06f          	j	46a8 <xprintf+0x98>
    52a8:	8341a783          	lw	a5,-1996(gp) # 1000070c <xfunc_out>
    52ac:	00070413          	mv	s0,a4
    52b0:	be078c63          	beqz	a5,46a8 <xprintf+0x98>
    52b4:	000780e7          	jalr	a5
    52b8:	bf0ff06f          	j	46a8 <xprintf+0x98>
    52bc:	00244503          	lbu	a0,2(s0)
    52c0:	00100613          	li	a2,1
    52c4:	00340413          	addi	s0,s0,3
    52c8:	fd050793          	addi	a5,a0,-48
    52cc:	0ff7f793          	zext.b	a5,a5
    52d0:	c4fb7463          	bgeu	s6,a5,4718 <xprintf+0x108>
    52d4:	0df57793          	andi	a5,a0,223
    52d8:	04c00713          	li	a4,76
    52dc:	00000b93          	li	s7,0
    52e0:	c6e79863          	bne	a5,a4,4750 <xprintf+0x140>
    52e4:	d4dff06f          	j	5030 <xprintf+0xa20>
    52e8:	04400593          	li	a1,68
    52ec:	2ab70063          	beq	a4,a1,558c <xprintf+0xf7c>
    52f0:	000c2883          	lw	a7,0(s8)
    52f4:	00000813          	li	a6,0
    52f8:	cb4ff06f          	j	47ac <xprintf+0x19c>
    52fc:	01859593          	slli	a1,a1,0x18
    5300:	4185d593          	srai	a1,a1,0x18
    5304:	03058593          	addi	a1,a1,48
    5308:	02b10023          	sb	a1,32(sp)
    530c:	ccf8fa63          	bgeu	a7,a5,47e0 <xprintf+0x1d0>
    5310:	00100d93          	li	s11,1
    5314:	00000793          	li	a5,0
    5318:	e8cff06f          	j	49a4 <xprintf+0x394>
    531c:	01859593          	slli	a1,a1,0x18
    5320:	4185d593          	srai	a1,a1,0x18
    5324:	03058593          	addi	a1,a1,48
    5328:	02b100a3          	sb	a1,33(sp)
    532c:	ccf57863          	bgeu	a0,a5,47fc <xprintf+0x1ec>
    5330:	00200d93          	li	s11,2
    5334:	00100793          	li	a5,1
    5338:	e6cff06f          	j	49a4 <xprintf+0x394>
    533c:	8341a703          	lw	a4,-1996(gp) # 1000070c <xfunc_out>
    5340:	840708e3          	beqz	a4,4b90 <xprintf+0x580>
    5344:	000a0513          	mv	a0,s4
    5348:	000700e7          	jalr	a4
    534c:	000c2783          	lw	a5,0(s8)
    5350:	007d0c93          	addi	s9,s10,7
    5354:	841ff06f          	j	4b94 <xprintf+0x584>
    5358:	8341a703          	lw	a4,-1996(gp) # 1000070c <xfunc_out>
    535c:	fe0700e3          	beqz	a4,533c <xprintf+0xd2c>
    5360:	000a0513          	mv	a0,s4
    5364:	000700e7          	jalr	a4
    5368:	000c2783          	lw	a5,0(s8)
    536c:	811ff06f          	j	4b7c <xprintf+0x56c>
    5370:	8341a703          	lw	a4,-1996(gp) # 1000070c <xfunc_out>
    5374:	fe0702e3          	beqz	a4,5358 <xprintf+0xd48>
    5378:	000a0513          	mv	a0,s4
    537c:	000700e7          	jalr	a4
    5380:	000c2783          	lw	a5,0(s8)
    5384:	fe4ff06f          	j	4b68 <xprintf+0x558>
    5388:	8341a703          	lw	a4,-1996(gp) # 1000070c <xfunc_out>
    538c:	fe0702e3          	beqz	a4,5370 <xprintf+0xd60>
    5390:	000a0513          	mv	a0,s4
    5394:	000700e7          	jalr	a4
    5398:	000c2783          	lw	a5,0(s8)
    539c:	fb8ff06f          	j	4b54 <xprintf+0x544>
    53a0:	8341a703          	lw	a4,-1996(gp) # 1000070c <xfunc_out>
    53a4:	fe0702e3          	beqz	a4,5388 <xprintf+0xd78>
    53a8:	000a0513          	mv	a0,s4
    53ac:	000700e7          	jalr	a4
    53b0:	000c2783          	lw	a5,0(s8)
    53b4:	f8cff06f          	j	4b40 <xprintf+0x530>
    53b8:	8341a703          	lw	a4,-1996(gp) # 1000070c <xfunc_out>
    53bc:	fe0702e3          	beqz	a4,53a0 <xprintf+0xd90>
    53c0:	000a0513          	mv	a0,s4
    53c4:	000700e7          	jalr	a4
    53c8:	000c2783          	lw	a5,0(s8)
    53cc:	f60ff06f          	j	4b2c <xprintf+0x51c>
    53d0:	8341a703          	lw	a4,-1996(gp) # 1000070c <xfunc_out>
    53d4:	fe0702e3          	beqz	a4,53b8 <xprintf+0xda8>
    53d8:	000a0513          	mv	a0,s4
    53dc:	000700e7          	jalr	a4
    53e0:	000c2783          	lw	a5,0(s8)
    53e4:	f34ff06f          	j	4b18 <xprintf+0x508>
    53e8:	8341a783          	lw	a5,-1996(gp) # 1000070c <xfunc_out>
    53ec:	fe078663          	beqz	a5,4bd8 <xprintf+0x5c8>
    53f0:	000780e7          	jalr	a5
    53f4:	fe4ff06f          	j	4bd8 <xprintf+0x5c8>
    53f8:	01859593          	slli	a1,a1,0x18
    53fc:	4185d593          	srai	a1,a1,0x18
    5400:	03058593          	addi	a1,a1,48
    5404:	02b10123          	sb	a1,34(sp)
    5408:	c0f8f863          	bgeu	a7,a5,4818 <xprintf+0x208>
    540c:	00300d93          	li	s11,3
    5410:	00200793          	li	a5,2
    5414:	d90ff06f          	j	49a4 <xprintf+0x394>
    5418:	01859593          	slli	a1,a1,0x18
    541c:	4185d593          	srai	a1,a1,0x18
    5420:	03058593          	addi	a1,a1,48
    5424:	02b101a3          	sb	a1,35(sp)
    5428:	c0f57663          	bgeu	a0,a5,4834 <xprintf+0x224>
    542c:	00400d93          	li	s11,4
    5430:	00300793          	li	a5,3
    5434:	d70ff06f          	j	49a4 <xprintf+0x394>
    5438:	00244503          	lbu	a0,2(s0)
    543c:	00200613          	li	a2,2
    5440:	00340413          	addi	s0,s0,3
    5444:	ac8ff06f          	j	470c <xprintf+0xfc>
    5448:	8341a603          	lw	a2,-1996(gp) # 1000070c <xfunc_out>
    544c:	dc060663          	beqz	a2,4a18 <xprintf+0x408>
    5450:	000a0513          	mv	a0,s4
    5454:	000600e7          	jalr	a2
    5458:	000c2783          	lw	a5,0(s8)
    545c:	dbcff06f          	j	4a18 <xprintf+0x408>
    5460:	8341a783          	lw	a5,-1996(gp) # 1000070c <xfunc_out>
    5464:	9e078ae3          	beqz	a5,4e58 <xprintf+0x848>
    5468:	02000513          	li	a0,32
    546c:	000780e7          	jalr	a5
    5470:	9e9ff06f          	j	4e58 <xprintf+0x848>
    5474:	8341a783          	lw	a5,-1996(gp) # 1000070c <xfunc_out>
    5478:	f8078463          	beqz	a5,4c00 <xprintf+0x5f0>
    547c:	000780e7          	jalr	a5
    5480:	f80ff06f          	j	4c00 <xprintf+0x5f0>
    5484:	8341a783          	lw	a5,-1996(gp) # 1000070c <xfunc_out>
    5488:	b40786e3          	beqz	a5,4fd4 <xprintf+0x9c4>
    548c:	02000513          	li	a0,32
    5490:	000780e7          	jalr	a5
    5494:	000c2783          	lw	a5,0(s8)
    5498:	b40792e3          	bnez	a5,4fdc <xprintf+0x9cc>
    549c:	8341a783          	lw	a5,-1996(gp) # 1000070c <xfunc_out>
    54a0:	b40786e3          	beqz	a5,4fec <xprintf+0x9dc>
    54a4:	02000513          	li	a0,32
    54a8:	000780e7          	jalr	a5
    54ac:	000c2783          	lw	a5,0(s8)
    54b0:	b40792e3          	bnez	a5,4ff4 <xprintf+0x9e4>
    54b4:	8341a783          	lw	a5,-1996(gp) # 1000070c <xfunc_out>
    54b8:	b40786e3          	beqz	a5,5004 <xprintf+0x9f4>
    54bc:	02000513          	li	a0,32
    54c0:	000780e7          	jalr	a5
    54c4:	007d0c93          	addi	s9,s10,7
    54c8:	b41ff06f          	j	5008 <xprintf+0x9f8>
    54cc:	8341a783          	lw	a5,-1996(gp) # 1000070c <xfunc_out>
    54d0:	ae0786e3          	beqz	a5,4fbc <xprintf+0x9ac>
    54d4:	02000513          	li	a0,32
    54d8:	000780e7          	jalr	a5
    54dc:	ae1ff06f          	j	4fbc <xprintf+0x9ac>
    54e0:	8341a783          	lw	a5,-1996(gp) # 1000070c <xfunc_out>
    54e4:	ac0780e3          	beqz	a5,4fa4 <xprintf+0x994>
    54e8:	02000513          	li	a0,32
    54ec:	000780e7          	jalr	a5
    54f0:	ab5ff06f          	j	4fa4 <xprintf+0x994>
    54f4:	8341a783          	lw	a5,-1996(gp) # 1000070c <xfunc_out>
    54f8:	a8078ae3          	beqz	a5,4f8c <xprintf+0x97c>
    54fc:	02000513          	li	a0,32
    5500:	000780e7          	jalr	a5
    5504:	a89ff06f          	j	4f8c <xprintf+0x97c>
    5508:	8341a783          	lw	a5,-1996(gp) # 1000070c <xfunc_out>
    550c:	a60784e3          	beqz	a5,4f74 <xprintf+0x964>
    5510:	02000513          	li	a0,32
    5514:	000780e7          	jalr	a5
    5518:	a5dff06f          	j	4f74 <xprintf+0x964>
    551c:	01859593          	slli	a1,a1,0x18
    5520:	4185d593          	srai	a1,a1,0x18
    5524:	03058593          	addi	a1,a1,48
    5528:	02b10223          	sb	a1,36(sp)
    552c:	b2f8f263          	bgeu	a7,a5,4850 <xprintf+0x240>
    5530:	00500d93          	li	s11,5
    5534:	00400793          	li	a5,4
    5538:	c6cff06f          	j	49a4 <xprintf+0x394>
    553c:	01859593          	slli	a1,a1,0x18
    5540:	4185d593          	srai	a1,a1,0x18
    5544:	03058593          	addi	a1,a1,48
    5548:	02b102a3          	sb	a1,37(sp)
    554c:	b2f57063          	bgeu	a0,a5,486c <xprintf+0x25c>
    5550:	00600d93          	li	s11,6
    5554:	00500793          	li	a5,5
    5558:	c4cff06f          	j	49a4 <xprintf+0x394>
    555c:	8341a783          	lw	a5,-1996(gp) # 1000070c <xfunc_out>
    5560:	ec078463          	beqz	a5,4c28 <xprintf+0x618>
    5564:	000780e7          	jalr	a5
    5568:	ec0ff06f          	j	4c28 <xprintf+0x618>
    556c:	01859593          	slli	a1,a1,0x18
    5570:	4185d593          	srai	a1,a1,0x18
    5574:	03058593          	addi	a1,a1,48
    5578:	02b10323          	sb	a1,38(sp)
    557c:	b0f8f663          	bgeu	a7,a5,4888 <xprintf+0x278>
    5580:	00700d93          	li	s11,7
    5584:	00600793          	li	a5,6
