
aes256:     file format elf32-littleriscv


Disassembly of section .init:

00000000 <_start>:
   0:	10001197          	auipc	gp,0x10001
   4:	c3018193          	addi	gp,gp,-976 # 10000c30 <__global_pointer$>
   8:	10004117          	auipc	sp,0x10004
   c:	ff810113          	addi	sp,sp,-8 # 10004000 <__dual_issue_riscv_irq_stack_top>
  10:	00000d13          	li	s10,0
  14:	00000d93          	li	s11,0
  18:	00000293          	li	t0,0
  1c:	30029073          	csrw	mstatus,t0
  20:	00005517          	auipc	a0,0x5
  24:	10450513          	addi	a0,a0,260 # 5124 <_data_lma>
  28:	10000597          	auipc	a1,0x10000
  2c:	fd858593          	addi	a1,a1,-40 # 10000000 <_data>
  30:	10000617          	auipc	a2,0x10000
  34:	40060613          	addi	a2,a2,1024 # 10000430 <outptr>
  38:	00c5fc63          	bgeu	a1,a2,50 <_start+0x50>
  3c:	00052283          	lw	t0,0(a0)
  40:	0055a023          	sw	t0,0(a1)
  44:	00450513          	addi	a0,a0,4
  48:	00458593          	addi	a1,a1,4
  4c:	fec5e8e3          	bltu	a1,a2,3c <_start+0x3c>
  50:	10000517          	auipc	a0,0x10000
  54:	3e050513          	addi	a0,a0,992 # 10000430 <outptr>
  58:	10000597          	auipc	a1,0x10000
  5c:	3e058593          	addi	a1,a1,992 # 10000438 <_end>
  60:	00b57863          	bgeu	a0,a1,70 <_start+0x70>
  64:	00052023          	sw	zero,0(a0)
  68:	00450513          	addi	a0,a0,4
  6c:	feb56ce3          	bltu	a0,a1,64 <_start+0x64>
  70:	010000ef          	jal	ra,80 <main>
  74:	00100d13          	li	s10,1

00000078 <loop>:
  78:	0000006f          	j	78 <loop>

Disassembly of section .text:

00000080 <main>:
      80:	ff010113          	addi	sp,sp,-16
      84:	00112623          	sw	ra,12(sp)
      88:	00812423          	sw	s0,8(sp)
      8c:	664030ef          	jal	ra,36f0 <uart_init>
      90:	10000537          	lui	a0,0x10000
      94:	1e850513          	addi	a0,a0,488 # 100001e8 <_data+0x1e8>
      98:	688030ef          	jal	ra,3720 <xprintf>
      9c:	074000ef          	jal	ra,110 <test_encrypt_cbc>
      a0:	00050413          	mv	s0,a0
      a4:	1dc000ef          	jal	ra,280 <test_decrypt_cbc>
      a8:	00050793          	mv	a5,a0
      ac:	10000537          	lui	a0,0x10000
      b0:	1fc50513          	addi	a0,a0,508 # 100001fc <_data+0x1fc>
      b4:	00f40433          	add	s0,s0,a5
      b8:	338000ef          	jal	ra,3f0 <test_xcrypt_ctr>
      bc:	00050793          	mv	a5,a0
      c0:	10000537          	lui	a0,0x10000
      c4:	20450513          	addi	a0,a0,516 # 10000204 <_data+0x204>
      c8:	00f40433          	add	s0,s0,a5
      cc:	324000ef          	jal	ra,3f0 <test_xcrypt_ctr>
      d0:	00a40433          	add	s0,s0,a0
      d4:	49c000ef          	jal	ra,570 <test_decrypt_ecb>
      d8:	00a40433          	add	s0,s0,a0
      dc:	5d4000ef          	jal	ra,6b0 <test_encrypt_ecb>
      e0:	00a40433          	add	s0,s0,a0
      e4:	70c000ef          	jal	ra,7f0 <test_encrypt_ecb_verbose>
      e8:	10000537          	lui	a0,0x10000
      ec:	20c50513          	addi	a0,a0,524 # 1000020c <_data+0x20c>
      f0:	630030ef          	jal	ra,3720 <xprintf>
      f4:	00c12083          	lw	ra,12(sp)
      f8:	00040513          	mv	a0,s0
      fc:	00812403          	lw	s0,8(sp)
     100:	01010113          	addi	sp,sp,16
     104:	00008067          	ret
	...

00000110 <test_encrypt_cbc>:
     110:	100007b7          	lui	a5,0x10000
     114:	02878793          	addi	a5,a5,40 # 10000028 <_data+0x28>
     118:	0187a683          	lw	a3,24(a5)
     11c:	01c7a703          	lw	a4,28(a5)
     120:	0007a303          	lw	t1,0(a5)
     124:	0047a883          	lw	a7,4(a5)
     128:	0087a803          	lw	a6,8(a5)
     12c:	00c7a503          	lw	a0,12(a5)
     130:	0107a583          	lw	a1,16(a5)
     134:	0147a603          	lw	a2,20(a5)
     138:	100007b7          	lui	a5,0x10000
     13c:	e4010113          	addi	sp,sp,-448
     140:	04c78793          	addi	a5,a5,76 # 1000004c <_data+0x4c>
     144:	02d12423          	sw	a3,40(sp)
     148:	02e12623          	sw	a4,44(sp)
     14c:	1a112e23          	sw	ra,444(sp)
     150:	00612823          	sw	t1,16(sp)
     154:	01112a23          	sw	a7,20(sp)
     158:	01012c23          	sw	a6,24(sp)
     15c:	00a12e23          	sw	a0,28(sp)
     160:	02b12023          	sw	a1,32(sp)
     164:	02c12223          	sw	a2,36(sp)
     168:	04078693          	addi	a3,a5,64
     16c:	03010713          	addi	a4,sp,48
     170:	0007a803          	lw	a6,0(a5)
     174:	0047a503          	lw	a0,4(a5)
     178:	0087a583          	lw	a1,8(a5)
     17c:	00c7a603          	lw	a2,12(a5)
     180:	01072023          	sw	a6,0(a4)
     184:	00a72223          	sw	a0,4(a4)
     188:	00b72423          	sw	a1,8(a4)
     18c:	00c72623          	sw	a2,12(a4)
     190:	01078793          	addi	a5,a5,16
     194:	01070713          	addi	a4,a4,16
     198:	fcd79ce3          	bne	a5,a3,170 <test_encrypt_cbc+0x60>
     19c:	100007b7          	lui	a5,0x10000
     1a0:	21078793          	addi	a5,a5,528 # 10000210 <_data+0x210>
     1a4:	0087a683          	lw	a3,8(a5)
     1a8:	00c7a703          	lw	a4,12(a5)
     1ac:	0007a583          	lw	a1,0(a5)
     1b0:	0047a603          	lw	a2,4(a5)
     1b4:	100007b7          	lui	a5,0x10000
     1b8:	09078793          	addi	a5,a5,144 # 10000090 <_data+0x90>
     1bc:	00d12423          	sw	a3,8(sp)
     1c0:	00e12623          	sw	a4,12(sp)
     1c4:	00b12023          	sw	a1,0(sp)
     1c8:	00c12223          	sw	a2,4(sp)
     1cc:	04078693          	addi	a3,a5,64
     1d0:	07010713          	addi	a4,sp,112
     1d4:	0007a803          	lw	a6,0(a5)
     1d8:	0047a503          	lw	a0,4(a5)
     1dc:	0087a583          	lw	a1,8(a5)
     1e0:	00c7a603          	lw	a2,12(a5)
     1e4:	01072023          	sw	a6,0(a4)
     1e8:	00a72223          	sw	a0,4(a4)
     1ec:	00b72423          	sw	a1,8(a4)
     1f0:	00c72623          	sw	a2,12(a4)
     1f4:	01078793          	addi	a5,a5,16
     1f8:	01070713          	addi	a4,a4,16
     1fc:	fcd79ce3          	bne	a5,a3,1d4 <test_encrypt_cbc+0xc4>
     200:	00010613          	mv	a2,sp
     204:	01010593          	addi	a1,sp,16
     208:	0b010513          	addi	a0,sp,176
     20c:	3c5000ef          	jal	ra,dd0 <AES_init_ctx_iv>
     210:	04000613          	li	a2,64
     214:	07010593          	addi	a1,sp,112
     218:	0b010513          	addi	a0,sp,176
     21c:	3f5010ef          	jal	ra,1e10 <AES_CBC_encrypt_buffer>
     220:	10000537          	lui	a0,0x10000
     224:	00050513          	mv	a0,a0
     228:	4f8030ef          	jal	ra,3720 <xprintf>
     22c:	04000613          	li	a2,64
     230:	07010593          	addi	a1,sp,112
     234:	03010513          	addi	a0,sp,48
     238:	54d040ef          	jal	ra,4f84 <memcmp>
     23c:	02051063          	bnez	a0,25c <test_encrypt_cbc+0x14c>
     240:	10000537          	lui	a0,0x10000
     244:	01050513          	addi	a0,a0,16 # 10000010 <_data+0x10>
     248:	4d8030ef          	jal	ra,3720 <xprintf>
     24c:	00000513          	li	a0,0
     250:	1bc12083          	lw	ra,444(sp)
     254:	1c010113          	addi	sp,sp,448
     258:	00008067          	ret
     25c:	10000537          	lui	a0,0x10000
     260:	01c50513          	addi	a0,a0,28 # 1000001c <_data+0x1c>
     264:	4bc030ef          	jal	ra,3720 <xprintf>
     268:	00100513          	li	a0,1
     26c:	fe5ff06f          	j	250 <test_encrypt_cbc+0x140>
	...

00000280 <test_decrypt_cbc>:
     280:	100007b7          	lui	a5,0x10000
     284:	02878793          	addi	a5,a5,40 # 10000028 <_data+0x28>
     288:	0187a683          	lw	a3,24(a5)
     28c:	01c7a703          	lw	a4,28(a5)
     290:	0007a303          	lw	t1,0(a5)
     294:	0047a883          	lw	a7,4(a5)
     298:	0087a803          	lw	a6,8(a5)
     29c:	00c7a503          	lw	a0,12(a5)
     2a0:	0107a583          	lw	a1,16(a5)
     2a4:	0147a603          	lw	a2,20(a5)
     2a8:	100007b7          	lui	a5,0x10000
     2ac:	e4010113          	addi	sp,sp,-448
     2b0:	04c78793          	addi	a5,a5,76 # 1000004c <_data+0x4c>
     2b4:	02d12423          	sw	a3,40(sp)
     2b8:	02e12623          	sw	a4,44(sp)
     2bc:	1a112e23          	sw	ra,444(sp)
     2c0:	00612823          	sw	t1,16(sp)
     2c4:	01112a23          	sw	a7,20(sp)
     2c8:	01012c23          	sw	a6,24(sp)
     2cc:	00a12e23          	sw	a0,28(sp)
     2d0:	02b12023          	sw	a1,32(sp)
     2d4:	02c12223          	sw	a2,36(sp)
     2d8:	04078693          	addi	a3,a5,64
     2dc:	03010713          	addi	a4,sp,48
     2e0:	0007a803          	lw	a6,0(a5)
     2e4:	0047a503          	lw	a0,4(a5)
     2e8:	0087a583          	lw	a1,8(a5)
     2ec:	00c7a603          	lw	a2,12(a5)
     2f0:	01072023          	sw	a6,0(a4)
     2f4:	00a72223          	sw	a0,4(a4)
     2f8:	00b72423          	sw	a1,8(a4)
     2fc:	00c72623          	sw	a2,12(a4)
     300:	01078793          	addi	a5,a5,16
     304:	01070713          	addi	a4,a4,16
     308:	fcd79ce3          	bne	a5,a3,2e0 <test_decrypt_cbc+0x60>
     30c:	100007b7          	lui	a5,0x10000
     310:	21078793          	addi	a5,a5,528 # 10000210 <_data+0x210>
     314:	0087a683          	lw	a3,8(a5)
     318:	00c7a703          	lw	a4,12(a5)
     31c:	0007a583          	lw	a1,0(a5)
     320:	0047a603          	lw	a2,4(a5)
     324:	100007b7          	lui	a5,0x10000
     328:	09078793          	addi	a5,a5,144 # 10000090 <_data+0x90>
     32c:	00d12423          	sw	a3,8(sp)
     330:	00e12623          	sw	a4,12(sp)
     334:	00b12023          	sw	a1,0(sp)
     338:	00c12223          	sw	a2,4(sp)
     33c:	04078693          	addi	a3,a5,64
     340:	07010713          	addi	a4,sp,112
     344:	0007a803          	lw	a6,0(a5)
     348:	0047a503          	lw	a0,4(a5)
     34c:	0087a583          	lw	a1,8(a5)
     350:	00c7a603          	lw	a2,12(a5)
     354:	01072023          	sw	a6,0(a4)
     358:	00a72223          	sw	a0,4(a4)
     35c:	00b72423          	sw	a1,8(a4)
     360:	00c72623          	sw	a2,12(a4)
     364:	01078793          	addi	a5,a5,16
     368:	01070713          	addi	a4,a4,16
     36c:	fcd79ce3          	bne	a5,a3,344 <test_decrypt_cbc+0xc4>
     370:	00010613          	mv	a2,sp
     374:	01010593          	addi	a1,sp,16
     378:	0b010513          	addi	a0,sp,176
     37c:	255000ef          	jal	ra,dd0 <AES_init_ctx_iv>
     380:	04000613          	li	a2,64
     384:	03010593          	addi	a1,sp,48
     388:	0b010513          	addi	a0,sp,176
     38c:	3a4020ef          	jal	ra,2730 <AES_CBC_decrypt_buffer>
     390:	10000537          	lui	a0,0x10000
     394:	0d450513          	addi	a0,a0,212 # 100000d4 <_data+0xd4>
     398:	388030ef          	jal	ra,3720 <xprintf>
     39c:	04000613          	li	a2,64
     3a0:	03010593          	addi	a1,sp,48
     3a4:	07010513          	addi	a0,sp,112
     3a8:	3dd040ef          	jal	ra,4f84 <memcmp>
     3ac:	02051063          	bnez	a0,3cc <test_decrypt_cbc+0x14c>
     3b0:	10000537          	lui	a0,0x10000
     3b4:	01050513          	addi	a0,a0,16 # 10000010 <_data+0x10>
     3b8:	368030ef          	jal	ra,3720 <xprintf>
     3bc:	00000513          	li	a0,0
     3c0:	1bc12083          	lw	ra,444(sp)
     3c4:	1c010113          	addi	sp,sp,448
     3c8:	00008067          	ret
     3cc:	10000537          	lui	a0,0x10000
     3d0:	01c50513          	addi	a0,a0,28 # 1000001c <_data+0x1c>
     3d4:	34c030ef          	jal	ra,3720 <xprintf>
     3d8:	00100513          	li	a0,1
     3dc:	fe5ff06f          	j	3c0 <test_decrypt_cbc+0x140>
	...

000003f0 <test_xcrypt_ctr>:
     3f0:	100007b7          	lui	a5,0x10000
     3f4:	02878793          	addi	a5,a5,40 # 10000028 <_data+0x28>
     3f8:	0187a683          	lw	a3,24(a5)
     3fc:	01c7a703          	lw	a4,28(a5)
     400:	0007ae03          	lw	t3,0(a5)
     404:	0047a303          	lw	t1,4(a5)
     408:	0087a883          	lw	a7,8(a5)
     40c:	00c7a803          	lw	a6,12(a5)
     410:	0107a583          	lw	a1,16(a5)
     414:	0147a603          	lw	a2,20(a5)
     418:	100007b7          	lui	a5,0x10000
     41c:	e4010113          	addi	sp,sp,-448
     420:	0f078793          	addi	a5,a5,240 # 100000f0 <_data+0xf0>
     424:	1a812c23          	sw	s0,440(sp)
     428:	02d12423          	sw	a3,40(sp)
     42c:	02e12623          	sw	a4,44(sp)
     430:	1a112e23          	sw	ra,444(sp)
     434:	00050413          	mv	s0,a0
     438:	01c12823          	sw	t3,16(sp)
     43c:	00612a23          	sw	t1,20(sp)
     440:	01112c23          	sw	a7,24(sp)
     444:	01012e23          	sw	a6,28(sp)
     448:	02b12023          	sw	a1,32(sp)
     44c:	02c12223          	sw	a2,36(sp)
     450:	04078693          	addi	a3,a5,64
     454:	03010713          	addi	a4,sp,48
     458:	0007a803          	lw	a6,0(a5)
     45c:	0047a503          	lw	a0,4(a5)
     460:	0087a583          	lw	a1,8(a5)
     464:	00c7a603          	lw	a2,12(a5)
     468:	01072023          	sw	a6,0(a4)
     46c:	00a72223          	sw	a0,4(a4)
     470:	00b72423          	sw	a1,8(a4)
     474:	00c72623          	sw	a2,12(a4)
     478:	01078793          	addi	a5,a5,16
     47c:	01070713          	addi	a4,a4,16
     480:	fcd79ce3          	bne	a5,a3,458 <test_xcrypt_ctr+0x68>
     484:	100007b7          	lui	a5,0x10000
     488:	13478793          	addi	a5,a5,308 # 10000134 <_data+0x134>
     48c:	0087a683          	lw	a3,8(a5)
     490:	00c7a703          	lw	a4,12(a5)
     494:	0007a583          	lw	a1,0(a5)
     498:	0047a603          	lw	a2,4(a5)
     49c:	100007b7          	lui	a5,0x10000
     4a0:	09078793          	addi	a5,a5,144 # 10000090 <_data+0x90>
     4a4:	00d12423          	sw	a3,8(sp)
     4a8:	00e12623          	sw	a4,12(sp)
     4ac:	00b12023          	sw	a1,0(sp)
     4b0:	00c12223          	sw	a2,4(sp)
     4b4:	04078693          	addi	a3,a5,64
     4b8:	07010713          	addi	a4,sp,112
     4bc:	0007a803          	lw	a6,0(a5)
     4c0:	0047a503          	lw	a0,4(a5)
     4c4:	0087a583          	lw	a1,8(a5)
     4c8:	00c7a603          	lw	a2,12(a5)
     4cc:	01072023          	sw	a6,0(a4)
     4d0:	00a72223          	sw	a0,4(a4)
     4d4:	00b72423          	sw	a1,8(a4)
     4d8:	00c72623          	sw	a2,12(a4)
     4dc:	01078793          	addi	a5,a5,16
     4e0:	01070713          	addi	a4,a4,16
     4e4:	fcd79ce3          	bne	a5,a3,4bc <test_xcrypt_ctr+0xcc>
     4e8:	00010613          	mv	a2,sp
     4ec:	01010593          	addi	a1,sp,16
     4f0:	0b010513          	addi	a0,sp,176
     4f4:	0dd000ef          	jal	ra,dd0 <AES_init_ctx_iv>
     4f8:	04000613          	li	a2,64
     4fc:	03010593          	addi	a1,sp,48
     500:	0b010513          	addi	a0,sp,176
     504:	0ed020ef          	jal	ra,2df0 <AES_CTR_xcrypt_buffer>
     508:	10000537          	lui	a0,0x10000
     50c:	00040593          	mv	a1,s0
     510:	0e450513          	addi	a0,a0,228 # 100000e4 <_data+0xe4>
     514:	20c030ef          	jal	ra,3720 <xprintf>
     518:	04000613          	li	a2,64
     51c:	03010593          	addi	a1,sp,48
     520:	07010513          	addi	a0,sp,112
     524:	261040ef          	jal	ra,4f84 <memcmp>
     528:	02051263          	bnez	a0,54c <test_xcrypt_ctr+0x15c>
     52c:	10000537          	lui	a0,0x10000
     530:	01050513          	addi	a0,a0,16 # 10000010 <_data+0x10>
     534:	1ec030ef          	jal	ra,3720 <xprintf>
     538:	00000513          	li	a0,0
     53c:	1bc12083          	lw	ra,444(sp)
     540:	1b812403          	lw	s0,440(sp)
     544:	1c010113          	addi	sp,sp,448
     548:	00008067          	ret
     54c:	10000537          	lui	a0,0x10000
     550:	01c50513          	addi	a0,a0,28 # 1000001c <_data+0x1c>
     554:	1cc030ef          	jal	ra,3720 <xprintf>
     558:	00100513          	li	a0,1
     55c:	fe1ff06f          	j	53c <test_xcrypt_ctr+0x14c>
	...

00000570 <test_decrypt_ecb>:
     570:	100007b7          	lui	a5,0x10000
     574:	100006b7          	lui	a3,0x10000
     578:	eb010113          	addi	sp,sp,-336
     57c:	02878793          	addi	a5,a5,40 # 10000028 <_data+0x28>
     580:	15868693          	addi	a3,a3,344 # 10000158 <_data+0x158>
     584:	10000737          	lui	a4,0x10000
     588:	16c70713          	addi	a4,a4,364 # 1000016c <_data+0x16c>
     58c:	0107a383          	lw	t2,16(a5)
     590:	0147a283          	lw	t0,20(a5)
     594:	0187af83          	lw	t6,24(a5)
     598:	01c7af03          	lw	t5,28(a5)
     59c:	0006ae83          	lw	t4,0(a3)
     5a0:	0046ae03          	lw	t3,4(a3)
     5a4:	0086a303          	lw	t1,8(a3)
     5a8:	00c6a883          	lw	a7,12(a3)
     5ac:	14112623          	sw	ra,332(sp)
     5b0:	14812423          	sw	s0,328(sp)
     5b4:	00c7a083          	lw	ra,12(a5)
     5b8:	0087a403          	lw	s0,8(a5)
     5bc:	14912223          	sw	s1,324(sp)
     5c0:	15212023          	sw	s2,320(sp)
     5c4:	0047a483          	lw	s1,4(a5)
     5c8:	0007a903          	lw	s2,0(a5)
     5cc:	00472603          	lw	a2,4(a4)
     5d0:	00c72783          	lw	a5,12(a4)
     5d4:	00872683          	lw	a3,8(a4)
     5d8:	00072803          	lw	a6,0(a4)
     5dc:	02112623          	sw	ra,44(sp)
     5e0:	02712823          	sw	t2,48(sp)
     5e4:	02512a23          	sw	t0,52(sp)
     5e8:	03f12c23          	sw	t6,56(sp)
     5ec:	03e12e23          	sw	t5,60(sp)
     5f0:	01d12023          	sw	t4,0(sp)
     5f4:	01c12223          	sw	t3,4(sp)
     5f8:	00612423          	sw	t1,8(sp)
     5fc:	01112623          	sw	a7,12(sp)
     600:	02010593          	addi	a1,sp,32
     604:	04010513          	addi	a0,sp,64
     608:	03212023          	sw	s2,32(sp)
     60c:	02912223          	sw	s1,36(sp)
     610:	02812423          	sw	s0,40(sp)
     614:	01012823          	sw	a6,16(sp)
     618:	00f12e23          	sw	a5,28(sp)
     61c:	00c12a23          	sw	a2,20(sp)
     620:	00d12c23          	sw	a3,24(sp)
     624:	4dc000ef          	jal	ra,b00 <AES_init_ctx>
     628:	00010593          	mv	a1,sp
     62c:	04010513          	addi	a0,sp,64
     630:	250010ef          	jal	ra,1880 <AES_ECB_decrypt>
     634:	10000537          	lui	a0,0x10000
     638:	14850513          	addi	a0,a0,328 # 10000148 <_data+0x148>
     63c:	0e4030ef          	jal	ra,3720 <xprintf>
     640:	01012703          	lw	a4,16(sp)
     644:	00012783          	lw	a5,0(sp)
     648:	02f70663          	beq	a4,a5,674 <test_decrypt_ecb+0x104>
     64c:	10000537          	lui	a0,0x10000
     650:	01c50513          	addi	a0,a0,28 # 1000001c <_data+0x1c>
     654:	0cc030ef          	jal	ra,3720 <xprintf>
     658:	00100513          	li	a0,1
     65c:	14c12083          	lw	ra,332(sp)
     660:	14812403          	lw	s0,328(sp)
     664:	14412483          	lw	s1,324(sp)
     668:	14012903          	lw	s2,320(sp)
     66c:	15010113          	addi	sp,sp,336
     670:	00008067          	ret
     674:	01412703          	lw	a4,20(sp)
     678:	00412783          	lw	a5,4(sp)
     67c:	fcf718e3          	bne	a4,a5,64c <test_decrypt_ecb+0xdc>
     680:	01812703          	lw	a4,24(sp)
     684:	00812783          	lw	a5,8(sp)
     688:	fcf712e3          	bne	a4,a5,64c <test_decrypt_ecb+0xdc>
     68c:	01c12703          	lw	a4,28(sp)
     690:	00c12783          	lw	a5,12(sp)
     694:	faf71ce3          	bne	a4,a5,64c <test_decrypt_ecb+0xdc>
     698:	10000537          	lui	a0,0x10000
     69c:	01050513          	addi	a0,a0,16 # 10000010 <_data+0x10>
     6a0:	080030ef          	jal	ra,3720 <xprintf>
     6a4:	00000513          	li	a0,0
     6a8:	fb5ff06f          	j	65c <test_decrypt_ecb+0xec>
     6ac:	0000                	unimp
	...

000006b0 <test_encrypt_ecb>:
     6b0:	100007b7          	lui	a5,0x10000
     6b4:	100006b7          	lui	a3,0x10000
     6b8:	eb010113          	addi	sp,sp,-336
     6bc:	02878793          	addi	a5,a5,40 # 10000028 <_data+0x28>
     6c0:	15868693          	addi	a3,a3,344 # 10000158 <_data+0x158>
     6c4:	10000737          	lui	a4,0x10000
     6c8:	16c70713          	addi	a4,a4,364 # 1000016c <_data+0x16c>
     6cc:	0107a383          	lw	t2,16(a5)
     6d0:	0147a283          	lw	t0,20(a5)
     6d4:	0187af83          	lw	t6,24(a5)
     6d8:	01c7af03          	lw	t5,28(a5)
     6dc:	0006ae83          	lw	t4,0(a3)
     6e0:	0046ae03          	lw	t3,4(a3)
     6e4:	0086a303          	lw	t1,8(a3)
     6e8:	00c6a883          	lw	a7,12(a3)
     6ec:	14112623          	sw	ra,332(sp)
     6f0:	14812423          	sw	s0,328(sp)
     6f4:	00c7a083          	lw	ra,12(a5)
     6f8:	0087a403          	lw	s0,8(a5)
     6fc:	14912223          	sw	s1,324(sp)
     700:	15212023          	sw	s2,320(sp)
     704:	0047a483          	lw	s1,4(a5)
     708:	0007a903          	lw	s2,0(a5)
     70c:	00472603          	lw	a2,4(a4)
     710:	00c72783          	lw	a5,12(a4)
     714:	00872683          	lw	a3,8(a4)
     718:	00072803          	lw	a6,0(a4)
     71c:	02112623          	sw	ra,44(sp)
     720:	02712823          	sw	t2,48(sp)
     724:	02512a23          	sw	t0,52(sp)
     728:	03f12c23          	sw	t6,56(sp)
     72c:	03e12e23          	sw	t5,60(sp)
     730:	01d12023          	sw	t4,0(sp)
     734:	01c12223          	sw	t3,4(sp)
     738:	00612423          	sw	t1,8(sp)
     73c:	01112623          	sw	a7,12(sp)
     740:	02010593          	addi	a1,sp,32
     744:	04010513          	addi	a0,sp,64
     748:	03212023          	sw	s2,32(sp)
     74c:	02912223          	sw	s1,36(sp)
     750:	02812423          	sw	s0,40(sp)
     754:	01012823          	sw	a6,16(sp)
     758:	00f12e23          	sw	a5,28(sp)
     75c:	00c12a23          	sw	a2,20(sp)
     760:	00d12c23          	sw	a3,24(sp)
     764:	39c000ef          	jal	ra,b00 <AES_init_ctx>
     768:	01010593          	addi	a1,sp,16
     76c:	04010513          	addi	a0,sp,64
     770:	141000ef          	jal	ra,10b0 <AES_ECB_encrypt>
     774:	10000537          	lui	a0,0x10000
     778:	18050513          	addi	a0,a0,384 # 10000180 <_data+0x180>
     77c:	7a5020ef          	jal	ra,3720 <xprintf>
     780:	00012703          	lw	a4,0(sp)
     784:	01012783          	lw	a5,16(sp)
     788:	02f70663          	beq	a4,a5,7b4 <test_encrypt_ecb+0x104>
     78c:	10000537          	lui	a0,0x10000
     790:	01c50513          	addi	a0,a0,28 # 1000001c <_data+0x1c>
     794:	78d020ef          	jal	ra,3720 <xprintf>
     798:	00100513          	li	a0,1
     79c:	14c12083          	lw	ra,332(sp)
     7a0:	14812403          	lw	s0,328(sp)
     7a4:	14412483          	lw	s1,324(sp)
     7a8:	14012903          	lw	s2,320(sp)
     7ac:	15010113          	addi	sp,sp,336
     7b0:	00008067          	ret
     7b4:	00412703          	lw	a4,4(sp)
     7b8:	01412783          	lw	a5,20(sp)
     7bc:	fcf718e3          	bne	a4,a5,78c <test_encrypt_ecb+0xdc>
     7c0:	00812703          	lw	a4,8(sp)
     7c4:	01812783          	lw	a5,24(sp)
     7c8:	fcf712e3          	bne	a4,a5,78c <test_encrypt_ecb+0xdc>
     7cc:	00c12703          	lw	a4,12(sp)
     7d0:	01c12783          	lw	a5,28(sp)
     7d4:	faf71ce3          	bne	a4,a5,78c <test_encrypt_ecb+0xdc>
     7d8:	10000537          	lui	a0,0x10000
     7dc:	01050513          	addi	a0,a0,16 # 10000010 <_data+0x10>
     7e0:	741020ef          	jal	ra,3720 <xprintf>
     7e4:	00000513          	li	a0,0
     7e8:	fb5ff06f          	j	79c <test_encrypt_ecb+0xec>
     7ec:	0000                	unimp
	...

000007f0 <test_encrypt_ecb_verbose>:
     7f0:	100007b7          	lui	a5,0x10000
     7f4:	1d478793          	addi	a5,a5,468 # 100001d4 <_data+0x1d4>
     7f8:	00c7a703          	lw	a4,12(a5)
     7fc:	0007a583          	lw	a1,0(a5)
     800:	0047a603          	lw	a2,4(a5)
     804:	0087a683          	lw	a3,8(a5)
     808:	100007b7          	lui	a5,0x10000
     80c:	e9010113          	addi	sp,sp,-368
     810:	09078793          	addi	a5,a5,144 # 10000090 <_data+0x90>
     814:	00e12623          	sw	a4,12(sp)
     818:	16112623          	sw	ra,364(sp)
     81c:	16812423          	sw	s0,360(sp)
     820:	16912223          	sw	s1,356(sp)
     824:	17212023          	sw	s2,352(sp)
     828:	15312e23          	sw	s3,348(sp)
     82c:	15412c23          	sw	s4,344(sp)
     830:	15512a23          	sw	s5,340(sp)
     834:	15612823          	sw	s6,336(sp)
     838:	00b12023          	sw	a1,0(sp)
     83c:	00c12223          	sw	a2,4(sp)
     840:	00d12423          	sw	a3,8(sp)
     844:	04078813          	addi	a6,a5,64
     848:	01010713          	addi	a4,sp,16
     84c:	0007a503          	lw	a0,0(a5)
     850:	0047a583          	lw	a1,4(a5)
     854:	0087a603          	lw	a2,8(a5)
     858:	00c7a683          	lw	a3,12(a5)
     85c:	00a72023          	sw	a0,0(a4)
     860:	00b72223          	sw	a1,4(a4)
     864:	00c72423          	sw	a2,8(a4)
     868:	00d72623          	sw	a3,12(a4)
     86c:	01078793          	addi	a5,a5,16
     870:	01070713          	addi	a4,a4,16
     874:	fd079ce3          	bne	a5,a6,84c <test_encrypt_ecb_verbose+0x5c>
     878:	10000537          	lui	a0,0x10000
     87c:	19050513          	addi	a0,a0,400 # 10000190 <_data+0x190>
     880:	6a1020ef          	jal	ra,3720 <xprintf>
     884:	10000537          	lui	a0,0x10000
     888:	1a850513          	addi	a0,a0,424 # 100001a8 <_data+0x1a8>
     88c:	03010913          	addi	s2,sp,48
     890:	00090993          	mv	s3,s2
     894:	00000a13          	li	s4,0
     898:	689020ef          	jal	ra,3720 <xprintf>
     89c:	04000b13          	li	s6,64
     8a0:	10000437          	lui	s0,0x10000
     8a4:	10000ab7          	lui	s5,0x10000
     8a8:	00000793          	li	a5,0
     8ac:	fe098493          	addi	s1,s3,-32
     8b0:	06078063          	beqz	a5,910 <test_encrypt_ecb_verbose+0x120>
     8b4:	0004c583          	lbu	a1,0(s1)
     8b8:	1b840513          	addi	a0,s0,440 # 100001b8 <_data+0x1b8>
     8bc:	fe798493          	addi	s1,s3,-25
     8c0:	661020ef          	jal	ra,3720 <xprintf>
     8c4:	fe19c583          	lbu	a1,-31(s3)
     8c8:	1b840513          	addi	a0,s0,440
     8cc:	655020ef          	jal	ra,3720 <xprintf>
     8d0:	fe29c583          	lbu	a1,-30(s3)
     8d4:	1b840513          	addi	a0,s0,440
     8d8:	649020ef          	jal	ra,3720 <xprintf>
     8dc:	fe39c583          	lbu	a1,-29(s3)
     8e0:	1b840513          	addi	a0,s0,440
     8e4:	63d020ef          	jal	ra,3720 <xprintf>
     8e8:	fe49c583          	lbu	a1,-28(s3)
     8ec:	1b840513          	addi	a0,s0,440
     8f0:	631020ef          	jal	ra,3720 <xprintf>
     8f4:	fe59c583          	lbu	a1,-27(s3)
     8f8:	1b840513          	addi	a0,s0,440
     8fc:	625020ef          	jal	ra,3720 <xprintf>
     900:	fe69c583          	lbu	a1,-26(s3)
     904:	1b840513          	addi	a0,s0,440
     908:	619020ef          	jal	ra,3720 <xprintf>
     90c:	07348663          	beq	s1,s3,978 <test_encrypt_ecb_verbose+0x188>
     910:	0004c583          	lbu	a1,0(s1)
     914:	1b840513          	addi	a0,s0,440
     918:	00848493          	addi	s1,s1,8
     91c:	605020ef          	jal	ra,3720 <xprintf>
     920:	ff94c583          	lbu	a1,-7(s1)
     924:	1b840513          	addi	a0,s0,440
     928:	5f9020ef          	jal	ra,3720 <xprintf>
     92c:	ffa4c583          	lbu	a1,-6(s1)
     930:	1b840513          	addi	a0,s0,440
     934:	5ed020ef          	jal	ra,3720 <xprintf>
     938:	ffb4c583          	lbu	a1,-5(s1)
     93c:	1b840513          	addi	a0,s0,440
     940:	5e1020ef          	jal	ra,3720 <xprintf>
     944:	ffc4c583          	lbu	a1,-4(s1)
     948:	1b840513          	addi	a0,s0,440
     94c:	5d5020ef          	jal	ra,3720 <xprintf>
     950:	ffd4c583          	lbu	a1,-3(s1)
     954:	1b840513          	addi	a0,s0,440
     958:	5c9020ef          	jal	ra,3720 <xprintf>
     95c:	ffe4c583          	lbu	a1,-2(s1)
     960:	1b840513          	addi	a0,s0,440
     964:	5bd020ef          	jal	ra,3720 <xprintf>
     968:	fff4c583          	lbu	a1,-1(s1)
     96c:	1b840513          	addi	a0,s0,440
     970:	5b1020ef          	jal	ra,3720 <xprintf>
     974:	f9349ee3          	bne	s1,s3,910 <test_encrypt_ecb_verbose+0x120>
     978:	1f8a8513          	addi	a0,s5,504 # 100001f8 <_data+0x1f8>
     97c:	010a0a13          	addi	s4,s4,16
     980:	5a1020ef          	jal	ra,3720 <xprintf>
     984:	01048993          	addi	s3,s1,16
     988:	f36a10e3          	bne	s4,s6,8a8 <test_encrypt_ecb_verbose+0xb8>
     98c:	1f8a8513          	addi	a0,s5,504
     990:	591020ef          	jal	ra,3720 <xprintf>
     994:	10000537          	lui	a0,0x10000
     998:	1bc50513          	addi	a0,a0,444 # 100001bc <_data+0x1bc>
     99c:	585020ef          	jal	ra,3720 <xprintf>
     9a0:	02010993          	addi	s3,sp,32
     9a4:	00010493          	mv	s1,sp
     9a8:	0004c583          	lbu	a1,0(s1)
     9ac:	1b840513          	addi	a0,s0,440
     9b0:	00848493          	addi	s1,s1,8
     9b4:	56d020ef          	jal	ra,3720 <xprintf>
     9b8:	ff94c583          	lbu	a1,-7(s1)
     9bc:	1b840513          	addi	a0,s0,440
     9c0:	561020ef          	jal	ra,3720 <xprintf>
     9c4:	ffa4c583          	lbu	a1,-6(s1)
     9c8:	1b840513          	addi	a0,s0,440
     9cc:	555020ef          	jal	ra,3720 <xprintf>
     9d0:	ffb4c583          	lbu	a1,-5(s1)
     9d4:	1b840513          	addi	a0,s0,440
     9d8:	549020ef          	jal	ra,3720 <xprintf>
     9dc:	ffc4c583          	lbu	a1,-4(s1)
     9e0:	1b840513          	addi	a0,s0,440
     9e4:	53d020ef          	jal	ra,3720 <xprintf>
     9e8:	ffd4c583          	lbu	a1,-3(s1)
     9ec:	1b840513          	addi	a0,s0,440
     9f0:	531020ef          	jal	ra,3720 <xprintf>
     9f4:	ffe4c583          	lbu	a1,-2(s1)
     9f8:	1b840513          	addi	a0,s0,440
     9fc:	525020ef          	jal	ra,3720 <xprintf>
     a00:	fff4c583          	lbu	a1,-1(s1)
     a04:	1b840513          	addi	a0,s0,440
     a08:	519020ef          	jal	ra,3720 <xprintf>
     a0c:	f8999ee3          	bne	s3,s1,9a8 <test_encrypt_ecb_verbose+0x1b8>
     a10:	1f8a8513          	addi	a0,s5,504
     a14:	50d020ef          	jal	ra,3720 <xprintf>
     a18:	1f8a8513          	addi	a0,s5,504
     a1c:	505020ef          	jal	ra,3720 <xprintf>
     a20:	10000537          	lui	a0,0x10000
     a24:	1c450513          	addi	a0,a0,452 # 100001c4 <_data+0x1c4>
     a28:	4f9020ef          	jal	ra,3720 <xprintf>
     a2c:	00010593          	mv	a1,sp
     a30:	05010513          	addi	a0,sp,80
     a34:	0cc000ef          	jal	ra,b00 <AES_init_ctx>
     a38:	07010993          	addi	s3,sp,112
     a3c:	fe090493          	addi	s1,s2,-32
     a40:	00048593          	mv	a1,s1
     a44:	05010513          	addi	a0,sp,80
     a48:	668000ef          	jal	ra,10b0 <AES_ECB_encrypt>
     a4c:	0004c583          	lbu	a1,0(s1)
     a50:	1b840513          	addi	a0,s0,440
     a54:	00848493          	addi	s1,s1,8
     a58:	4c9020ef          	jal	ra,3720 <xprintf>
     a5c:	ff94c583          	lbu	a1,-7(s1)
     a60:	1b840513          	addi	a0,s0,440
     a64:	4bd020ef          	jal	ra,3720 <xprintf>
     a68:	ffa4c583          	lbu	a1,-6(s1)
     a6c:	1b840513          	addi	a0,s0,440
     a70:	4b1020ef          	jal	ra,3720 <xprintf>
     a74:	ffb4c583          	lbu	a1,-5(s1)
     a78:	1b840513          	addi	a0,s0,440
     a7c:	4a5020ef          	jal	ra,3720 <xprintf>
     a80:	ffc4c583          	lbu	a1,-4(s1)
     a84:	1b840513          	addi	a0,s0,440
     a88:	499020ef          	jal	ra,3720 <xprintf>
     a8c:	ffd4c583          	lbu	a1,-3(s1)
     a90:	1b840513          	addi	a0,s0,440
     a94:	48d020ef          	jal	ra,3720 <xprintf>
     a98:	ffe4c583          	lbu	a1,-2(s1)
     a9c:	1b840513          	addi	a0,s0,440
     aa0:	481020ef          	jal	ra,3720 <xprintf>
     aa4:	fff4c583          	lbu	a1,-1(s1)
     aa8:	1b840513          	addi	a0,s0,440
     aac:	475020ef          	jal	ra,3720 <xprintf>
     ab0:	f8991ee3          	bne	s2,s1,a4c <test_encrypt_ecb_verbose+0x25c>
     ab4:	01090913          	addi	s2,s2,16
     ab8:	1f8a8513          	addi	a0,s5,504
     abc:	465020ef          	jal	ra,3720 <xprintf>
     ac0:	f7391ee3          	bne	s2,s3,a3c <test_encrypt_ecb_verbose+0x24c>
     ac4:	1f8a8513          	addi	a0,s5,504
     ac8:	459020ef          	jal	ra,3720 <xprintf>
     acc:	16c12083          	lw	ra,364(sp)
     ad0:	16812403          	lw	s0,360(sp)
     ad4:	16412483          	lw	s1,356(sp)
     ad8:	16012903          	lw	s2,352(sp)
     adc:	15c12983          	lw	s3,348(sp)
     ae0:	15812a03          	lw	s4,344(sp)
     ae4:	15412a83          	lw	s5,340(sp)
     ae8:	15012b03          	lw	s6,336(sp)
     aec:	17010113          	addi	sp,sp,368
     af0:	00008067          	ret
	...

00000b00 <AES_init_ctx>:
     b00:	fe010113          	addi	sp,sp,-32
     b04:	00812e23          	sw	s0,28(sp)
     b08:	00912c23          	sw	s1,24(sp)
     b0c:	01212a23          	sw	s2,20(sp)
     b10:	01312823          	sw	s3,16(sp)
     b14:	01412623          	sw	s4,12(sp)
     b18:	0005c783          	lbu	a5,0(a1)
     b1c:	10000eb7          	lui	t4,0x10000
     b20:	10000837          	lui	a6,0x10000
     b24:	00f50023          	sb	a5,0(a0)
     b28:	0015c783          	lbu	a5,1(a1)
     b2c:	00800893          	li	a7,8
     b30:	220e8e93          	addi	t4,t4,544 # 10000220 <Rcon>
     b34:	00f500a3          	sb	a5,1(a0)
     b38:	0025c783          	lbu	a5,2(a1)
     b3c:	00400f93          	li	t6,4
     b40:	32c80813          	addi	a6,a6,812 # 1000032c <sbox>
     b44:	00f50123          	sb	a5,2(a0)
     b48:	0035c783          	lbu	a5,3(a1)
     b4c:	03c00f13          	li	t5,60
     b50:	00f501a3          	sb	a5,3(a0)
     b54:	0045c783          	lbu	a5,4(a1)
     b58:	00f50223          	sb	a5,4(a0)
     b5c:	0055c783          	lbu	a5,5(a1)
     b60:	00f502a3          	sb	a5,5(a0)
     b64:	0065c783          	lbu	a5,6(a1)
     b68:	00f50323          	sb	a5,6(a0)
     b6c:	0075c783          	lbu	a5,7(a1)
     b70:	00f503a3          	sb	a5,7(a0)
     b74:	0085c783          	lbu	a5,8(a1)
     b78:	00f50423          	sb	a5,8(a0)
     b7c:	0095c783          	lbu	a5,9(a1)
     b80:	00f504a3          	sb	a5,9(a0)
     b84:	00a5c783          	lbu	a5,10(a1)
     b88:	00f50523          	sb	a5,10(a0)
     b8c:	00b5c783          	lbu	a5,11(a1)
     b90:	00f505a3          	sb	a5,11(a0)
     b94:	00c5c783          	lbu	a5,12(a1)
     b98:	00f50623          	sb	a5,12(a0)
     b9c:	00d5c783          	lbu	a5,13(a1)
     ba0:	00f506a3          	sb	a5,13(a0)
     ba4:	00e5c783          	lbu	a5,14(a1)
     ba8:	00f50723          	sb	a5,14(a0)
     bac:	00f5c783          	lbu	a5,15(a1)
     bb0:	00f507a3          	sb	a5,15(a0)
     bb4:	0105c783          	lbu	a5,16(a1)
     bb8:	00f50823          	sb	a5,16(a0)
     bbc:	0115c783          	lbu	a5,17(a1)
     bc0:	00f508a3          	sb	a5,17(a0)
     bc4:	0125c783          	lbu	a5,18(a1)
     bc8:	00f50923          	sb	a5,18(a0)
     bcc:	0135c783          	lbu	a5,19(a1)
     bd0:	00f509a3          	sb	a5,19(a0)
     bd4:	0145c783          	lbu	a5,20(a1)
     bd8:	00f50a23          	sb	a5,20(a0)
     bdc:	0155c783          	lbu	a5,21(a1)
     be0:	00f50aa3          	sb	a5,21(a0)
     be4:	0165c783          	lbu	a5,22(a1)
     be8:	00f50b23          	sb	a5,22(a0)
     bec:	0175c783          	lbu	a5,23(a1)
     bf0:	00f50ba3          	sb	a5,23(a0)
     bf4:	0185c703          	lbu	a4,24(a1)
     bf8:	00050793          	mv	a5,a0
     bfc:	00e50c23          	sb	a4,24(a0)
     c00:	0195c703          	lbu	a4,25(a1)
     c04:	00e50ca3          	sb	a4,25(a0)
     c08:	01a5c703          	lbu	a4,26(a1)
     c0c:	00e50d23          	sb	a4,26(a0)
     c10:	01b5c703          	lbu	a4,27(a1)
     c14:	00e50da3          	sb	a4,27(a0)
     c18:	01c5c703          	lbu	a4,28(a1)
     c1c:	00e50e23          	sb	a4,28(a0)
     c20:	01d5c703          	lbu	a4,29(a1)
     c24:	00e50ea3          	sb	a4,29(a0)
     c28:	01e5c703          	lbu	a4,30(a1)
     c2c:	00e50f23          	sb	a4,30(a0)
     c30:	01f5c703          	lbu	a4,31(a1)
     c34:	00e50fa3          	sb	a4,31(a0)
     c38:	0d00006f          	j	d08 <AES_init_ctx+0x208>
     c3c:	0017c383          	lbu	t2,1(a5)
     c40:	0027c283          	lbu	t0,2(a5)
     c44:	0037c883          	lbu	a7,3(a5)
     c48:	0004c603          	lbu	a2,0(s1)
     c4c:	00044683          	lbu	a3,0(s0)
     c50:	00094703          	lbu	a4,0(s2)
     c54:	000e4583          	lbu	a1,0(t3)
     c58:	000a4a03          	lbu	s4,0(s4)
     c5c:	0007c983          	lbu	s3,0(a5)
     c60:	00764633          	xor	a2,a2,t2
     c64:	0056c6b3          	xor	a3,a3,t0
     c68:	01174733          	xor	a4,a4,a7
     c6c:	00757e13          	andi	t3,a0,7
     c70:	02c780a3          	sb	a2,33(a5)
     c74:	02d78123          	sb	a3,34(a5)
     c78:	02e781a3          	sb	a4,35(a5)
     c7c:	00ba45b3          	xor	a1,s4,a1
     c80:	0135c5b3          	xor	a1,a1,s3
     c84:	0ff77713          	zext.b	a4,a4
     c88:	02b78023          	sb	a1,32(a5)
     c8c:	00150893          	addi	a7,a0,1
     c90:	0ff5f593          	zext.b	a1,a1
     c94:	0ff67613          	zext.b	a2,a2
     c98:	0ff6f693          	zext.b	a3,a3
     c9c:	00e80533          	add	a0,a6,a4
     ca0:	00b80433          	add	s0,a6,a1
     ca4:	00c803b3          	add	t2,a6,a2
     ca8:	00d802b3          	add	t0,a6,a3
     cac:	00050913          	mv	s2,a0
     cb0:	00478793          	addi	a5,a5,4
     cb4:	0c0e1c63          	bnez	t3,d8c <AES_init_ctx+0x28c>
     cb8:	0003c503          	lbu	a0,0(t2)
     cbc:	00034583          	lbu	a1,0(t1)
     cc0:	0002c603          	lbu	a2,0(t0)
     cc4:	00094683          	lbu	a3,0(s2)
     cc8:	00044703          	lbu	a4,0(s0)
     ccc:	00b545b3          	xor	a1,a0,a1
     cd0:	0007c283          	lbu	t0,0(a5)
     cd4:	0017ce03          	lbu	t3,1(a5)
     cd8:	0027c303          	lbu	t1,2(a5)
     cdc:	0037c503          	lbu	a0,3(a5)
     ce0:	0055c5b3          	xor	a1,a1,t0
     ce4:	01c64633          	xor	a2,a2,t3
     ce8:	0066c6b3          	xor	a3,a3,t1
     cec:	00a74733          	xor	a4,a4,a0
     cf0:	02b78023          	sb	a1,32(a5)
     cf4:	02c780a3          	sb	a2,33(a5)
     cf8:	02d78123          	sb	a3,34(a5)
     cfc:	02e781a3          	sb	a4,35(a5)
     d00:	00478793          	addi	a5,a5,4
     d04:	0be88063          	beq	a7,t5,da4 <AES_init_ctx+0x2a4>
     d08:	01d7c603          	lbu	a2,29(a5)
     d0c:	01c7c583          	lbu	a1,28(a5)
     d10:	01e7c683          	lbu	a3,30(a5)
     d14:	01f7c703          	lbu	a4,31(a5)
     d18:	00188513          	addi	a0,a7,1
     d1c:	0038de13          	srli	t3,a7,0x3
     d20:	00c802b3          	add	t0,a6,a2
     d24:	00355313          	srli	t1,a0,0x3
     d28:	0078f893          	andi	a7,a7,7
     d2c:	00b80933          	add	s2,a6,a1
     d30:	00d804b3          	add	s1,a6,a3
     d34:	00e80433          	add	s0,a6,a4
     d38:	01ce8e33          	add	t3,t4,t3
     d3c:	006e8333          	add	t1,t4,t1
     d40:	00028a13          	mv	s4,t0
     d44:	ee088ce3          	beqz	a7,c3c <AES_init_ctx+0x13c>
     d48:	01f89a63          	bne	a7,t6,d5c <AES_init_ctx+0x25c>
     d4c:	00094583          	lbu	a1,0(s2)
     d50:	0002c603          	lbu	a2,0(t0)
     d54:	0004c683          	lbu	a3,0(s1)
     d58:	00044703          	lbu	a4,0(s0)
     d5c:	0017c383          	lbu	t2,1(a5)
     d60:	0027c283          	lbu	t0,2(a5)
     d64:	0037c883          	lbu	a7,3(a5)
     d68:	00764633          	xor	a2,a2,t2
     d6c:	0056c6b3          	xor	a3,a3,t0
     d70:	01174733          	xor	a4,a4,a7
     d74:	0007c983          	lbu	s3,0(a5)
     d78:	00757e13          	andi	t3,a0,7
     d7c:	02c780a3          	sb	a2,33(a5)
     d80:	02d78123          	sb	a3,34(a5)
     d84:	02e781a3          	sb	a4,35(a5)
     d88:	ef9ff06f          	j	c80 <AES_init_ctx+0x180>
     d8c:	f5fe12e3          	bne	t3,t6,cd0 <AES_init_ctx+0x1d0>
     d90:	00044583          	lbu	a1,0(s0)
     d94:	0003c603          	lbu	a2,0(t2)
     d98:	0002c683          	lbu	a3,0(t0)
     d9c:	00054703          	lbu	a4,0(a0)
     da0:	f31ff06f          	j	cd0 <AES_init_ctx+0x1d0>
     da4:	01c12403          	lw	s0,28(sp)
     da8:	01812483          	lw	s1,24(sp)
     dac:	01412903          	lw	s2,20(sp)
     db0:	01012983          	lw	s3,16(sp)
     db4:	00c12a03          	lw	s4,12(sp)
     db8:	02010113          	addi	sp,sp,32
     dbc:	00008067          	ret
	...

00000dd0 <AES_init_ctx_iv>:
     dd0:	fe010113          	addi	sp,sp,-32
     dd4:	00812e23          	sw	s0,28(sp)
     dd8:	00912c23          	sw	s1,24(sp)
     ddc:	01212a23          	sw	s2,20(sp)
     de0:	01312823          	sw	s3,16(sp)
     de4:	01412623          	sw	s4,12(sp)
     de8:	01512423          	sw	s5,8(sp)
     dec:	01612223          	sw	s6,4(sp)
     df0:	0005c783          	lbu	a5,0(a1)
     df4:	00058713          	mv	a4,a1
     df8:	10000f37          	lui	t5,0x10000
     dfc:	00f50023          	sb	a5,0(a0)
     e00:	0015c783          	lbu	a5,1(a1)
     e04:	10000e37          	lui	t3,0x10000
     e08:	00060593          	mv	a1,a2
     e0c:	00f500a3          	sb	a5,1(a0)
     e10:	00274783          	lbu	a5,2(a4)
     e14:	00800e93          	li	t4,8
     e18:	220f0f13          	addi	t5,t5,544 # 10000220 <Rcon>
     e1c:	00f50123          	sb	a5,2(a0)
     e20:	00374783          	lbu	a5,3(a4)
     e24:	00400613          	li	a2,4
     e28:	32ce0e13          	addi	t3,t3,812 # 1000032c <sbox>
     e2c:	00f501a3          	sb	a5,3(a0)
     e30:	00474783          	lbu	a5,4(a4)
     e34:	03c00f93          	li	t6,60
     e38:	00f50223          	sb	a5,4(a0)
     e3c:	00574783          	lbu	a5,5(a4)
     e40:	00f502a3          	sb	a5,5(a0)
     e44:	00674783          	lbu	a5,6(a4)
     e48:	00f50323          	sb	a5,6(a0)
     e4c:	00774783          	lbu	a5,7(a4)
     e50:	00f503a3          	sb	a5,7(a0)
     e54:	00874783          	lbu	a5,8(a4)
     e58:	00f50423          	sb	a5,8(a0)
     e5c:	00974783          	lbu	a5,9(a4)
     e60:	00f504a3          	sb	a5,9(a0)
     e64:	00a74783          	lbu	a5,10(a4)
     e68:	00f50523          	sb	a5,10(a0)
     e6c:	00b74783          	lbu	a5,11(a4)
     e70:	00f505a3          	sb	a5,11(a0)
     e74:	00c74783          	lbu	a5,12(a4)
     e78:	00f50623          	sb	a5,12(a0)
     e7c:	00d74783          	lbu	a5,13(a4)
     e80:	00f506a3          	sb	a5,13(a0)
     e84:	00e74783          	lbu	a5,14(a4)
     e88:	00f50723          	sb	a5,14(a0)
     e8c:	00f74783          	lbu	a5,15(a4)
     e90:	00f507a3          	sb	a5,15(a0)
     e94:	01074783          	lbu	a5,16(a4)
     e98:	00f50823          	sb	a5,16(a0)
     e9c:	01174783          	lbu	a5,17(a4)
     ea0:	00f508a3          	sb	a5,17(a0)
     ea4:	01274783          	lbu	a5,18(a4)
     ea8:	00f50923          	sb	a5,18(a0)
     eac:	01374783          	lbu	a5,19(a4)
     eb0:	00f509a3          	sb	a5,19(a0)
     eb4:	01474783          	lbu	a5,20(a4)
     eb8:	00f50a23          	sb	a5,20(a0)
     ebc:	01574783          	lbu	a5,21(a4)
     ec0:	00f50aa3          	sb	a5,21(a0)
     ec4:	01674783          	lbu	a5,22(a4)
     ec8:	00f50b23          	sb	a5,22(a0)
     ecc:	01774683          	lbu	a3,23(a4)
     ed0:	00050793          	mv	a5,a0
     ed4:	00d50ba3          	sb	a3,23(a0)
     ed8:	01874683          	lbu	a3,24(a4)
     edc:	00d50c23          	sb	a3,24(a0)
     ee0:	01974683          	lbu	a3,25(a4)
     ee4:	00d50ca3          	sb	a3,25(a0)
     ee8:	01a74683          	lbu	a3,26(a4)
     eec:	00d50d23          	sb	a3,26(a0)
     ef0:	01b74683          	lbu	a3,27(a4)
     ef4:	00d50da3          	sb	a3,27(a0)
     ef8:	01c74683          	lbu	a3,28(a4)
     efc:	00d50e23          	sb	a3,28(a0)
     f00:	01d74683          	lbu	a3,29(a4)
     f04:	00d50ea3          	sb	a3,29(a0)
     f08:	01e74683          	lbu	a3,30(a4)
     f0c:	00d50f23          	sb	a3,30(a0)
     f10:	01f74703          	lbu	a4,31(a4)
     f14:	00e50fa3          	sb	a4,31(a0)
     f18:	0cc0006f          	j	fe4 <AES_init_ctx_iv+0x214>
     f1c:	0017c483          	lbu	s1,1(a5)
     f20:	0027ce83          	lbu	t4,2(a5)
     f24:	0037c803          	lbu	a6,3(a5)
     f28:	0009c683          	lbu	a3,0(s3)
     f2c:	00094703          	lbu	a4,0(s2)
     f30:	000a4383          	lbu	t2,0(s4)
     f34:	00034883          	lbu	a7,0(t1)
     f38:	000b4b03          	lbu	s6,0(s6)
     f3c:	0007ca83          	lbu	s5,0(a5)
     f40:	0096c6b3          	xor	a3,a3,s1
     f44:	01d74733          	xor	a4,a4,t4
     f48:	0103c833          	xor	a6,t2,a6
     f4c:	0072f313          	andi	t1,t0,7
     f50:	02d780a3          	sb	a3,33(a5)
     f54:	02e78123          	sb	a4,34(a5)
     f58:	030781a3          	sb	a6,35(a5)
     f5c:	011b48b3          	xor	a7,s6,a7
     f60:	0158c8b3          	xor	a7,a7,s5
     f64:	03178023          	sb	a7,32(a5)
     f68:	0ff6f693          	zext.b	a3,a3
     f6c:	0ff8f893          	zext.b	a7,a7
     f70:	0ff77713          	zext.b	a4,a4
     f74:	0ff87813          	zext.b	a6,a6
     f78:	00128e93          	addi	t4,t0,1
     f7c:	011e0933          	add	s2,t3,a7
     f80:	00de04b3          	add	s1,t3,a3
     f84:	00ee03b3          	add	t2,t3,a4
     f88:	010e02b3          	add	t0,t3,a6
     f8c:	00478793          	addi	a5,a5,4
     f90:	0c031c63          	bnez	t1,1068 <AES_init_ctx_iv+0x298>
     f94:	0004c303          	lbu	t1,0(s1)
     f98:	00044883          	lbu	a7,0(s0)
     f9c:	0003c683          	lbu	a3,0(t2)
     fa0:	0002c703          	lbu	a4,0(t0)
     fa4:	00094803          	lbu	a6,0(s2)
     fa8:	011348b3          	xor	a7,t1,a7
     fac:	0007c403          	lbu	s0,0(a5)
     fb0:	0017c383          	lbu	t2,1(a5)
     fb4:	0027c283          	lbu	t0,2(a5)
     fb8:	0037c303          	lbu	t1,3(a5)
     fbc:	0088c8b3          	xor	a7,a7,s0
     fc0:	0076c6b3          	xor	a3,a3,t2
     fc4:	00574733          	xor	a4,a4,t0
     fc8:	00684833          	xor	a6,a6,t1
     fcc:	03178023          	sb	a7,32(a5)
     fd0:	02d780a3          	sb	a3,33(a5)
     fd4:	02e78123          	sb	a4,34(a5)
     fd8:	030781a3          	sb	a6,35(a5)
     fdc:	00478793          	addi	a5,a5,4
     fe0:	0bfe8063          	beq	t4,t6,1080 <AES_init_ctx_iv+0x2b0>
     fe4:	01d7c683          	lbu	a3,29(a5)
     fe8:	01c7c883          	lbu	a7,28(a5)
     fec:	01e7c703          	lbu	a4,30(a5)
     ff0:	01f7c383          	lbu	t2,31(a5)
     ff4:	001e8293          	addi	t0,t4,1
     ff8:	003ed313          	srli	t1,t4,0x3
     ffc:	00de0833          	add	a6,t3,a3
    1000:	0032d413          	srli	s0,t0,0x3
    1004:	007efe93          	andi	t4,t4,7
    1008:	011e0a33          	add	s4,t3,a7
    100c:	00ee09b3          	add	s3,t3,a4
    1010:	007e0933          	add	s2,t3,t2
    1014:	006f0333          	add	t1,t5,t1
    1018:	008f0433          	add	s0,t5,s0
    101c:	00080b13          	mv	s6,a6
    1020:	ee0e8ee3          	beqz	t4,f1c <AES_init_ctx_iv+0x14c>
    1024:	00ce9a63          	bne	t4,a2,1038 <AES_init_ctx_iv+0x268>
    1028:	000a4883          	lbu	a7,0(s4)
    102c:	00084683          	lbu	a3,0(a6)
    1030:	0009c703          	lbu	a4,0(s3)
    1034:	00094383          	lbu	t2,0(s2)
    1038:	0017c483          	lbu	s1,1(a5)
    103c:	0027ce83          	lbu	t4,2(a5)
    1040:	0037c803          	lbu	a6,3(a5)
    1044:	0096c6b3          	xor	a3,a3,s1
    1048:	01d74733          	xor	a4,a4,t4
    104c:	0103c833          	xor	a6,t2,a6
    1050:	0007ca83          	lbu	s5,0(a5)
    1054:	0072f313          	andi	t1,t0,7
    1058:	02d780a3          	sb	a3,33(a5)
    105c:	02e78123          	sb	a4,34(a5)
    1060:	030781a3          	sb	a6,35(a5)
    1064:	efdff06f          	j	f60 <AES_init_ctx_iv+0x190>
    1068:	f4c312e3          	bne	t1,a2,fac <AES_init_ctx_iv+0x1dc>
    106c:	00094883          	lbu	a7,0(s2)
    1070:	0004c683          	lbu	a3,0(s1)
    1074:	0003c703          	lbu	a4,0(t2)
    1078:	0002c803          	lbu	a6,0(t0)
    107c:	f31ff06f          	j	fac <AES_init_ctx_iv+0x1dc>
    1080:	01c12403          	lw	s0,28(sp)
    1084:	01812483          	lw	s1,24(sp)
    1088:	01412903          	lw	s2,20(sp)
    108c:	01012983          	lw	s3,16(sp)
    1090:	00c12a03          	lw	s4,12(sp)
    1094:	00812a83          	lw	s5,8(sp)
    1098:	00412b03          	lw	s6,4(sp)
    109c:	01000613          	li	a2,16
    10a0:	0f050513          	addi	a0,a0,240
    10a4:	02010113          	addi	sp,sp,32
    10a8:	7550306f          	j	4ffc <memcpy>
    10ac:	0000                	unimp
	...

000010b0 <AES_ECB_encrypt>:
    10b0:	fa010113          	addi	sp,sp,-96
    10b4:	03b12823          	sw	s11,48(sp)
    10b8:	04812e23          	sw	s0,92(sp)
    10bc:	04912c23          	sw	s1,88(sp)
    10c0:	05212a23          	sw	s2,84(sp)
    10c4:	05312823          	sw	s3,80(sp)
    10c8:	05412623          	sw	s4,76(sp)
    10cc:	05512423          	sw	s5,72(sp)
    10d0:	05612223          	sw	s6,68(sp)
    10d4:	05712023          	sw	s7,64(sp)
    10d8:	03812e23          	sw	s8,60(sp)
    10dc:	03912c23          	sw	s9,56(sp)
    10e0:	03a12a23          	sw	s10,52(sp)
    10e4:	00054703          	lbu	a4,0(a0)
    10e8:	0005c783          	lbu	a5,0(a1)
    10ec:	00050e13          	mv	t3,a0
    10f0:	0015c603          	lbu	a2,1(a1)
    10f4:	00e7c7b3          	xor	a5,a5,a4
    10f8:	00f58023          	sb	a5,0(a1)
    10fc:	02a12623          	sw	a0,44(sp)
    1100:	00154503          	lbu	a0,1(a0)
    1104:	0025c683          	lbu	a3,2(a1)
    1108:	0035c703          	lbu	a4,3(a1)
    110c:	00a64633          	xor	a2,a2,a0
    1110:	00c580a3          	sb	a2,1(a1)
    1114:	002e4603          	lbu	a2,2(t3)
    1118:	0045c783          	lbu	a5,4(a1)
    111c:	0055c883          	lbu	a7,5(a1)
    1120:	00c6c6b3          	xor	a3,a3,a2
    1124:	00d58123          	sb	a3,2(a1)
    1128:	003e4683          	lbu	a3,3(t3)
    112c:	0065c803          	lbu	a6,6(a1)
    1130:	0075c503          	lbu	a0,7(a1)
    1134:	00d74733          	xor	a4,a4,a3
    1138:	00e581a3          	sb	a4,3(a1)
    113c:	004e4303          	lbu	t1,4(t3)
    1140:	0085c603          	lbu	a2,8(a1)
    1144:	0095c683          	lbu	a3,9(a1)
    1148:	0067c7b3          	xor	a5,a5,t1
    114c:	00a5c703          	lbu	a4,10(a1)
    1150:	00f58223          	sb	a5,4(a1)
    1154:	005e4303          	lbu	t1,5(t3)
    1158:	00b5c783          	lbu	a5,11(a1)
    115c:	0068c8b3          	xor	a7,a7,t1
    1160:	011582a3          	sb	a7,5(a1)
    1164:	006e4883          	lbu	a7,6(t3)
    1168:	01184833          	xor	a6,a6,a7
    116c:	01058323          	sb	a6,6(a1)
    1170:	007e4803          	lbu	a6,7(t3)
    1174:	01054533          	xor	a0,a0,a6
    1178:	00a583a3          	sb	a0,7(a1)
    117c:	008e4503          	lbu	a0,8(t3)
    1180:	0e0e0813          	addi	a6,t3,224
    1184:	03012423          	sw	a6,40(sp)
    1188:	00a64633          	xor	a2,a2,a0
    118c:	00c58423          	sb	a2,8(a1)
    1190:	009e4603          	lbu	a2,9(t3)
    1194:	00c6c6b3          	xor	a3,a3,a2
    1198:	00d584a3          	sb	a3,9(a1)
    119c:	00ae4683          	lbu	a3,10(t3)
    11a0:	00d74733          	xor	a4,a4,a3
    11a4:	00e58523          	sb	a4,10(a1)
    11a8:	00be4703          	lbu	a4,11(t3)
    11ac:	00e5c683          	lbu	a3,14(a1)
    11b0:	00e7c7b3          	xor	a5,a5,a4
    11b4:	00f585a3          	sb	a5,11(a1)
    11b8:	00ce4603          	lbu	a2,12(t3)
    11bc:	00c5c703          	lbu	a4,12(a1)
    11c0:	00d5c783          	lbu	a5,13(a1)
    11c4:	00c74733          	xor	a4,a4,a2
    11c8:	00e58623          	sb	a4,12(a1)
    11cc:	00de4603          	lbu	a2,13(t3)
    11d0:	00f5c703          	lbu	a4,15(a1)
    11d4:	00c7c7b3          	xor	a5,a5,a2
    11d8:	00f586a3          	sb	a5,13(a1)
    11dc:	00ee4603          	lbu	a2,14(t3)
    11e0:	010e0793          	addi	a5,t3,16
    11e4:	00c6c6b3          	xor	a3,a3,a2
    11e8:	00d58723          	sb	a3,14(a1)
    11ec:	00fe4683          	lbu	a3,15(t3)
    11f0:	10000637          	lui	a2,0x10000
    11f4:	32c60d93          	addi	s11,a2,812 # 1000032c <sbox>
    11f8:	00d74733          	xor	a4,a4,a3
    11fc:	00e587a3          	sb	a4,15(a1)
    1200:	4340006f          	j	1634 <AES_ECB_encrypt+0x584>
    1204:	01434733          	xor	a4,t1,s4
    1208:	00775b93          	srli	s7,a4,0x7
    120c:	01c34633          	xor	a2,t1,t3
    1210:	011e43b3          	xor	t2,t3,a7
    1214:	00765b13          	srli	s6,a2,0x7
    1218:	003b9493          	slli	s1,s7,0x3
    121c:	0073dc93          	srli	s9,t2,0x7
    1220:	003b1413          	slli	s0,s6,0x3
    1224:	417484b3          	sub	s1,s1,s7
    1228:	003c9993          	slli	s3,s9,0x3
    122c:	41640433          	sub	s0,s0,s6
    1230:	00249493          	slli	s1,s1,0x2
    1234:	00774ab3          	xor	s5,a4,t2
    1238:	0148c533          	xor	a0,a7,s4
    123c:	417484b3          	sub	s1,s1,s7
    1240:	419989b3          	sub	s3,s3,s9
    1244:	00241413          	slli	s0,s0,0x2
    1248:	00171713          	slli	a4,a4,0x1
    124c:	00755c13          	srli	s8,a0,0x7
    1250:	41640433          	sub	s0,s0,s6
    1254:	014aca33          	xor	s4,s5,s4
    1258:	00e4c733          	xor	a4,s1,a4
    125c:	00299993          	slli	s3,s3,0x2
    1260:	00161613          	slli	a2,a2,0x1
    1264:	419989b3          	sub	s3,s3,s9
    1268:	01534333          	xor	t1,t1,s5
    126c:	01474733          	xor	a4,a4,s4
    1270:	003c1913          	slli	s2,s8,0x3
    1274:	00c44633          	xor	a2,s0,a2
    1278:	00139393          	slli	t2,t2,0x1
    127c:	01cace33          	xor	t3,s5,t3
    1280:	00664633          	xor	a2,a2,t1
    1284:	41890933          	sub	s2,s2,s8
    1288:	0ff77313          	zext.b	t1,a4
    128c:	0079c3b3          	xor	t2,s3,t2
    1290:	00c12703          	lw	a4,12(sp)
    1294:	01e844b3          	xor	s1,a6,t5
    1298:	01c3c3b3          	xor	t2,t2,t3
    129c:	00291913          	slli	s2,s2,0x2
    12a0:	00d84fb3          	xor	t6,a6,a3
    12a4:	0074d993          	srli	s3,s1,0x7
    12a8:	41890933          	sub	s2,s2,s8
    12ac:	0ff3fc93          	zext.b	s9,t2
    12b0:	00151513          	slli	a0,a0,0x1
    12b4:	0ff67393          	zext.b	t2,a2
    12b8:	007fda13          	srli	s4,t6,0x7
    12bc:	011ac8b3          	xor	a7,s5,a7
    12c0:	00a94533          	xor	a0,s2,a0
    12c4:	00712e23          	sw	t2,28(sp)
    12c8:	007581a3          	sb	t2,3(a1)
    12cc:	00ed43b3          	xor	t2,s10,a4
    12d0:	00399713          	slli	a4,s3,0x3
    12d4:	01df42b3          	xor	t0,t5,t4
    12d8:	01154533          	xor	a0,a0,a7
    12dc:	003a1613          	slli	a2,s4,0x3
    12e0:	41370733          	sub	a4,a4,s3
    12e4:	0072db13          	srli	s6,t0,0x7
    12e8:	0ff57893          	zext.b	a7,a0
    12ec:	41460633          	sub	a2,a2,s4
    12f0:	00271713          	slli	a4,a4,0x2
    12f4:	005fce33          	xor	t3,t6,t0
    12f8:	03112223          	sw	a7,36(sp)
    12fc:	011580a3          	sb	a7,1(a1)
    1300:	02612023          	sw	t1,32(sp)
    1304:	00658123          	sb	t1,2(a1)
    1308:	003b1893          	slli	a7,s6,0x3
    130c:	00dec333          	xor	t1,t4,a3
    1310:	41370733          	sub	a4,a4,s3
    1314:	00261613          	slli	a2,a2,0x2
    1318:	00149993          	slli	s3,s1,0x1
    131c:	00735a93          	srli	s5,t1,0x7
    1320:	01ee4f33          	xor	t5,t3,t5
    1324:	01de4eb3          	xor	t4,t3,t4
    1328:	00de46b3          	xor	a3,t3,a3
    132c:	416888b3          	sub	a7,a7,s6
    1330:	010e4e33          	xor	t3,t3,a6
    1334:	41460633          	sub	a2,a2,s4
    1338:	001f9f93          	slli	t6,t6,0x1
    133c:	01374733          	xor	a4,a4,s3
    1340:	01c74733          	xor	a4,a4,t3
    1344:	003a9513          	slli	a0,s5,0x3
    1348:	01f64633          	xor	a2,a2,t6
    134c:	00289893          	slli	a7,a7,0x2
    1350:	00812c03          	lw	s8,8(sp)
    1354:	416888b3          	sub	a7,a7,s6
    1358:	00d64633          	xor	a2,a2,a3
    135c:	41550533          	sub	a0,a0,s5
    1360:	0ff77693          	zext.b	a3,a4
    1364:	00129293          	slli	t0,t0,0x1
    1368:	00c12703          	lw	a4,12(sp)
    136c:	00412b83          	lw	s7,4(sp)
    1370:	0058c2b3          	xor	t0,a7,t0
    1374:	00251513          	slli	a0,a0,0x2
    1378:	01e2c2b3          	xor	t0,t0,t5
    137c:	41550533          	sub	a0,a0,s5
    1380:	00131313          	slli	t1,t1,0x1
    1384:	00654533          	xor	a0,a0,t1
    1388:	0ff2f313          	zext.b	t1,t0
    138c:	00ec42b3          	xor	t0,s8,a4
    1390:	018bc433          	xor	s0,s7,s8
    1394:	017d49b3          	xor	s3,s10,s7
    1398:	0072db93          	srli	s7,t0,0x7
    139c:	01d54533          	xor	a0,a0,t4
    13a0:	003b9f13          	slli	t5,s7,0x3
    13a4:	00012e03          	lw	t3,0(sp)
    13a8:	01012f83          	lw	t6,16(sp)
    13ac:	0ff57893          	zext.b	a7,a0
    13b0:	0ff67813          	zext.b	a6,a2
    13b4:	01812503          	lw	a0,24(sp)
    13b8:	01412603          	lw	a2,20(sp)
    13bc:	417f0f33          	sub	t5,t5,s7
    13c0:	002f1f13          	slli	t5,t5,0x2
    13c4:	00745913          	srli	s2,s0,0x7
    13c8:	417f0f33          	sub	t5,t5,s7
    13cc:	00129293          	slli	t0,t0,0x1
    13d0:	00a64533          	xor	a0,a2,a0
    13d4:	00412b83          	lw	s7,4(sp)
    13d8:	01fe4633          	xor	a2,t3,t6
    13dc:	005f42b3          	xor	t0,t5,t0
    13e0:	00391f93          	slli	t6,s2,0x3
    13e4:	00812f03          	lw	t5,8(sp)
    13e8:	0079da93          	srli	s5,s3,0x7
    13ec:	412f8fb3          	sub	t6,t6,s2
    13f0:	007444b3          	xor	s1,s0,t2
    13f4:	003a9713          	slli	a4,s5,0x3
    13f8:	002f9f93          	slli	t6,t6,0x2
    13fc:	412f8fb3          	sub	t6,t6,s2
    1400:	41570733          	sub	a4,a4,s5
    1404:	0174c933          	xor	s2,s1,s7
    1408:	01e4cbb3          	xor	s7,s1,t5
    140c:	00c12f03          	lw	t5,12(sp)
    1410:	0073db13          	srli	s6,t2,0x7
    1414:	00271713          	slli	a4,a4,0x2
    1418:	003b1e93          	slli	t4,s6,0x3
    141c:	41570733          	sub	a4,a4,s5
    1420:	00199993          	slli	s3,s3,0x1
    1424:	00141413          	slli	s0,s0,0x1
    1428:	416e8eb3          	sub	t4,t4,s6
    142c:	008fc433          	xor	s0,t6,s0
    1430:	01374733          	xor	a4,a4,s3
    1434:	01e4cfb3          	xor	t6,s1,t5
    1438:	01a4c4b3          	xor	s1,s1,s10
    143c:	00974733          	xor	a4,a4,s1
    1440:	002e9e93          	slli	t4,t4,0x2
    1444:	0ff77f13          	zext.b	t5,a4
    1448:	416e8eb3          	sub	t4,t4,s6
    144c:	00012703          	lw	a4,0(sp)
    1450:	00139393          	slli	t2,t2,0x1
    1454:	0172c2b3          	xor	t0,t0,s7
    1458:	01412b83          	lw	s7,20(sp)
    145c:	007eceb3          	xor	t4,t4,t2
    1460:	01feceb3          	xor	t4,t4,t6
    1464:	01812d03          	lw	s10,24(sp)
    1468:	0ffeff93          	zext.b	t6,t4
    146c:	01774733          	xor	a4,a4,s7
    1470:	01012e83          	lw	t4,16(sp)
    1474:	00765a93          	srli	s5,a2,0x7
    1478:	00775993          	srli	s3,a4,0x7
    147c:	01244433          	xor	s0,s0,s2
    1480:	0ff47393          	zext.b	t2,s0
    1484:	003a9493          	slli	s1,s5,0x3
    1488:	00399413          	slli	s0,s3,0x3
    148c:	01dd4eb3          	xor	t4,s10,t4
    1490:	415484b3          	sub	s1,s1,s5
    1494:	41340433          	sub	s0,s0,s3
    1498:	00755a13          	srli	s4,a0,0x7
    149c:	007edb13          	srli	s6,t4,0x7
    14a0:	00249493          	slli	s1,s1,0x2
    14a4:	00241413          	slli	s0,s0,0x2
    14a8:	00c54c33          	xor	s8,a0,a2
    14ac:	41340433          	sub	s0,s0,s3
    14b0:	00161613          	slli	a2,a2,0x1
    14b4:	003a1e13          	slli	t3,s4,0x3
    14b8:	003b1913          	slli	s2,s6,0x3
    14bc:	415484b3          	sub	s1,s1,s5
    14c0:	00171713          	slli	a4,a4,0x1
    14c4:	00e44733          	xor	a4,s0,a4
    14c8:	00c4c4b3          	xor	s1,s1,a2
    14cc:	00012403          	lw	s0,0(sp)
    14d0:	01012603          	lw	a2,16(sp)
    14d4:	414e0e33          	sub	t3,t3,s4
    14d8:	41690933          	sub	s2,s2,s6
    14dc:	002e1e13          	slli	t3,t3,0x2
    14e0:	00291913          	slli	s2,s2,0x2
    14e4:	00151513          	slli	a0,a0,0x1
    14e8:	001e9e93          	slli	t4,t4,0x1
    14ec:	414e0e33          	sub	t3,t3,s4
    14f0:	41690933          	sub	s2,s2,s6
    14f4:	00ae4e33          	xor	t3,t3,a0
    14f8:	01d94933          	xor	s2,s2,t4
    14fc:	017c4533          	xor	a0,s8,s7
    1500:	01ac4eb3          	xor	t4,s8,s10
    1504:	00cc4633          	xor	a2,s8,a2
    1508:	008c4c33          	xor	s8,s8,s0
    150c:	0ff2f293          	zext.b	t0,t0
    1510:	00ae4533          	xor	a0,t3,a0
    1514:	01d94eb3          	xor	t4,s2,t4
    1518:	00c4c633          	xor	a2,s1,a2
    151c:	01874c33          	xor	s8,a4,s8
    1520:	01958023          	sb	s9,0(a1)
    1524:	00658223          	sb	t1,4(a1)
    1528:	011582a3          	sb	a7,5(a1)
    152c:	01058323          	sb	a6,6(a1)
    1530:	00d583a3          	sb	a3,7(a1)
    1534:	00758423          	sb	t2,8(a1)
    1538:	005584a3          	sb	t0,9(a1)
    153c:	01f58523          	sb	t6,10(a1)
    1540:	01e585a3          	sb	t5,11(a1)
    1544:	0ff57513          	zext.b	a0,a0
    1548:	0ffefe93          	zext.b	t4,t4
    154c:	0ff67613          	zext.b	a2,a2
    1550:	0ffc7713          	zext.b	a4,s8
    1554:	00a58623          	sb	a0,12(a1)
    1558:	01d586a3          	sb	t4,13(a1)
    155c:	00c58723          	sb	a2,14(a1)
    1560:	00e587a3          	sb	a4,15(a1)
    1564:	0007ce03          	lbu	t3,0(a5)
    1568:	02412403          	lw	s0,36(sp)
    156c:	01078793          	addi	a5,a5,16
    1570:	01ccccb3          	xor	s9,s9,t3
    1574:	01958023          	sb	s9,0(a1)
    1578:	ff17ce03          	lbu	t3,-15(a5)
    157c:	01c44e33          	xor	t3,s0,t3
    1580:	01c580a3          	sb	t3,1(a1)
    1584:	ff27ce03          	lbu	t3,-14(a5)
    1588:	02012403          	lw	s0,32(sp)
    158c:	01c44e33          	xor	t3,s0,t3
    1590:	01c58123          	sb	t3,2(a1)
    1594:	ff37ce03          	lbu	t3,-13(a5)
    1598:	01c12403          	lw	s0,28(sp)
    159c:	01c44e33          	xor	t3,s0,t3
    15a0:	01c581a3          	sb	t3,3(a1)
    15a4:	ff47ce03          	lbu	t3,-12(a5)
    15a8:	01c34333          	xor	t1,t1,t3
    15ac:	00658223          	sb	t1,4(a1)
    15b0:	ff57c303          	lbu	t1,-11(a5)
    15b4:	0068c8b3          	xor	a7,a7,t1
    15b8:	011582a3          	sb	a7,5(a1)
    15bc:	ff67c883          	lbu	a7,-10(a5)
    15c0:	01184833          	xor	a6,a6,a7
    15c4:	01058323          	sb	a6,6(a1)
    15c8:	ff77c803          	lbu	a6,-9(a5)
    15cc:	0106c6b3          	xor	a3,a3,a6
    15d0:	00d583a3          	sb	a3,7(a1)
    15d4:	ff87c683          	lbu	a3,-8(a5)
    15d8:	00d3c3b3          	xor	t2,t2,a3
    15dc:	00758423          	sb	t2,8(a1)
    15e0:	ff97c683          	lbu	a3,-7(a5)
    15e4:	00d2c2b3          	xor	t0,t0,a3
    15e8:	005584a3          	sb	t0,9(a1)
    15ec:	ffa7c683          	lbu	a3,-6(a5)
    15f0:	00dfcfb3          	xor	t6,t6,a3
    15f4:	01f58523          	sb	t6,10(a1)
    15f8:	ffb7c683          	lbu	a3,-5(a5)
    15fc:	00df4f33          	xor	t5,t5,a3
    1600:	01e585a3          	sb	t5,11(a1)
    1604:	ffc7c683          	lbu	a3,-4(a5)
    1608:	00d54533          	xor	a0,a0,a3
    160c:	00a58623          	sb	a0,12(a1)
    1610:	ffd7c683          	lbu	a3,-3(a5)
    1614:	00deceb3          	xor	t4,t4,a3
    1618:	01d586a3          	sb	t4,13(a1)
    161c:	ffe7c683          	lbu	a3,-2(a5)
    1620:	00d64633          	xor	a2,a2,a3
    1624:	00c58723          	sb	a2,14(a1)
    1628:	fff7c683          	lbu	a3,-1(a5)
    162c:	00d74733          	xor	a4,a4,a3
    1630:	00e587a3          	sb	a4,15(a1)
    1634:	0085c903          	lbu	s2,8(a1)
    1638:	00c5c483          	lbu	s1,12(a1)
    163c:	0015c403          	lbu	s0,1(a1)
    1640:	00d5c383          	lbu	t2,13(a1)
    1644:	0025c283          	lbu	t0,2(a1)
    1648:	0065cf83          	lbu	t6,6(a1)
    164c:	0005ce03          	lbu	t3,0(a1)
    1650:	0045cf03          	lbu	t5,4(a1)
    1654:	0055c883          	lbu	a7,5(a1)
    1658:	0095ce83          	lbu	t4,9(a1)
    165c:	00a5c303          	lbu	t1,10(a1)
    1660:	00b5c603          	lbu	a2,11(a1)
    1664:	007d83b3          	add	t2,s11,t2
    1668:	012d8933          	add	s2,s11,s2
    166c:	009d84b3          	add	s1,s11,s1
    1670:	008d8433          	add	s0,s11,s0
    1674:	005d82b3          	add	t0,s11,t0
    1678:	01fd8fb3          	add	t6,s11,t6
    167c:	00044d03          	lbu	s10,0(s0)
    1680:	0003cc03          	lbu	s8,0(t2)
    1684:	00094b83          	lbu	s7,0(s2)
    1688:	0004c483          	lbu	s1,0(s1)
    168c:	0002c283          	lbu	t0,0(t0)
    1690:	000fcf83          	lbu	t6,0(t6)
    1694:	006d8333          	add	t1,s11,t1
    1698:	01cd8e33          	add	t3,s11,t3
    169c:	01ed8f33          	add	t5,s11,t5
    16a0:	011d88b3          	add	a7,s11,a7
    16a4:	01dd8eb3          	add	t4,s11,t4
    16a8:	00cd8633          	add	a2,s11,a2
    16ac:	00e5c683          	lbu	a3,14(a1)
    16b0:	0035c803          	lbu	a6,3(a1)
    16b4:	0075c503          	lbu	a0,7(a1)
    16b8:	00f5c703          	lbu	a4,15(a1)
    16bc:	01a12c23          	sw	s10,24(sp)
    16c0:	000e4e03          	lbu	t3,0(t3)
    16c4:	000f4f03          	lbu	t5,0(t5)
    16c8:	0008c883          	lbu	a7,0(a7)
    16cc:	000ece83          	lbu	t4,0(t4)
    16d0:	01712223          	sw	s7,4(sp)
    16d4:	00912a23          	sw	s1,20(sp)
    16d8:	01812423          	sw	s8,8(sp)
    16dc:	00512623          	sw	t0,12(sp)
    16e0:	01f12823          	sw	t6,16(sp)
    16e4:	00034a03          	lbu	s4,0(t1)
    16e8:	00064603          	lbu	a2,0(a2)
    16ec:	02812383          	lw	t2,40(sp)
    16f0:	00dd86b3          	add	a3,s11,a3
    16f4:	010d8833          	add	a6,s11,a6
    16f8:	00ad8533          	add	a0,s11,a0
    16fc:	00ed8733          	add	a4,s11,a4
    1700:	00c12023          	sw	a2,0(sp)
    1704:	0006c683          	lbu	a3,0(a3)
    1708:	00084803          	lbu	a6,0(a6)
    170c:	00054d03          	lbu	s10,0(a0)
    1710:	00074303          	lbu	t1,0(a4)
    1714:	ae7798e3          	bne	a5,t2,1204 <AES_ECB_encrypt+0x154>
    1718:	00c12403          	lw	s0,12(sp)
    171c:	00812483          	lw	s1,8(sp)
    1720:	01412603          	lw	a2,20(sp)
    1724:	00412503          	lw	a0,4(sp)
    1728:	00012f83          	lw	t6,0(sp)
    172c:	01012283          	lw	t0,16(sp)
    1730:	01812383          	lw	t2,24(sp)
    1734:	02c12703          	lw	a4,44(sp)
    1738:	01c58023          	sb	t3,0(a1)
    173c:	006581a3          	sb	t1,3(a1)
    1740:	01458123          	sb	s4,2(a1)
    1744:	011580a3          	sb	a7,1(a1)
    1748:	01e58223          	sb	t5,4(a1)
    174c:	01a585a3          	sb	s10,11(a1)
    1750:	00858523          	sb	s0,10(a1)
    1754:	009584a3          	sb	s1,9(a1)
    1758:	010583a3          	sb	a6,7(a1)
    175c:	00d58323          	sb	a3,6(a1)
    1760:	01d582a3          	sb	t4,5(a1)
    1764:	00c58623          	sb	a2,12(a1)
    1768:	00a58423          	sb	a0,8(a1)
    176c:	01f587a3          	sb	t6,15(a1)
    1770:	00558723          	sb	t0,14(a1)
    1774:	007586a3          	sb	t2,13(a1)
    1778:	0e074783          	lbu	a5,224(a4)
    177c:	00fe4e33          	xor	t3,t3,a5
    1780:	01c58023          	sb	t3,0(a1)
    1784:	0e174783          	lbu	a5,225(a4)
    1788:	00f8c8b3          	xor	a7,a7,a5
    178c:	011580a3          	sb	a7,1(a1)
    1790:	0e274783          	lbu	a5,226(a4)
    1794:	00fa4a33          	xor	s4,s4,a5
    1798:	01458123          	sb	s4,2(a1)
    179c:	0e374783          	lbu	a5,227(a4)
    17a0:	00f34333          	xor	t1,t1,a5
    17a4:	006581a3          	sb	t1,3(a1)
    17a8:	0e474783          	lbu	a5,228(a4)
    17ac:	05412903          	lw	s2,84(sp)
    17b0:	05012983          	lw	s3,80(sp)
    17b4:	00ff4f33          	xor	t5,t5,a5
    17b8:	01e58223          	sb	t5,4(a1)
    17bc:	0e574783          	lbu	a5,229(a4)
    17c0:	04c12a03          	lw	s4,76(sp)
    17c4:	04812a83          	lw	s5,72(sp)
    17c8:	00feceb3          	xor	t4,t4,a5
    17cc:	01d582a3          	sb	t4,5(a1)
    17d0:	0e674783          	lbu	a5,230(a4)
    17d4:	04412b03          	lw	s6,68(sp)
    17d8:	04012b83          	lw	s7,64(sp)
    17dc:	00f6c6b3          	xor	a3,a3,a5
    17e0:	00d58323          	sb	a3,6(a1)
    17e4:	0e774783          	lbu	a5,231(a4)
    17e8:	00f84833          	xor	a6,a6,a5
    17ec:	010583a3          	sb	a6,7(a1)
    17f0:	0e874783          	lbu	a5,232(a4)
    17f4:	00f547b3          	xor	a5,a0,a5
    17f8:	00f58423          	sb	a5,8(a1)
    17fc:	0e974783          	lbu	a5,233(a4)
    1800:	00f4c7b3          	xor	a5,s1,a5
    1804:	00f584a3          	sb	a5,9(a1)
    1808:	0ea74783          	lbu	a5,234(a4)
    180c:	05812483          	lw	s1,88(sp)
    1810:	00f447b3          	xor	a5,s0,a5
    1814:	00f58523          	sb	a5,10(a1)
    1818:	0eb74783          	lbu	a5,235(a4)
    181c:	05c12403          	lw	s0,92(sp)
    1820:	00fd47b3          	xor	a5,s10,a5
    1824:	00f585a3          	sb	a5,11(a1)
    1828:	0ec74783          	lbu	a5,236(a4)
    182c:	00f647b3          	xor	a5,a2,a5
    1830:	00f58623          	sb	a5,12(a1)
    1834:	0ed74783          	lbu	a5,237(a4)
    1838:	00f3c7b3          	xor	a5,t2,a5
    183c:	00f586a3          	sb	a5,13(a1)
    1840:	0ee74783          	lbu	a5,238(a4)
    1844:	00f2c7b3          	xor	a5,t0,a5
    1848:	00f58723          	sb	a5,14(a1)
    184c:	0ef74783          	lbu	a5,239(a4)
    1850:	00ffc7b3          	xor	a5,t6,a5
    1854:	00f587a3          	sb	a5,15(a1)
    1858:	03c12c03          	lw	s8,60(sp)
    185c:	03812c83          	lw	s9,56(sp)
    1860:	03412d03          	lw	s10,52(sp)
    1864:	03012d83          	lw	s11,48(sp)
    1868:	06010113          	addi	sp,sp,96
    186c:	00008067          	ret
	...

00001880 <AES_ECB_decrypt>:
    1880:	0e054783          	lbu	a5,224(a0)
    1884:	0005c703          	lbu	a4,0(a1)
    1888:	0015c603          	lbu	a2,1(a1)
    188c:	0025c683          	lbu	a3,2(a1)
    1890:	00e7c7b3          	xor	a5,a5,a4
    1894:	00f58023          	sb	a5,0(a1)
    1898:	0e154783          	lbu	a5,225(a0)
    189c:	0035c703          	lbu	a4,3(a1)
    18a0:	0045c883          	lbu	a7,4(a1)
    18a4:	00c7c7b3          	xor	a5,a5,a2
    18a8:	00f580a3          	sb	a5,1(a1)
    18ac:	0e254783          	lbu	a5,226(a0)
    18b0:	0055ce03          	lbu	t3,5(a1)
    18b4:	fd010113          	addi	sp,sp,-48
    18b8:	00d7c7b3          	xor	a5,a5,a3
    18bc:	00f58123          	sb	a5,2(a1)
    18c0:	0e354783          	lbu	a5,227(a0)
    18c4:	0065c303          	lbu	t1,6(a1)
    18c8:	0075c803          	lbu	a6,7(a1)
    18cc:	00e7c7b3          	xor	a5,a5,a4
    18d0:	00f581a3          	sb	a5,3(a1)
    18d4:	0e454783          	lbu	a5,228(a0)
    18d8:	0085c603          	lbu	a2,8(a1)
    18dc:	0095c683          	lbu	a3,9(a1)
    18e0:	0117c7b3          	xor	a5,a5,a7
    18e4:	00f58223          	sb	a5,4(a1)
    18e8:	0e554883          	lbu	a7,229(a0)
    18ec:	00a5c703          	lbu	a4,10(a1)
    18f0:	02812623          	sw	s0,44(sp)
    18f4:	01c8c8b3          	xor	a7,a7,t3
    18f8:	02912423          	sw	s1,40(sp)
    18fc:	03212223          	sw	s2,36(sp)
    1900:	03312023          	sw	s3,32(sp)
    1904:	01412e23          	sw	s4,28(sp)
    1908:	01512c23          	sw	s5,24(sp)
    190c:	01612a23          	sw	s6,20(sp)
    1910:	01712823          	sw	s7,16(sp)
    1914:	01812623          	sw	s8,12(sp)
    1918:	01912423          	sw	s9,8(sp)
    191c:	00b5c783          	lbu	a5,11(a1)
    1920:	011582a3          	sb	a7,5(a1)
    1924:	0e654883          	lbu	a7,230(a0)
    1928:	10000f37          	lui	t5,0x10000
    192c:	0d050e93          	addi	t4,a0,208
    1930:	0068c8b3          	xor	a7,a7,t1
    1934:	01158323          	sb	a7,6(a1)
    1938:	0e754883          	lbu	a7,231(a0)
    193c:	01058f93          	addi	t6,a1,16
    1940:	22cf0f13          	addi	t5,t5,556 # 1000022c <rsbox>
    1944:	01184833          	xor	a6,a6,a7
    1948:	010583a3          	sb	a6,7(a1)
    194c:	0e854803          	lbu	a6,232(a0)
    1950:	01064633          	xor	a2,a2,a6
    1954:	00c58423          	sb	a2,8(a1)
    1958:	0e954603          	lbu	a2,233(a0)
    195c:	00c6c6b3          	xor	a3,a3,a2
    1960:	00d584a3          	sb	a3,9(a1)
    1964:	0ea54683          	lbu	a3,234(a0)
    1968:	00d5c603          	lbu	a2,13(a1)
    196c:	00d74733          	xor	a4,a4,a3
    1970:	00e58523          	sb	a4,10(a1)
    1974:	0eb54703          	lbu	a4,235(a0)
    1978:	00e5c683          	lbu	a3,14(a1)
    197c:	00e7c7b3          	xor	a5,a5,a4
    1980:	00f585a3          	sb	a5,11(a1)
    1984:	0ec54783          	lbu	a5,236(a0)
    1988:	00c5c703          	lbu	a4,12(a1)
    198c:	00e7c7b3          	xor	a5,a5,a4
    1990:	00f58623          	sb	a5,12(a1)
    1994:	0ed54703          	lbu	a4,237(a0)
    1998:	00f5c783          	lbu	a5,15(a1)
    199c:	00c74733          	xor	a4,a4,a2
    19a0:	00e586a3          	sb	a4,13(a1)
    19a4:	0ee54703          	lbu	a4,238(a0)
    19a8:	00d74733          	xor	a4,a4,a3
    19ac:	00e58723          	sb	a4,14(a1)
    19b0:	0ef54703          	lbu	a4,239(a0)
    19b4:	00e7c7b3          	xor	a5,a5,a4
    19b8:	00f587a3          	sb	a5,15(a1)
    19bc:	00d5ca03          	lbu	s4,13(a1)
    19c0:	0095c683          	lbu	a3,9(a1)
    19c4:	0055c303          	lbu	t1,5(a1)
    19c8:	0015c403          	lbu	s0,1(a1)
    19cc:	0005ca83          	lbu	s5,0(a1)
    19d0:	0045c483          	lbu	s1,4(a1)
    19d4:	0085ce03          	lbu	t3,8(a1)
    19d8:	00c5c603          	lbu	a2,12(a1)
    19dc:	0025c883          	lbu	a7,2(a1)
    19e0:	00a5c983          	lbu	s3,10(a1)
    19e4:	0065c703          	lbu	a4,6(a1)
    19e8:	00e5c383          	lbu	t2,14(a1)
    19ec:	0035c783          	lbu	a5,3(a1)
    19f0:	0075c903          	lbu	s2,7(a1)
    19f4:	00b5c283          	lbu	t0,11(a1)
    19f8:	00f5c803          	lbu	a6,15(a1)
    19fc:	015f0ab3          	add	s5,t5,s5
    1a00:	009f04b3          	add	s1,t5,s1
    1a04:	01cf0e33          	add	t3,t5,t3
    1a08:	00cf0633          	add	a2,t5,a2
    1a0c:	014f0a33          	add	s4,t5,s4
    1a10:	008f0433          	add	s0,t5,s0
    1a14:	006f0333          	add	t1,t5,t1
    1a18:	00df06b3          	add	a3,t5,a3
    1a1c:	000aca83          	lbu	s5,0(s5)
    1a20:	0004c483          	lbu	s1,0(s1)
    1a24:	000e4e03          	lbu	t3,0(t3)
    1a28:	00064603          	lbu	a2,0(a2)
    1a2c:	000a4a03          	lbu	s4,0(s4)
    1a30:	00044403          	lbu	s0,0(s0)
    1a34:	00034303          	lbu	t1,0(t1)
    1a38:	0006c683          	lbu	a3,0(a3)
    1a3c:	013f09b3          	add	s3,t5,s3
    1a40:	007f03b3          	add	t2,t5,t2
    1a44:	011f08b3          	add	a7,t5,a7
    1a48:	00ef0733          	add	a4,t5,a4
    1a4c:	012f0933          	add	s2,t5,s2
    1a50:	005f02b3          	add	t0,t5,t0
    1a54:	010f0833          	add	a6,t5,a6
    1a58:	00ff07b3          	add	a5,t5,a5
    1a5c:	01558023          	sb	s5,0(a1)
    1a60:	00958223          	sb	s1,4(a1)
    1a64:	01c58423          	sb	t3,8(a1)
    1a68:	00c58623          	sb	a2,12(a1)
    1a6c:	014580a3          	sb	s4,1(a1)
    1a70:	008582a3          	sb	s0,5(a1)
    1a74:	006584a3          	sb	t1,9(a1)
    1a78:	00d586a3          	sb	a3,13(a1)
    1a7c:	0009c983          	lbu	s3,0(s3)
    1a80:	0003c383          	lbu	t2,0(t2)
    1a84:	0008c883          	lbu	a7,0(a7)
    1a88:	00074703          	lbu	a4,0(a4)
    1a8c:	00094903          	lbu	s2,0(s2)
    1a90:	0002c283          	lbu	t0,0(t0)
    1a94:	00084803          	lbu	a6,0(a6)
    1a98:	0007c783          	lbu	a5,0(a5)
    1a9c:	01358123          	sb	s3,2(a1)
    1aa0:	00758323          	sb	t2,6(a1)
    1aa4:	012581a3          	sb	s2,3(a1)
    1aa8:	005583a3          	sb	t0,7(a1)
    1aac:	01158523          	sb	a7,10(a1)
    1ab0:	00e58723          	sb	a4,14(a1)
    1ab4:	010585a3          	sb	a6,11(a1)
    1ab8:	00f587a3          	sb	a5,15(a1)
    1abc:	000ecb03          	lbu	s6,0(t4)
    1ac0:	016acab3          	xor	s5,s5,s6
    1ac4:	01558023          	sb	s5,0(a1)
    1ac8:	001eca83          	lbu	s5,1(t4)
    1acc:	015a4a33          	xor	s4,s4,s5
    1ad0:	014580a3          	sb	s4,1(a1)
    1ad4:	002eca03          	lbu	s4,2(t4)
    1ad8:	0149c9b3          	xor	s3,s3,s4
    1adc:	01358123          	sb	s3,2(a1)
    1ae0:	003ec983          	lbu	s3,3(t4)
    1ae4:	01394933          	xor	s2,s2,s3
    1ae8:	012581a3          	sb	s2,3(a1)
    1aec:	004ec903          	lbu	s2,4(t4)
    1af0:	0124c4b3          	xor	s1,s1,s2
    1af4:	00958223          	sb	s1,4(a1)
    1af8:	005ec483          	lbu	s1,5(t4)
    1afc:	00944433          	xor	s0,s0,s1
    1b00:	008582a3          	sb	s0,5(a1)
    1b04:	006ec403          	lbu	s0,6(t4)
    1b08:	0083c3b3          	xor	t2,t2,s0
    1b0c:	00758323          	sb	t2,6(a1)
    1b10:	007ec383          	lbu	t2,7(t4)
    1b14:	0072c2b3          	xor	t0,t0,t2
    1b18:	005583a3          	sb	t0,7(a1)
    1b1c:	008ec283          	lbu	t0,8(t4)
    1b20:	005e4e33          	xor	t3,t3,t0
    1b24:	01c58423          	sb	t3,8(a1)
    1b28:	009ece03          	lbu	t3,9(t4)
    1b2c:	01c34333          	xor	t1,t1,t3
    1b30:	006584a3          	sb	t1,9(a1)
    1b34:	00aec303          	lbu	t1,10(t4)
    1b38:	0068c8b3          	xor	a7,a7,t1
    1b3c:	01158523          	sb	a7,10(a1)
    1b40:	00bec883          	lbu	a7,11(t4)
    1b44:	01184833          	xor	a6,a6,a7
    1b48:	010585a3          	sb	a6,11(a1)
    1b4c:	00cec803          	lbu	a6,12(t4)
    1b50:	01064633          	xor	a2,a2,a6
    1b54:	00c58623          	sb	a2,12(a1)
    1b58:	00dec603          	lbu	a2,13(t4)
    1b5c:	00c6c6b3          	xor	a3,a3,a2
    1b60:	00d586a3          	sb	a3,13(a1)
    1b64:	00eec683          	lbu	a3,14(t4)
    1b68:	00d74733          	xor	a4,a4,a3
    1b6c:	00e58723          	sb	a4,14(a1)
    1b70:	00fec703          	lbu	a4,15(t4)
    1b74:	00e7c7b3          	xor	a5,a5,a4
    1b78:	00f587a3          	sb	a5,15(a1)
    1b7c:	25d50a63          	beq	a0,t4,1dd0 <AES_ECB_decrypt+0x550>
    1b80:	00058e13          	mv	t3,a1
    1b84:	000e4a83          	lbu	s5,0(t3)
    1b88:	001e4b83          	lbu	s7,1(t3)
    1b8c:	003e4983          	lbu	s3,3(t3)
    1b90:	007ad693          	srli	a3,s5,0x7
    1b94:	00369293          	slli	t0,a3,0x3
    1b98:	40d282b3          	sub	t0,t0,a3
    1b9c:	007bd793          	srli	a5,s7,0x7
    1ba0:	00229293          	slli	t0,t0,0x2
    1ba4:	00379713          	slli	a4,a5,0x3
    1ba8:	40d282b3          	sub	t0,t0,a3
    1bac:	001a9693          	slli	a3,s5,0x1
    1bb0:	40f70733          	sub	a4,a4,a5
    1bb4:	00d2c2b3          	xor	t0,t0,a3
    1bb8:	0ff2f293          	zext.b	t0,t0
    1bbc:	00271713          	slli	a4,a4,0x2
    1bc0:	0072d693          	srli	a3,t0,0x7
    1bc4:	40f70733          	sub	a4,a4,a5
    1bc8:	001b9793          	slli	a5,s7,0x1
    1bcc:	00f74733          	xor	a4,a4,a5
    1bd0:	00369893          	slli	a7,a3,0x3
    1bd4:	0ff77713          	zext.b	a4,a4
    1bd8:	40d888b3          	sub	a7,a7,a3
    1bdc:	00775793          	srli	a5,a4,0x7
    1be0:	00289893          	slli	a7,a7,0x2
    1be4:	00379813          	slli	a6,a5,0x3
    1be8:	40d888b3          	sub	a7,a7,a3
    1bec:	00129693          	slli	a3,t0,0x1
    1bf0:	40f80833          	sub	a6,a6,a5
    1bf4:	00d8c8b3          	xor	a7,a7,a3
    1bf8:	0ff8f893          	zext.b	a7,a7
    1bfc:	00281813          	slli	a6,a6,0x2
    1c00:	0078d693          	srli	a3,a7,0x7
    1c04:	40f80833          	sub	a6,a6,a5
    1c08:	00171793          	slli	a5,a4,0x1
    1c0c:	00f84833          	xor	a6,a6,a5
    1c10:	00369493          	slli	s1,a3,0x3
    1c14:	0ff87813          	zext.b	a6,a6
    1c18:	40d484b3          	sub	s1,s1,a3
    1c1c:	00785793          	srli	a5,a6,0x7
    1c20:	00249493          	slli	s1,s1,0x2
    1c24:	002e4a03          	lbu	s4,2(t3)
    1c28:	00379413          	slli	s0,a5,0x3
    1c2c:	40d484b3          	sub	s1,s1,a3
    1c30:	00189693          	slli	a3,a7,0x1
    1c34:	40f40433          	sub	s0,s0,a5
    1c38:	00d4c4b3          	xor	s1,s1,a3
    1c3c:	0079d693          	srli	a3,s3,0x7
    1c40:	00369313          	slli	t1,a3,0x3
    1c44:	00241413          	slli	s0,s0,0x2
    1c48:	007a5613          	srli	a2,s4,0x7
    1c4c:	40f40433          	sub	s0,s0,a5
    1c50:	40d30333          	sub	t1,t1,a3
    1c54:	00181793          	slli	a5,a6,0x1
    1c58:	00f44433          	xor	s0,s0,a5
    1c5c:	00231313          	slli	t1,t1,0x2
    1c60:	00361793          	slli	a5,a2,0x3
    1c64:	40c787b3          	sub	a5,a5,a2
    1c68:	40d30333          	sub	t1,t1,a3
    1c6c:	00199693          	slli	a3,s3,0x1
    1c70:	00d34333          	xor	t1,t1,a3
    1c74:	00279793          	slli	a5,a5,0x2
    1c78:	0ff37313          	zext.b	t1,t1
    1c7c:	40c787b3          	sub	a5,a5,a2
    1c80:	001a1613          	slli	a2,s4,0x1
    1c84:	00c7c7b3          	xor	a5,a5,a2
    1c88:	00735613          	srli	a2,t1,0x7
    1c8c:	00361913          	slli	s2,a2,0x3
    1c90:	40c90933          	sub	s2,s2,a2
    1c94:	00291913          	slli	s2,s2,0x2
    1c98:	40c90933          	sub	s2,s2,a2
    1c9c:	00131613          	slli	a2,t1,0x1
    1ca0:	0ff7f793          	zext.b	a5,a5
    1ca4:	00c94933          	xor	s2,s2,a2
    1ca8:	0077d393          	srli	t2,a5,0x7
    1cac:	0ff97913          	zext.b	s2,s2
    1cb0:	00795c13          	srli	s8,s2,0x7
    1cb4:	00339693          	slli	a3,t2,0x3
    1cb8:	407686b3          	sub	a3,a3,t2
    1cbc:	003c1613          	slli	a2,s8,0x3
    1cc0:	41860633          	sub	a2,a2,s8
    1cc4:	00269693          	slli	a3,a3,0x2
    1cc8:	407686b3          	sub	a3,a3,t2
    1ccc:	00261613          	slli	a2,a2,0x2
    1cd0:	00179393          	slli	t2,a5,0x1
    1cd4:	0076c6b3          	xor	a3,a3,t2
    1cd8:	41860633          	sub	a2,a2,s8
    1cdc:	00191c13          	slli	s8,s2,0x1
    1ce0:	0ff6f693          	zext.b	a3,a3
    1ce4:	014bcb33          	xor	s6,s7,s4
    1ce8:	01864633          	xor	a2,a2,s8
    1cec:	014acc33          	xor	s8,s5,s4
    1cf0:	017acab3          	xor	s5,s5,s7
    1cf4:	0076dc93          	srli	s9,a3,0x7
    1cf8:	0169cb33          	xor	s6,s3,s6
    1cfc:	0189cbb3          	xor	s7,s3,s8
    1d00:	015a4a33          	xor	s4,s4,s5
    1d04:	0159c9b3          	xor	s3,s3,s5
    1d08:	003c9393          	slli	t2,s9,0x3
    1d0c:	01774ab3          	xor	s5,a4,s7
    1d10:	0137c9b3          	xor	s3,a5,s3
    1d14:	0162cb33          	xor	s6,t0,s6
    1d18:	0142ca33          	xor	s4,t0,s4
    1d1c:	419383b3          	sub	t2,t2,s9
    1d20:	013349b3          	xor	s3,t1,s3
    1d24:	01674733          	xor	a4,a4,s6
    1d28:	0157c7b3          	xor	a5,a5,s5
    1d2c:	01434333          	xor	t1,t1,s4
    1d30:	00e8c733          	xor	a4,a7,a4
    1d34:	00f847b3          	xor	a5,a6,a5
    1d38:	00239393          	slli	t2,t2,0x2
    1d3c:	0138c8b3          	xor	a7,a7,s3
    1d40:	00684833          	xor	a6,a6,t1
    1d44:	0ff4f493          	zext.b	s1,s1
    1d48:	419383b3          	sub	t2,t2,s9
    1d4c:	00e6c733          	xor	a4,a3,a4
    1d50:	00169c93          	slli	s9,a3,0x1
    1d54:	00f947b3          	xor	a5,s2,a5
    1d58:	0116c6b3          	xor	a3,a3,a7
    1d5c:	01094933          	xor	s2,s2,a6
    1d60:	0ff47413          	zext.b	s0,s0
    1d64:	00e4c733          	xor	a4,s1,a4
    1d68:	00f4c7b3          	xor	a5,s1,a5
    1d6c:	00d4c6b3          	xor	a3,s1,a3
    1d70:	0193c3b3          	xor	t2,t2,s9
    1d74:	0124c4b3          	xor	s1,s1,s2
    1d78:	0ff3f393          	zext.b	t2,t2
    1d7c:	00e44733          	xor	a4,s0,a4
    1d80:	00f447b3          	xor	a5,s0,a5
    1d84:	00d446b3          	xor	a3,s0,a3
    1d88:	00944433          	xor	s0,s0,s1
    1d8c:	0ff67613          	zext.b	a2,a2
    1d90:	00e3c733          	xor	a4,t2,a4
    1d94:	00f3c7b3          	xor	a5,t2,a5
    1d98:	00d3c6b3          	xor	a3,t2,a3
    1d9c:	0083c3b3          	xor	t2,t2,s0
    1da0:	00e64733          	xor	a4,a2,a4
    1da4:	00f647b3          	xor	a5,a2,a5
    1da8:	00d646b3          	xor	a3,a2,a3
    1dac:	00764633          	xor	a2,a2,t2
    1db0:	00ee0023          	sb	a4,0(t3)
    1db4:	00fe00a3          	sb	a5,1(t3)
    1db8:	00de0123          	sb	a3,2(t3)
    1dbc:	00ce01a3          	sb	a2,3(t3)
    1dc0:	004e0e13          	addi	t3,t3,4
    1dc4:	ddfe10e3          	bne	t3,t6,1b84 <AES_ECB_decrypt+0x304>
    1dc8:	ff0e8e93          	addi	t4,t4,-16
    1dcc:	bf1ff06f          	j	19bc <AES_ECB_decrypt+0x13c>
    1dd0:	02c12403          	lw	s0,44(sp)
    1dd4:	02812483          	lw	s1,40(sp)
    1dd8:	02412903          	lw	s2,36(sp)
    1ddc:	02012983          	lw	s3,32(sp)
    1de0:	01c12a03          	lw	s4,28(sp)
    1de4:	01812a83          	lw	s5,24(sp)
    1de8:	01412b03          	lw	s6,20(sp)
    1dec:	01012b83          	lw	s7,16(sp)
    1df0:	00c12c03          	lw	s8,12(sp)
    1df4:	00812c83          	lw	s9,8(sp)
    1df8:	03010113          	addi	sp,sp,48
    1dfc:	00008067          	ret
	...

00001e10 <AES_CBC_encrypt_buffer>:
    1e10:	f9010113          	addi	sp,sp,-112
    1e14:	0f050793          	addi	a5,a0,240
    1e18:	06812623          	sw	s0,108(sp)
    1e1c:	06912423          	sw	s1,104(sp)
    1e20:	07212223          	sw	s2,100(sp)
    1e24:	07312023          	sw	s3,96(sp)
    1e28:	05412e23          	sw	s4,92(sp)
    1e2c:	05512c23          	sw	s5,88(sp)
    1e30:	05612a23          	sw	s6,84(sp)
    1e34:	05712823          	sw	s7,80(sp)
    1e38:	05812623          	sw	s8,76(sp)
    1e3c:	05912423          	sw	s9,72(sp)
    1e40:	05a12223          	sw	s10,68(sp)
    1e44:	05b12023          	sw	s11,64(sp)
    1e48:	02a12823          	sw	a0,48(sp)
    1e4c:	02c12a23          	sw	a2,52(sp)
    1e50:	02f12e23          	sw	a5,60(sp)
    1e54:	08060ae3          	beqz	a2,26e8 <__stack_size+0x6e8>
    1e58:	0e050713          	addi	a4,a0,224
    1e5c:	01050693          	addi	a3,a0,16
    1e60:	02e12423          	sw	a4,40(sp)
    1e64:	10000737          	lui	a4,0x10000
    1e68:	00058293          	mv	t0,a1
    1e6c:	02012623          	sw	zero,44(sp)
    1e70:	02d12c23          	sw	a3,56(sp)
    1e74:	32c70893          	addi	a7,a4,812 # 1000032c <sbox>
    1e78:	0007c703          	lbu	a4,0(a5)
    1e7c:	0002c483          	lbu	s1,0(t0)
    1e80:	0012c403          	lbu	s0,1(t0)
    1e84:	0022c383          	lbu	t2,2(t0)
    1e88:	00e4c4b3          	xor	s1,s1,a4
    1e8c:	0ff4f493          	zext.b	s1,s1
    1e90:	00928023          	sb	s1,0(t0)
    1e94:	0017c703          	lbu	a4,1(a5)
    1e98:	0032cf83          	lbu	t6,3(t0)
    1e9c:	0042cf03          	lbu	t5,4(t0)
    1ea0:	00e44433          	xor	s0,s0,a4
    1ea4:	0ff47413          	zext.b	s0,s0
    1ea8:	008280a3          	sb	s0,1(t0)
    1eac:	0027c703          	lbu	a4,2(a5)
    1eb0:	0052ce83          	lbu	t4,5(t0)
    1eb4:	0062ce03          	lbu	t3,6(t0)
    1eb8:	00e3c3b3          	xor	t2,t2,a4
    1ebc:	0ff3f393          	zext.b	t2,t2
    1ec0:	00728123          	sb	t2,2(t0)
    1ec4:	0037c703          	lbu	a4,3(a5)
    1ec8:	0072c303          	lbu	t1,7(t0)
    1ecc:	0082c803          	lbu	a6,8(t0)
    1ed0:	00efcfb3          	xor	t6,t6,a4
    1ed4:	0fffff93          	zext.b	t6,t6
    1ed8:	01f281a3          	sb	t6,3(t0)
    1edc:	0047c703          	lbu	a4,4(a5)
    1ee0:	0092c503          	lbu	a0,9(t0)
    1ee4:	00a2c583          	lbu	a1,10(t0)
    1ee8:	00ef4f33          	xor	t5,t5,a4
    1eec:	0fff7f13          	zext.b	t5,t5
    1ef0:	01e28223          	sb	t5,4(t0)
    1ef4:	0057c703          	lbu	a4,5(a5)
    1ef8:	00eeceb3          	xor	t4,t4,a4
    1efc:	0ffefe93          	zext.b	t4,t4
    1f00:	01d282a3          	sb	t4,5(t0)
    1f04:	0067c703          	lbu	a4,6(a5)
    1f08:	00ee4e33          	xor	t3,t3,a4
    1f0c:	0ffe7e13          	zext.b	t3,t3
    1f10:	01c28323          	sb	t3,6(t0)
    1f14:	0077c703          	lbu	a4,7(a5)
    1f18:	00e34333          	xor	t1,t1,a4
    1f1c:	0ff37313          	zext.b	t1,t1
    1f20:	006283a3          	sb	t1,7(t0)
    1f24:	0087c703          	lbu	a4,8(a5)
    1f28:	00e84833          	xor	a6,a6,a4
    1f2c:	0ff87813          	zext.b	a6,a6
    1f30:	01028423          	sb	a6,8(t0)
    1f34:	0097c703          	lbu	a4,9(a5)
    1f38:	00e54533          	xor	a0,a0,a4
    1f3c:	0ff57513          	zext.b	a0,a0
    1f40:	00a284a3          	sb	a0,9(t0)
    1f44:	00a7c703          	lbu	a4,10(a5)
    1f48:	00b2c603          	lbu	a2,11(t0)
    1f4c:	00c2c683          	lbu	a3,12(t0)
    1f50:	00e5c5b3          	xor	a1,a1,a4
    1f54:	0ff5f593          	zext.b	a1,a1
    1f58:	00b28523          	sb	a1,10(t0)
    1f5c:	00b7c983          	lbu	s3,11(a5)
    1f60:	00d2c703          	lbu	a4,13(t0)
    1f64:	00e2c903          	lbu	s2,14(t0)
    1f68:	01364633          	xor	a2,a2,s3
    1f6c:	0ff67613          	zext.b	a2,a2
    1f70:	00c285a3          	sb	a2,11(t0)
    1f74:	00c7ca03          	lbu	s4,12(a5)
    1f78:	00f2c983          	lbu	s3,15(t0)
    1f7c:	0146c6b3          	xor	a3,a3,s4
    1f80:	0ff6f693          	zext.b	a3,a3
    1f84:	00d28623          	sb	a3,12(t0)
    1f88:	00d7ca03          	lbu	s4,13(a5)
    1f8c:	01474733          	xor	a4,a4,s4
    1f90:	0ff77713          	zext.b	a4,a4
    1f94:	00e286a3          	sb	a4,13(t0)
    1f98:	00e7ca03          	lbu	s4,14(a5)
    1f9c:	01494933          	xor	s2,s2,s4
    1fa0:	0ff97913          	zext.b	s2,s2
    1fa4:	01228723          	sb	s2,14(t0)
    1fa8:	00f7c783          	lbu	a5,15(a5)
    1fac:	03012a03          	lw	s4,48(sp)
    1fb0:	00f9c7b3          	xor	a5,s3,a5
    1fb4:	0ff7f793          	zext.b	a5,a5
    1fb8:	00f287a3          	sb	a5,15(t0)
    1fbc:	000a4983          	lbu	s3,0(s4)
    1fc0:	0134c4b3          	xor	s1,s1,s3
    1fc4:	00928023          	sb	s1,0(t0)
    1fc8:	001a4483          	lbu	s1,1(s4)
    1fcc:	00944433          	xor	s0,s0,s1
    1fd0:	008280a3          	sb	s0,1(t0)
    1fd4:	002a4403          	lbu	s0,2(s4)
    1fd8:	0083c3b3          	xor	t2,t2,s0
    1fdc:	00728123          	sb	t2,2(t0)
    1fe0:	003a4383          	lbu	t2,3(s4)
    1fe4:	007fcfb3          	xor	t6,t6,t2
    1fe8:	01f281a3          	sb	t6,3(t0)
    1fec:	004a4f83          	lbu	t6,4(s4)
    1ff0:	01ff4f33          	xor	t5,t5,t6
    1ff4:	01e28223          	sb	t5,4(t0)
    1ff8:	005a4f03          	lbu	t5,5(s4)
    1ffc:	01eeceb3          	xor	t4,t4,t5
    2000:	01d282a3          	sb	t4,5(t0)
    2004:	006a4e83          	lbu	t4,6(s4)
    2008:	01de4e33          	xor	t3,t3,t4
    200c:	01c28323          	sb	t3,6(t0)
    2010:	007a4e03          	lbu	t3,7(s4)
    2014:	03812d83          	lw	s11,56(sp)
    2018:	01c34333          	xor	t1,t1,t3
    201c:	006283a3          	sb	t1,7(t0)
    2020:	008a4303          	lbu	t1,8(s4)
    2024:	00684833          	xor	a6,a6,t1
    2028:	01028423          	sb	a6,8(t0)
    202c:	009a4803          	lbu	a6,9(s4)
    2030:	01054533          	xor	a0,a0,a6
    2034:	00a284a3          	sb	a0,9(t0)
    2038:	00aa4503          	lbu	a0,10(s4)
    203c:	00a5c5b3          	xor	a1,a1,a0
    2040:	00b28523          	sb	a1,10(t0)
    2044:	00ba4583          	lbu	a1,11(s4)
    2048:	00b64633          	xor	a2,a2,a1
    204c:	00c285a3          	sb	a2,11(t0)
    2050:	00ca4603          	lbu	a2,12(s4)
    2054:	00c6c6b3          	xor	a3,a3,a2
    2058:	00d28623          	sb	a3,12(t0)
    205c:	00da4683          	lbu	a3,13(s4)
    2060:	00d74733          	xor	a4,a4,a3
    2064:	00e286a3          	sb	a4,13(t0)
    2068:	00ea4703          	lbu	a4,14(s4)
    206c:	00e94933          	xor	s2,s2,a4
    2070:	01228723          	sb	s2,14(t0)
    2074:	00fa4703          	lbu	a4,15(s4)
    2078:	00e7c7b3          	xor	a5,a5,a4
    207c:	00f287a3          	sb	a5,15(t0)
    2080:	4380006f          	j	24b8 <__stack_size+0x4b8>
    2084:	00cf4733          	xor	a4,t5,a2
    2088:	006e44b3          	xor	s1,t3,t1
    208c:	00775c13          	srli	s8,a4,0x7
    2090:	01cf4833          	xor	a6,t5,t3
    2094:	0074dd13          	srli	s10,s1,0x7
    2098:	00785b93          	srli	s7,a6,0x7
    209c:	003c1993          	slli	s3,s8,0x3
    20a0:	00c34eb3          	xor	t4,t1,a2
    20a4:	003d1a93          	slli	s5,s10,0x3
    20a8:	003b9913          	slli	s2,s7,0x3
    20ac:	418989b3          	sub	s3,s3,s8
    20b0:	007edc93          	srli	s9,t4,0x7
    20b4:	41aa8ab3          	sub	s5,s5,s10
    20b8:	41790933          	sub	s2,s2,s7
    20bc:	00299993          	slli	s3,s3,0x2
    20c0:	00974b33          	xor	s6,a4,s1
    20c4:	418989b3          	sub	s3,s3,s8
    20c8:	003c9a13          	slli	s4,s9,0x3
    20cc:	002a9a93          	slli	s5,s5,0x2
    20d0:	00291913          	slli	s2,s2,0x2
    20d4:	00171713          	slli	a4,a4,0x1
    20d8:	41aa8ab3          	sub	s5,s5,s10
    20dc:	41790933          	sub	s2,s2,s7
    20e0:	00cb4633          	xor	a2,s6,a2
    20e4:	419a0a33          	sub	s4,s4,s9
    20e8:	00e9c733          	xor	a4,s3,a4
    20ec:	00149493          	slli	s1,s1,0x1
    20f0:	00181813          	slli	a6,a6,0x1
    20f4:	01cb4e33          	xor	t3,s6,t3
    20f8:	016f4f33          	xor	t5,t5,s6
    20fc:	00c74733          	xor	a4,a4,a2
    2100:	009ac4b3          	xor	s1,s5,s1
    2104:	01094833          	xor	a6,s2,a6
    2108:	002a1a13          	slli	s4,s4,0x2
    210c:	419a0a33          	sub	s4,s4,s9
    2110:	01c4c4b3          	xor	s1,s1,t3
    2114:	00812c83          	lw	s9,8(sp)
    2118:	01e84833          	xor	a6,a6,t5
    211c:	001e9e93          	slli	t4,t4,0x1
    2120:	0ff77f13          	zext.b	t5,a4
    2124:	00c12703          	lw	a4,12(sp)
    2128:	00a3c9b3          	xor	s3,t2,a0
    212c:	006b4333          	xor	t1,s6,t1
    2130:	0ff4fd13          	zext.b	s10,s1
    2134:	01da4eb3          	xor	t4,s4,t4
    2138:	0ff87493          	zext.b	s1,a6
    213c:	00b54433          	xor	s0,a0,a1
    2140:	0079da13          	srli	s4,s3,0x7
    2144:	006eceb3          	xor	t4,t4,t1
    2148:	00912e23          	sw	s1,28(sp)
    214c:	009281a3          	sb	s1,3(t0)
    2150:	00d5c4b3          	xor	s1,a1,a3
    2154:	00745b93          	srli	s7,s0,0x7
    2158:	0ffefe13          	zext.b	t3,t4
    215c:	0074db13          	srli	s6,s1,0x7
    2160:	00ecceb3          	xor	t4,s9,a4
    2164:	00012603          	lw	a2,0(sp)
    2168:	003a1713          	slli	a4,s4,0x3
    216c:	00d3cfb3          	xor	t6,t2,a3
    2170:	003b9313          	slli	t1,s7,0x3
    2174:	003b1813          	slli	a6,s6,0x3
    2178:	41470733          	sub	a4,a4,s4
    217c:	007fda93          	srli	s5,t6,0x7
    2180:	41730333          	sub	t1,t1,s7
    2184:	41680833          	sub	a6,a6,s6
    2188:	00271713          	slli	a4,a4,0x2
    218c:	007ed913          	srli	s2,t4,0x7
    2190:	03c12223          	sw	t3,36(sp)
    2194:	01c280a3          	sb	t3,1(t0)
    2198:	03e12023          	sw	t5,32(sp)
    219c:	00f64e33          	xor	t3,a2,a5
    21a0:	01e28123          	sb	t5,2(t0)
    21a4:	003a9613          	slli	a2,s5,0x3
    21a8:	008fcf33          	xor	t5,t6,s0
    21ac:	00281813          	slli	a6,a6,0x2
    21b0:	41470733          	sub	a4,a4,s4
    21b4:	00199993          	slli	s3,s3,0x1
    21b8:	00231313          	slli	t1,t1,0x2
    21bc:	41730333          	sub	t1,t1,s7
    21c0:	00af4533          	xor	a0,t5,a0
    21c4:	00149b93          	slli	s7,s1,0x1
    21c8:	00bf45b3          	xor	a1,t5,a1
    21cc:	00df46b3          	xor	a3,t5,a3
    21d0:	41560633          	sub	a2,a2,s5
    21d4:	007f4f33          	xor	t5,t5,t2
    21d8:	41680b33          	sub	s6,a6,s6
    21dc:	01374733          	xor	a4,a4,s3
    21e0:	00391393          	slli	t2,s2,0x3
    21e4:	01e74733          	xor	a4,a4,t5
    21e8:	017b4b33          	xor	s6,s6,s7
    21ec:	412383b3          	sub	t2,t2,s2
    21f0:	00261613          	slli	a2,a2,0x2
    21f4:	00141413          	slli	s0,s0,0x1
    21f8:	00bb4b33          	xor	s6,s6,a1
    21fc:	0ff77c13          	zext.b	s8,a4
    2200:	41560633          	sub	a2,a2,s5
    2204:	00c12703          	lw	a4,12(sp)
    2208:	001f9f93          	slli	t6,t6,0x1
    220c:	00834433          	xor	s0,t1,s0
    2210:	00239393          	slli	t2,t2,0x2
    2214:	01cec4b3          	xor	s1,t4,t3
    2218:	01812b83          	lw	s7,24(sp)
    221c:	00a44433          	xor	s0,s0,a0
    2220:	01f64633          	xor	a2,a2,t6
    2224:	0ffb7513          	zext.b	a0,s6
    2228:	412383b3          	sub	t2,t2,s2
    222c:	01412b03          	lw	s6,20(sp)
    2230:	001e9e93          	slli	t4,t4,0x1
    2234:	00412303          	lw	t1,4(sp)
    2238:	01012f83          	lw	t6,16(sp)
    223c:	00d64633          	xor	a2,a2,a3
    2240:	01d3c3b3          	xor	t2,t2,t4
    2244:	00012683          	lw	a3,0(sp)
    2248:	00812e83          	lw	t4,8(sp)
    224c:	0ff47813          	zext.b	a6,s0
    2250:	00f74433          	xor	s0,a4,a5
    2254:	0ff67593          	zext.b	a1,a2
    2258:	017b4633          	xor	a2,s6,s7
    225c:	00745b93          	srli	s7,s0,0x7
    2260:	0196c9b3          	xor	s3,a3,s9
    2264:	01d4c933          	xor	s2,s1,t4
    2268:	01f346b3          	xor	a3,t1,t6
    226c:	00c12e83          	lw	t4,12(sp)
    2270:	003b9f93          	slli	t6,s7,0x3
    2274:	0079da93          	srli	s5,s3,0x7
    2278:	417f8fb3          	sub	t6,t6,s7
    227c:	007e5b13          	srli	s6,t3,0x7
    2280:	003a9713          	slli	a4,s5,0x3
    2284:	002f9f93          	slli	t6,t6,0x2
    2288:	417f8fb3          	sub	t6,t6,s7
    228c:	003b1f13          	slli	t5,s6,0x3
    2290:	01d4cbb3          	xor	s7,s1,t4
    2294:	41570733          	sub	a4,a4,s5
    2298:	00012e83          	lw	t4,0(sp)
    229c:	416f0f33          	sub	t5,t5,s6
    22a0:	00271713          	slli	a4,a4,0x2
    22a4:	41570733          	sub	a4,a4,s5
    22a8:	00199993          	slli	s3,s3,0x1
    22ac:	002f1f13          	slli	t5,t5,0x2
    22b0:	416f0f33          	sub	t5,t5,s6
    22b4:	00f4c7b3          	xor	a5,s1,a5
    22b8:	01374733          	xor	a4,a4,s3
    22bc:	01d4c4b3          	xor	s1,s1,t4
    22c0:	00141413          	slli	s0,s0,0x1
    22c4:	001e1e13          	slli	t3,t3,0x1
    22c8:	01cf4e33          	xor	t3,t5,t3
    22cc:	00974733          	xor	a4,a4,s1
    22d0:	008fc433          	xor	s0,t6,s0
    22d4:	01744433          	xor	s0,s0,s7
    22d8:	00fe47b3          	xor	a5,t3,a5
    22dc:	01812b83          	lw	s7,24(sp)
    22e0:	0ff77e13          	zext.b	t3,a4
    22e4:	01012703          	lw	a4,16(sp)
    22e8:	01412b03          	lw	s6,20(sp)
    22ec:	0ff7fe93          	zext.b	t4,a5
    22f0:	00ebc733          	xor	a4,s7,a4
    22f4:	00412783          	lw	a5,4(sp)
    22f8:	00775a93          	srli	s5,a4,0x7
    22fc:	0076d993          	srli	s3,a3,0x7
    2300:	0ff47f13          	zext.b	t5,s0
    2304:	003a9493          	slli	s1,s5,0x3
    2308:	00399413          	slli	s0,s3,0x3
    230c:	0167c7b3          	xor	a5,a5,s6
    2310:	415484b3          	sub	s1,s1,s5
    2314:	41340433          	sub	s0,s0,s3
    2318:	00765a13          	srli	s4,a2,0x7
    231c:	0123c3b3          	xor	t2,t2,s2
    2320:	00249493          	slli	s1,s1,0x2
    2324:	0077d913          	srli	s2,a5,0x7
    2328:	00241413          	slli	s0,s0,0x2
    232c:	00d64cb3          	xor	s9,a2,a3
    2330:	0ff3ff93          	zext.b	t6,t2
    2334:	00171713          	slli	a4,a4,0x1
    2338:	00391393          	slli	t2,s2,0x3
    233c:	00169693          	slli	a3,a3,0x1
    2340:	003a1313          	slli	t1,s4,0x3
    2344:	415484b3          	sub	s1,s1,s5
    2348:	41340433          	sub	s0,s0,s3
    234c:	01a28023          	sb	s10,0(t0)
    2350:	01028223          	sb	a6,4(t0)
    2354:	00a282a3          	sb	a0,5(t0)
    2358:	00b28323          	sb	a1,6(t0)
    235c:	018283a3          	sb	s8,7(t0)
    2360:	01f28423          	sb	t6,8(t0)
    2364:	01e284a3          	sb	t5,9(t0)
    2368:	01d28523          	sb	t4,10(t0)
    236c:	01c285a3          	sb	t3,11(t0)
    2370:	412383b3          	sub	t2,t2,s2
    2374:	00e4c4b3          	xor	s1,s1,a4
    2378:	00d44433          	xor	s0,s0,a3
    237c:	41430333          	sub	t1,t1,s4
    2380:	01012683          	lw	a3,16(sp)
    2384:	00412703          	lw	a4,4(sp)
    2388:	00231313          	slli	t1,t1,0x2
    238c:	00239393          	slli	t2,t2,0x2
    2390:	00161613          	slli	a2,a2,0x1
    2394:	412383b3          	sub	t2,t2,s2
    2398:	41430333          	sub	t1,t1,s4
    239c:	00179793          	slli	a5,a5,0x1
    23a0:	00c34333          	xor	t1,t1,a2
    23a4:	017cc933          	xor	s2,s9,s7
    23a8:	016cc633          	xor	a2,s9,s6
    23ac:	00dcc6b3          	xor	a3,s9,a3
    23b0:	00f3c7b3          	xor	a5,t2,a5
    23b4:	00ecccb3          	xor	s9,s9,a4
    23b8:	00c34633          	xor	a2,t1,a2
    23bc:	0124c4b3          	xor	s1,s1,s2
    23c0:	00d446b3          	xor	a3,s0,a3
    23c4:	0197ccb3          	xor	s9,a5,s9
    23c8:	0ff4f913          	zext.b	s2,s1
    23cc:	0ff6f713          	zext.b	a4,a3
    23d0:	0ff67613          	zext.b	a2,a2
    23d4:	0ffcf793          	zext.b	a5,s9
    23d8:	00c28623          	sb	a2,12(t0)
    23dc:	012286a3          	sb	s2,13(t0)
    23e0:	00e28723          	sb	a4,14(t0)
    23e4:	00f287a3          	sb	a5,15(t0)
    23e8:	000dc683          	lbu	a3,0(s11)
    23ec:	01c12483          	lw	s1,28(sp)
    23f0:	010d8d93          	addi	s11,s11,16
    23f4:	00dd4d33          	xor	s10,s10,a3
    23f8:	01a28023          	sb	s10,0(t0)
    23fc:	ff1dc303          	lbu	t1,-15(s11)
    2400:	02412683          	lw	a3,36(sp)
    2404:	0066c333          	xor	t1,a3,t1
    2408:	006280a3          	sb	t1,1(t0)
    240c:	ff2dc683          	lbu	a3,-14(s11)
    2410:	02012303          	lw	t1,32(sp)
    2414:	00d346b3          	xor	a3,t1,a3
    2418:	00d28123          	sb	a3,2(t0)
    241c:	ff3dc683          	lbu	a3,-13(s11)
    2420:	00d4c6b3          	xor	a3,s1,a3
    2424:	00d281a3          	sb	a3,3(t0)
    2428:	ff4dc683          	lbu	a3,-12(s11)
    242c:	00d84833          	xor	a6,a6,a3
    2430:	01028223          	sb	a6,4(t0)
    2434:	ff5dc683          	lbu	a3,-11(s11)
    2438:	00d54533          	xor	a0,a0,a3
    243c:	00a282a3          	sb	a0,5(t0)
    2440:	ff6dc683          	lbu	a3,-10(s11)
    2444:	00d5c5b3          	xor	a1,a1,a3
    2448:	00b28323          	sb	a1,6(t0)
    244c:	ff7dc683          	lbu	a3,-9(s11)
    2450:	00dc4c33          	xor	s8,s8,a3
    2454:	018283a3          	sb	s8,7(t0)
    2458:	ff8dc683          	lbu	a3,-8(s11)
    245c:	00dfcfb3          	xor	t6,t6,a3
    2460:	01f28423          	sb	t6,8(t0)
    2464:	ff9dc683          	lbu	a3,-7(s11)
    2468:	00df4f33          	xor	t5,t5,a3
    246c:	01e284a3          	sb	t5,9(t0)
    2470:	ffadc683          	lbu	a3,-6(s11)
    2474:	00deceb3          	xor	t4,t4,a3
    2478:	01d28523          	sb	t4,10(t0)
    247c:	ffbdc683          	lbu	a3,-5(s11)
    2480:	00de4e33          	xor	t3,t3,a3
    2484:	01c285a3          	sb	t3,11(t0)
    2488:	ffcdc683          	lbu	a3,-4(s11)
    248c:	00d64633          	xor	a2,a2,a3
    2490:	00c28623          	sb	a2,12(t0)
    2494:	ffddc683          	lbu	a3,-3(s11)
    2498:	00d94933          	xor	s2,s2,a3
    249c:	012286a3          	sb	s2,13(t0)
    24a0:	ffedc683          	lbu	a3,-2(s11)
    24a4:	00d74733          	xor	a4,a4,a3
    24a8:	00e28723          	sb	a4,14(t0)
    24ac:	fffdc703          	lbu	a4,-1(s11)
    24b0:	00e7c7b3          	xor	a5,a5,a4
    24b4:	00f287a3          	sb	a5,15(t0)
    24b8:	0082c903          	lbu	s2,8(t0)
    24bc:	00c2c483          	lbu	s1,12(t0)
    24c0:	0012c403          	lbu	s0,1(t0)
    24c4:	00d2c383          	lbu	t2,13(t0)
    24c8:	0062cf83          	lbu	t6,6(t0)
    24cc:	0002ce03          	lbu	t3,0(t0)
    24d0:	0042c503          	lbu	a0,4(t0)
    24d4:	0052c303          	lbu	t1,5(t0)
    24d8:	0092c583          	lbu	a1,9(t0)
    24dc:	0022c783          	lbu	a5,2(t0)
    24e0:	00a2c603          	lbu	a2,10(t0)
    24e4:	00e2c683          	lbu	a3,14(t0)
    24e8:	0072ce83          	lbu	t4,7(t0)
    24ec:	00b2c803          	lbu	a6,11(t0)
    24f0:	00888433          	add	s0,a7,s0
    24f4:	01288933          	add	s2,a7,s2
    24f8:	009884b3          	add	s1,a7,s1
    24fc:	007883b3          	add	t2,a7,t2
    2500:	01f88fb3          	add	t6,a7,t6
    2504:	00044b83          	lbu	s7,0(s0)
    2508:	0003c383          	lbu	t2,0(t2)
    250c:	00094c83          	lbu	s9,0(s2)
    2510:	0004cb03          	lbu	s6,0(s1)
    2514:	000fcf83          	lbu	t6,0(t6)
    2518:	01c88e33          	add	t3,a7,t3
    251c:	00a88533          	add	a0,a7,a0
    2520:	00688333          	add	t1,a7,t1
    2524:	00b885b3          	add	a1,a7,a1
    2528:	00f887b3          	add	a5,a7,a5
    252c:	00c88633          	add	a2,a7,a2
    2530:	00d886b3          	add	a3,a7,a3
    2534:	01d88eb3          	add	t4,a7,t4
    2538:	01088833          	add	a6,a7,a6
    253c:	0032cf03          	lbu	t5,3(t0)
    2540:	00f2c703          	lbu	a4,15(t0)
    2544:	00712623          	sw	t2,12(sp)
    2548:	000e4e03          	lbu	t3,0(t3)
    254c:	00054503          	lbu	a0,0(a0)
    2550:	00034303          	lbu	t1,0(t1)
    2554:	0005c583          	lbu	a1,0(a1)
    2558:	0007c783          	lbu	a5,0(a5)
    255c:	00064603          	lbu	a2,0(a2)
    2560:	01912423          	sw	s9,8(sp)
    2564:	01612a23          	sw	s6,20(sp)
    2568:	01712c23          	sw	s7,24(sp)
    256c:	01f12823          	sw	t6,16(sp)
    2570:	0006c683          	lbu	a3,0(a3)
    2574:	000ece83          	lbu	t4,0(t4)
    2578:	00084803          	lbu	a6,0(a6)
    257c:	02812403          	lw	s0,40(sp)
    2580:	01e88f33          	add	t5,a7,t5
    2584:	00e88733          	add	a4,a7,a4
    2588:	01d12023          	sw	t4,0(sp)
    258c:	01012223          	sw	a6,4(sp)
    2590:	000f4383          	lbu	t2,0(t5)
    2594:	00074f03          	lbu	t5,0(a4)
    2598:	afb416e3          	bne	s0,s11,2084 <__stack_size+0x84>
    259c:	00412803          	lw	a6,4(sp)
    25a0:	01012e83          	lw	t4,16(sp)
    25a4:	01812f83          	lw	t6,24(sp)
    25a8:	01412403          	lw	s0,20(sp)
    25ac:	00012483          	lw	s1,0(sp)
    25b0:	00c12983          	lw	s3,12(sp)
    25b4:	00812a03          	lw	s4,8(sp)
    25b8:	03012703          	lw	a4,48(sp)
    25bc:	01e281a3          	sb	t5,3(t0)
    25c0:	00c28123          	sb	a2,2(t0)
    25c4:	006280a3          	sb	t1,1(t0)
    25c8:	01c28023          	sb	t3,0(t0)
    25cc:	007283a3          	sb	t2,7(t0)
    25d0:	00d28323          	sb	a3,6(t0)
    25d4:	00b282a3          	sb	a1,5(t0)
    25d8:	00a28223          	sb	a0,4(t0)
    25dc:	010287a3          	sb	a6,15(t0)
    25e0:	01d28723          	sb	t4,14(t0)
    25e4:	01f286a3          	sb	t6,13(t0)
    25e8:	00828623          	sb	s0,12(t0)
    25ec:	009285a3          	sb	s1,11(t0)
    25f0:	00f28523          	sb	a5,10(t0)
    25f4:	013284a3          	sb	s3,9(t0)
    25f8:	01428423          	sb	s4,8(t0)
    25fc:	00078913          	mv	s2,a5
    2600:	0e074783          	lbu	a5,224(a4)
    2604:	00fe4e33          	xor	t3,t3,a5
    2608:	01c28023          	sb	t3,0(t0)
    260c:	0e174783          	lbu	a5,225(a4)
    2610:	00f34333          	xor	t1,t1,a5
    2614:	006280a3          	sb	t1,1(t0)
    2618:	0e274783          	lbu	a5,226(a4)
    261c:	00f64633          	xor	a2,a2,a5
    2620:	00c28123          	sb	a2,2(t0)
    2624:	0e374783          	lbu	a5,227(a4)
    2628:	00070613          	mv	a2,a4
    262c:	00ff4f33          	xor	t5,t5,a5
    2630:	01e281a3          	sb	t5,3(t0)
    2634:	0e474783          	lbu	a5,228(a4)
    2638:	00f54533          	xor	a0,a0,a5
    263c:	00a28223          	sb	a0,4(t0)
    2640:	0e574783          	lbu	a5,229(a4)
    2644:	00f5c5b3          	xor	a1,a1,a5
    2648:	00b282a3          	sb	a1,5(t0)
    264c:	0e674783          	lbu	a5,230(a4)
    2650:	00f6c6b3          	xor	a3,a3,a5
    2654:	00d28323          	sb	a3,6(t0)
    2658:	0e774783          	lbu	a5,231(a4)
    265c:	02c12683          	lw	a3,44(sp)
    2660:	00f3c3b3          	xor	t2,t2,a5
    2664:	007283a3          	sb	t2,7(t0)
    2668:	0e874783          	lbu	a5,232(a4)
    266c:	01068593          	addi	a1,a3,16
    2670:	02b12623          	sw	a1,44(sp)
    2674:	00fa47b3          	xor	a5,s4,a5
    2678:	00f28423          	sb	a5,8(t0)
    267c:	0e974783          	lbu	a5,233(a4)
    2680:	01028693          	addi	a3,t0,16
    2684:	00f9c7b3          	xor	a5,s3,a5
    2688:	00f284a3          	sb	a5,9(t0)
    268c:	0ea74783          	lbu	a5,234(a4)
    2690:	00f947b3          	xor	a5,s2,a5
    2694:	00f28523          	sb	a5,10(t0)
    2698:	0eb74783          	lbu	a5,235(a4)
    269c:	00f4c7b3          	xor	a5,s1,a5
    26a0:	00f285a3          	sb	a5,11(t0)
    26a4:	0ec74783          	lbu	a5,236(a4)
    26a8:	00f447b3          	xor	a5,s0,a5
    26ac:	00f28623          	sb	a5,12(t0)
    26b0:	0ed74703          	lbu	a4,237(a4)
    26b4:	00028793          	mv	a5,t0
    26b8:	00efc733          	xor	a4,t6,a4
    26bc:	00e286a3          	sb	a4,13(t0)
    26c0:	0ee64703          	lbu	a4,238(a2)
    26c4:	00eec733          	xor	a4,t4,a4
    26c8:	00e28723          	sb	a4,14(t0)
    26cc:	0ef64703          	lbu	a4,239(a2)
    26d0:	00e84733          	xor	a4,a6,a4
    26d4:	00e287a3          	sb	a4,15(t0)
    26d8:	03412703          	lw	a4,52(sp)
    26dc:	00e5f863          	bgeu	a1,a4,26ec <__stack_size+0x6ec>
    26e0:	00068293          	mv	t0,a3
    26e4:	f94ff06f          	j	1e78 <AES_CBC_encrypt_buffer+0x68>
    26e8:	03c12283          	lw	t0,60(sp)
    26ec:	06c12403          	lw	s0,108(sp)
    26f0:	03c12503          	lw	a0,60(sp)
    26f4:	06812483          	lw	s1,104(sp)
    26f8:	06412903          	lw	s2,100(sp)
    26fc:	06012983          	lw	s3,96(sp)
    2700:	05c12a03          	lw	s4,92(sp)
    2704:	05812a83          	lw	s5,88(sp)
    2708:	05412b03          	lw	s6,84(sp)
    270c:	05012b83          	lw	s7,80(sp)
    2710:	04c12c03          	lw	s8,76(sp)
    2714:	04812c83          	lw	s9,72(sp)
    2718:	04412d03          	lw	s10,68(sp)
    271c:	04012d83          	lw	s11,64(sp)
    2720:	01000613          	li	a2,16
    2724:	00028593          	mv	a1,t0
    2728:	07010113          	addi	sp,sp,112
    272c:	0d10206f          	j	4ffc <memcpy>

00002730 <AES_CBC_decrypt_buffer>:
    2730:	6a060863          	beqz	a2,2de0 <AES_CBC_decrypt_buffer+0x6b0>
    2734:	fa010113          	addi	sp,sp,-96
    2738:	04912a23          	sw	s1,84(sp)
    273c:	05512223          	sw	s5,68(sp)
    2740:	ff000493          	li	s1,-16
    2744:	0d050793          	addi	a5,a0,208
    2748:	10000ab7          	lui	s5,0x10000
    274c:	04812c23          	sw	s0,88(sp)
    2750:	05212823          	sw	s2,80(sp)
    2754:	05312623          	sw	s3,76(sp)
    2758:	05612023          	sw	s6,64(sp)
    275c:	03712e23          	sw	s7,60(sp)
    2760:	04112e23          	sw	ra,92(sp)
    2764:	05412423          	sw	s4,72(sp)
    2768:	03812c23          	sw	s8,56(sp)
    276c:	03912a23          	sw	s9,52(sp)
    2770:	03a12823          	sw	s10,48(sp)
    2774:	03b12623          	sw	s11,44(sp)
    2778:	00060413          	mv	s0,a2
    277c:	00050b93          	mv	s7,a0
    2780:	00058993          	mv	s3,a1
    2784:	01058b13          	addi	s6,a1,16
    2788:	40b484b3          	sub	s1,s1,a1
    278c:	00f12623          	sw	a5,12(sp)
    2790:	22ca8a93          	addi	s5,s5,556 # 1000022c <rsbox>
    2794:	0f050913          	addi	s2,a0,240
    2798:	01000613          	li	a2,16
    279c:	00098593          	mv	a1,s3
    27a0:	01010513          	addi	a0,sp,16
    27a4:	059020ef          	jal	ra,4ffc <memcpy>
    27a8:	0e0bc703          	lbu	a4,224(s7)
    27ac:	0009c783          	lbu	a5,0(s3)
    27b0:	0019c603          	lbu	a2,1(s3)
    27b4:	0029c683          	lbu	a3,2(s3)
    27b8:	00e7c7b3          	xor	a5,a5,a4
    27bc:	00f98023          	sb	a5,0(s3)
    27c0:	0e1bc583          	lbu	a1,225(s7)
    27c4:	0039c703          	lbu	a4,3(s3)
    27c8:	0049c783          	lbu	a5,4(s3)
    27cc:	00b64633          	xor	a2,a2,a1
    27d0:	00c980a3          	sb	a2,1(s3)
    27d4:	0e2bc603          	lbu	a2,226(s7)
    27d8:	0059c803          	lbu	a6,5(s3)
    27dc:	0069c503          	lbu	a0,6(s3)
    27e0:	00c6c6b3          	xor	a3,a3,a2
    27e4:	00d98123          	sb	a3,2(s3)
    27e8:	0e3bc683          	lbu	a3,227(s7)
    27ec:	0079c583          	lbu	a1,7(s3)
    27f0:	0089c603          	lbu	a2,8(s3)
    27f4:	00d74733          	xor	a4,a4,a3
    27f8:	00e981a3          	sb	a4,3(s3)
    27fc:	0e4bc883          	lbu	a7,228(s7)
    2800:	0099c683          	lbu	a3,9(s3)
    2804:	00a9c703          	lbu	a4,10(s3)
    2808:	0117c7b3          	xor	a5,a5,a7
    280c:	00f98223          	sb	a5,4(s3)
    2810:	0e5bc883          	lbu	a7,229(s7)
    2814:	00b9c783          	lbu	a5,11(s3)
    2818:	01184833          	xor	a6,a6,a7
    281c:	010982a3          	sb	a6,5(s3)
    2820:	0e6bc803          	lbu	a6,230(s7)
    2824:	01054533          	xor	a0,a0,a6
    2828:	00a98323          	sb	a0,6(s3)
    282c:	0e7bc503          	lbu	a0,231(s7)
    2830:	00a5c5b3          	xor	a1,a1,a0
    2834:	00b983a3          	sb	a1,7(s3)
    2838:	0e8bc583          	lbu	a1,232(s7)
    283c:	00b64633          	xor	a2,a2,a1
    2840:	00c98423          	sb	a2,8(s3)
    2844:	0e9bc603          	lbu	a2,233(s7)
    2848:	00c6c6b3          	xor	a3,a3,a2
    284c:	00d984a3          	sb	a3,9(s3)
    2850:	0eabc683          	lbu	a3,234(s7)
    2854:	00d9c603          	lbu	a2,13(s3)
    2858:	00c12c83          	lw	s9,12(sp)
    285c:	00d74733          	xor	a4,a4,a3
    2860:	00e98523          	sb	a4,10(s3)
    2864:	0ebbc703          	lbu	a4,235(s7)
    2868:	00e9c683          	lbu	a3,14(s3)
    286c:	00e7c7b3          	xor	a5,a5,a4
    2870:	00f985a3          	sb	a5,11(s3)
    2874:	0ecbc783          	lbu	a5,236(s7)
    2878:	00c9c703          	lbu	a4,12(s3)
    287c:	00e7c7b3          	xor	a5,a5,a4
    2880:	00f98623          	sb	a5,12(s3)
    2884:	0edbc703          	lbu	a4,237(s7)
    2888:	00f9c783          	lbu	a5,15(s3)
    288c:	00c74733          	xor	a4,a4,a2
    2890:	00e986a3          	sb	a4,13(s3)
    2894:	0eebc703          	lbu	a4,238(s7)
    2898:	00d74733          	xor	a4,a4,a3
    289c:	00e98723          	sb	a4,14(s3)
    28a0:	0efbc703          	lbu	a4,239(s7)
    28a4:	00e7c7b3          	xor	a5,a5,a4
    28a8:	00f987a3          	sb	a5,15(s3)
    28ac:	00d9c083          	lbu	ra,13(s3)
    28b0:	0099c703          	lbu	a4,9(s3)
    28b4:	0059c303          	lbu	t1,5(s3)
    28b8:	0019cf83          	lbu	t6,1(s3)
    28bc:	0009c503          	lbu	a0,0(s3)
    28c0:	0049c283          	lbu	t0,4(s3)
    28c4:	0089ce03          	lbu	t3,8(s3)
    28c8:	00c9c683          	lbu	a3,12(s3)
    28cc:	0029c883          	lbu	a7,2(s3)
    28d0:	00a9c383          	lbu	t2,10(s3)
    28d4:	0069c783          	lbu	a5,6(s3)
    28d8:	00e9cf03          	lbu	t5,14(s3)
    28dc:	0039c603          	lbu	a2,3(s3)
    28e0:	0079ce83          	lbu	t4,7(s3)
    28e4:	00b9c803          	lbu	a6,11(s3)
    28e8:	00f9c583          	lbu	a1,15(s3)
    28ec:	001a80b3          	add	ra,s5,ra
    28f0:	00aa8533          	add	a0,s5,a0
    28f4:	005a82b3          	add	t0,s5,t0
    28f8:	01ca8e33          	add	t3,s5,t3
    28fc:	00da86b3          	add	a3,s5,a3
    2900:	01fa8fb3          	add	t6,s5,t6
    2904:	006a8333          	add	t1,s5,t1
    2908:	00ea8733          	add	a4,s5,a4
    290c:	00054503          	lbu	a0,0(a0)
    2910:	0002c283          	lbu	t0,0(t0)
    2914:	000e4e03          	lbu	t3,0(t3)
    2918:	0006c683          	lbu	a3,0(a3)
    291c:	0000ca03          	lbu	s4,0(ra)
    2920:	000fcf83          	lbu	t6,0(t6)
    2924:	00034303          	lbu	t1,0(t1)
    2928:	00074703          	lbu	a4,0(a4)
    292c:	007a83b3          	add	t2,s5,t2
    2930:	01da8eb3          	add	t4,s5,t4
    2934:	010a8833          	add	a6,s5,a6
    2938:	01ea8f33          	add	t5,s5,t5
    293c:	011a88b3          	add	a7,s5,a7
    2940:	00fa87b3          	add	a5,s5,a5
    2944:	00ba85b3          	add	a1,s5,a1
    2948:	00ca8633          	add	a2,s5,a2
    294c:	00a98023          	sb	a0,0(s3)
    2950:	00598223          	sb	t0,4(s3)
    2954:	01c98423          	sb	t3,8(s3)
    2958:	00d98623          	sb	a3,12(s3)
    295c:	014980a3          	sb	s4,1(s3)
    2960:	01f982a3          	sb	t6,5(s3)
    2964:	006984a3          	sb	t1,9(s3)
    2968:	00e986a3          	sb	a4,13(s3)
    296c:	0003c083          	lbu	ra,0(t2)
    2970:	000ec383          	lbu	t2,0(t4)
    2974:	0005c583          	lbu	a1,0(a1)
    2978:	00084e83          	lbu	t4,0(a6)
    297c:	000f4f03          	lbu	t5,0(t5)
    2980:	0008c883          	lbu	a7,0(a7)
    2984:	0007c783          	lbu	a5,0(a5)
    2988:	00064603          	lbu	a2,0(a2)
    298c:	00198123          	sb	ra,2(s3)
    2990:	01e98323          	sb	t5,6(s3)
    2994:	007981a3          	sb	t2,3(s3)
    2998:	01d983a3          	sb	t4,7(s3)
    299c:	01198523          	sb	a7,10(s3)
    29a0:	00f98723          	sb	a5,14(s3)
    29a4:	00b985a3          	sb	a1,11(s3)
    29a8:	00c987a3          	sb	a2,15(s3)
    29ac:	000cc803          	lbu	a6,0(s9)
    29b0:	01054533          	xor	a0,a0,a6
    29b4:	00a98023          	sb	a0,0(s3)
    29b8:	001cc803          	lbu	a6,1(s9)
    29bc:	010a4a33          	xor	s4,s4,a6
    29c0:	014980a3          	sb	s4,1(s3)
    29c4:	002cc803          	lbu	a6,2(s9)
    29c8:	0100c0b3          	xor	ra,ra,a6
    29cc:	00198123          	sb	ra,2(s3)
    29d0:	003cc803          	lbu	a6,3(s9)
    29d4:	0103c3b3          	xor	t2,t2,a6
    29d8:	007981a3          	sb	t2,3(s3)
    29dc:	004cc803          	lbu	a6,4(s9)
    29e0:	0102c2b3          	xor	t0,t0,a6
    29e4:	00598223          	sb	t0,4(s3)
    29e8:	005cc803          	lbu	a6,5(s9)
    29ec:	010fcfb3          	xor	t6,t6,a6
    29f0:	01f982a3          	sb	t6,5(s3)
    29f4:	006cc803          	lbu	a6,6(s9)
    29f8:	010f4f33          	xor	t5,t5,a6
    29fc:	01e98323          	sb	t5,6(s3)
    2a00:	007cc803          	lbu	a6,7(s9)
    2a04:	010eceb3          	xor	t4,t4,a6
    2a08:	01d983a3          	sb	t4,7(s3)
    2a0c:	008cc803          	lbu	a6,8(s9)
    2a10:	010e4e33          	xor	t3,t3,a6
    2a14:	01c98423          	sb	t3,8(s3)
    2a18:	009cc803          	lbu	a6,9(s9)
    2a1c:	01034333          	xor	t1,t1,a6
    2a20:	006984a3          	sb	t1,9(s3)
    2a24:	00acc803          	lbu	a6,10(s9)
    2a28:	0108c8b3          	xor	a7,a7,a6
    2a2c:	01198523          	sb	a7,10(s3)
    2a30:	00bcc803          	lbu	a6,11(s9)
    2a34:	0105c833          	xor	a6,a1,a6
    2a38:	010985a3          	sb	a6,11(s3)
    2a3c:	00ccc583          	lbu	a1,12(s9)
    2a40:	00b6c6b3          	xor	a3,a3,a1
    2a44:	00d98623          	sb	a3,12(s3)
    2a48:	00dcc583          	lbu	a1,13(s9)
    2a4c:	00b74733          	xor	a4,a4,a1
    2a50:	00e986a3          	sb	a4,13(s3)
    2a54:	00ecc583          	lbu	a1,14(s9)
    2a58:	00b7c7b3          	xor	a5,a5,a1
    2a5c:	00f98723          	sb	a5,14(s3)
    2a60:	00fcc583          	lbu	a1,15(s9)
    2a64:	00b64633          	xor	a2,a2,a1
    2a68:	00c987a3          	sb	a2,15(s3)
    2a6c:	259b8a63          	beq	s7,s9,2cc0 <AES_CBC_decrypt_buffer+0x590>
    2a70:	00098513          	mv	a0,s3
    2a74:	00154c03          	lbu	s8,1(a0)
    2a78:	00054383          	lbu	t2,0(a0)
    2a7c:	00254a03          	lbu	s4,2(a0)
    2a80:	007c5793          	srli	a5,s8,0x7
    2a84:	00379713          	slli	a4,a5,0x3
    2a88:	0073d693          	srli	a3,t2,0x7
    2a8c:	40f70733          	sub	a4,a4,a5
    2a90:	00369e93          	slli	t4,a3,0x3
    2a94:	00271713          	slli	a4,a4,0x2
    2a98:	40de8eb3          	sub	t4,t4,a3
    2a9c:	40f70733          	sub	a4,a4,a5
    2aa0:	001c1793          	slli	a5,s8,0x1
    2aa4:	00f74733          	xor	a4,a4,a5
    2aa8:	002e9e93          	slli	t4,t4,0x2
    2aac:	0ff77713          	zext.b	a4,a4
    2ab0:	40de8eb3          	sub	t4,t4,a3
    2ab4:	00139693          	slli	a3,t2,0x1
    2ab8:	00775793          	srli	a5,a4,0x7
    2abc:	00deceb3          	xor	t4,t4,a3
    2ac0:	0ffefe93          	zext.b	t4,t4
    2ac4:	00379813          	slli	a6,a5,0x3
    2ac8:	007ed693          	srli	a3,t4,0x7
    2acc:	40f80833          	sub	a6,a6,a5
    2ad0:	00369313          	slli	t1,a3,0x3
    2ad4:	00281813          	slli	a6,a6,0x2
    2ad8:	40d30333          	sub	t1,t1,a3
    2adc:	40f80833          	sub	a6,a6,a5
    2ae0:	00171793          	slli	a5,a4,0x1
    2ae4:	00f84833          	xor	a6,a6,a5
    2ae8:	00231313          	slli	t1,t1,0x2
    2aec:	0ff87813          	zext.b	a6,a6
    2af0:	40d30333          	sub	t1,t1,a3
    2af4:	001e9693          	slli	a3,t4,0x1
    2af8:	00785793          	srli	a5,a6,0x7
    2afc:	00d34333          	xor	t1,t1,a3
    2b00:	0ff37313          	zext.b	t1,t1
    2b04:	00379593          	slli	a1,a5,0x3
    2b08:	00735693          	srli	a3,t1,0x7
    2b0c:	40f585b3          	sub	a1,a1,a5
    2b10:	00369f13          	slli	t5,a3,0x3
    2b14:	00259593          	slli	a1,a1,0x2
    2b18:	00354283          	lbu	t0,3(a0)
    2b1c:	007a5613          	srli	a2,s4,0x7
    2b20:	40df0f33          	sub	t5,t5,a3
    2b24:	40f585b3          	sub	a1,a1,a5
    2b28:	00181793          	slli	a5,a6,0x1
    2b2c:	00f5c5b3          	xor	a1,a1,a5
    2b30:	002f1f13          	slli	t5,t5,0x2
    2b34:	00361793          	slli	a5,a2,0x3
    2b38:	40df0f33          	sub	t5,t5,a3
    2b3c:	40c787b3          	sub	a5,a5,a2
    2b40:	00131693          	slli	a3,t1,0x1
    2b44:	00df4f33          	xor	t5,t5,a3
    2b48:	00279793          	slli	a5,a5,0x2
    2b4c:	0072d693          	srli	a3,t0,0x7
    2b50:	00369e13          	slli	t3,a3,0x3
    2b54:	40c787b3          	sub	a5,a5,a2
    2b58:	001a1613          	slli	a2,s4,0x1
    2b5c:	40de0e33          	sub	t3,t3,a3
    2b60:	00c7c7b3          	xor	a5,a5,a2
    2b64:	0ff7f793          	zext.b	a5,a5
    2b68:	002e1e13          	slli	t3,t3,0x2
    2b6c:	0077d893          	srli	a7,a5,0x7
    2b70:	40de0e33          	sub	t3,t3,a3
    2b74:	00129693          	slli	a3,t0,0x1
    2b78:	00de4e33          	xor	t3,t3,a3
    2b7c:	00389693          	slli	a3,a7,0x3
    2b80:	411686b3          	sub	a3,a3,a7
    2b84:	00269693          	slli	a3,a3,0x2
    2b88:	411686b3          	sub	a3,a3,a7
    2b8c:	00179893          	slli	a7,a5,0x1
    2b90:	0ffe7e13          	zext.b	t3,t3
    2b94:	0116c6b3          	xor	a3,a3,a7
    2b98:	007e5613          	srli	a2,t3,0x7
    2b9c:	0ff6f693          	zext.b	a3,a3
    2ba0:	0076dd13          	srli	s10,a3,0x7
    2ba4:	00361f93          	slli	t6,a2,0x3
    2ba8:	40cf8fb3          	sub	t6,t6,a2
    2bac:	003d1893          	slli	a7,s10,0x3
    2bb0:	41a888b3          	sub	a7,a7,s10
    2bb4:	002f9f93          	slli	t6,t6,0x2
    2bb8:	40cf8fb3          	sub	t6,t6,a2
    2bbc:	00289893          	slli	a7,a7,0x2
    2bc0:	001e1613          	slli	a2,t3,0x1
    2bc4:	00cfcfb3          	xor	t6,t6,a2
    2bc8:	41a888b3          	sub	a7,a7,s10
    2bcc:	00169d13          	slli	s10,a3,0x1
    2bd0:	0fffff93          	zext.b	t6,t6
    2bd4:	014c40b3          	xor	ra,s8,s4
    2bd8:	01a8c8b3          	xor	a7,a7,s10
    2bdc:	0143cd33          	xor	s10,t2,s4
    2be0:	0183c3b3          	xor	t2,t2,s8
    2be4:	007fdd93          	srli	s11,t6,0x7
    2be8:	0012c0b3          	xor	ra,t0,ra
    2bec:	01a2cc33          	xor	s8,t0,s10
    2bf0:	0053c2b3          	xor	t0,t2,t0
    2bf4:	0143c3b3          	xor	t2,t2,s4
    2bf8:	003d9613          	slli	a2,s11,0x3
    2bfc:	01874a33          	xor	s4,a4,s8
    2c00:	0057c2b3          	xor	t0,a5,t0
    2c04:	001ec0b3          	xor	ra,t4,ra
    2c08:	007ec3b3          	xor	t2,t4,t2
    2c0c:	41b60633          	sub	a2,a2,s11
    2c10:	005e42b3          	xor	t0,t3,t0
    2c14:	00174733          	xor	a4,a4,ra
    2c18:	0147c7b3          	xor	a5,a5,s4
    2c1c:	007e4e33          	xor	t3,t3,t2
    2c20:	00e34733          	xor	a4,t1,a4
    2c24:	00f847b3          	xor	a5,a6,a5
    2c28:	00261613          	slli	a2,a2,0x2
    2c2c:	00534333          	xor	t1,t1,t0
    2c30:	01c84833          	xor	a6,a6,t3
    2c34:	0fff7f13          	zext.b	t5,t5
    2c38:	41b60633          	sub	a2,a2,s11
    2c3c:	00e6c733          	xor	a4,a3,a4
    2c40:	001f9d93          	slli	s11,t6,0x1
    2c44:	00ffc7b3          	xor	a5,t6,a5
    2c48:	0066c6b3          	xor	a3,a3,t1
    2c4c:	010fcfb3          	xor	t6,t6,a6
    2c50:	0ff5f593          	zext.b	a1,a1
    2c54:	00ef4733          	xor	a4,t5,a4
    2c58:	00ff47b3          	xor	a5,t5,a5
    2c5c:	00df46b3          	xor	a3,t5,a3
    2c60:	01ff4f33          	xor	t5,t5,t6
    2c64:	0ff8f893          	zext.b	a7,a7
    2c68:	00e5c733          	xor	a4,a1,a4
    2c6c:	00f5c7b3          	xor	a5,a1,a5
    2c70:	00d5c6b3          	xor	a3,a1,a3
    2c74:	01b64633          	xor	a2,a2,s11
    2c78:	01e5c5b3          	xor	a1,a1,t5
    2c7c:	0ff67613          	zext.b	a2,a2
    2c80:	00e8c733          	xor	a4,a7,a4
    2c84:	00f8c7b3          	xor	a5,a7,a5
    2c88:	00d8c6b3          	xor	a3,a7,a3
    2c8c:	00b8c8b3          	xor	a7,a7,a1
    2c90:	00e64733          	xor	a4,a2,a4
    2c94:	00f647b3          	xor	a5,a2,a5
    2c98:	00d646b3          	xor	a3,a2,a3
    2c9c:	01164633          	xor	a2,a2,a7
    2ca0:	00e50023          	sb	a4,0(a0)
    2ca4:	00f500a3          	sb	a5,1(a0)
    2ca8:	00d50123          	sb	a3,2(a0)
    2cac:	00c501a3          	sb	a2,3(a0)
    2cb0:	00450513          	addi	a0,a0,4
    2cb4:	dd6510e3          	bne	a0,s6,2a74 <AES_CBC_decrypt_buffer+0x344>
    2cb8:	ff0c8c93          	addi	s9,s9,-16
    2cbc:	bf1ff06f          	j	28ac <AES_CBC_decrypt_buffer+0x17c>
    2cc0:	0f0bcc83          	lbu	s9,240(s7)
    2cc4:	00060c13          	mv	s8,a2
    2cc8:	01010593          	addi	a1,sp,16
    2ccc:	01954533          	xor	a0,a0,s9
    2cd0:	00a98023          	sb	a0,0(s3)
    2cd4:	0f1bcc83          	lbu	s9,241(s7)
    2cd8:	01000613          	li	a2,16
    2cdc:	00090513          	mv	a0,s2
    2ce0:	019a4a33          	xor	s4,s4,s9
    2ce4:	014980a3          	sb	s4,1(s3)
    2ce8:	0f2bca03          	lbu	s4,242(s7)
    2cec:	010b0b13          	addi	s6,s6,16
    2cf0:	01098993          	addi	s3,s3,16
    2cf4:	0140c0b3          	xor	ra,ra,s4
    2cf8:	fe198923          	sb	ra,-14(s3)
    2cfc:	0f3bc083          	lbu	ra,243(s7)
    2d00:	0013c3b3          	xor	t2,t2,ra
    2d04:	fe7989a3          	sb	t2,-13(s3)
    2d08:	0f4bc383          	lbu	t2,244(s7)
    2d0c:	0072c2b3          	xor	t0,t0,t2
    2d10:	fe598a23          	sb	t0,-12(s3)
    2d14:	0f5bc283          	lbu	t0,245(s7)
    2d18:	005fcfb3          	xor	t6,t6,t0
    2d1c:	fff98aa3          	sb	t6,-11(s3)
    2d20:	0f6bcf83          	lbu	t6,246(s7)
    2d24:	01ff4f33          	xor	t5,t5,t6
    2d28:	ffe98b23          	sb	t5,-10(s3)
    2d2c:	0f7bcf03          	lbu	t5,247(s7)
    2d30:	01eeceb3          	xor	t4,t4,t5
    2d34:	ffd98ba3          	sb	t4,-9(s3)
    2d38:	0f8bce83          	lbu	t4,248(s7)
    2d3c:	01de4e33          	xor	t3,t3,t4
    2d40:	ffc98c23          	sb	t3,-8(s3)
    2d44:	0f9bce03          	lbu	t3,249(s7)
    2d48:	01c34333          	xor	t1,t1,t3
    2d4c:	fe698ca3          	sb	t1,-7(s3)
    2d50:	0fabc303          	lbu	t1,250(s7)
    2d54:	0068c8b3          	xor	a7,a7,t1
    2d58:	ff198d23          	sb	a7,-6(s3)
    2d5c:	0fbbc883          	lbu	a7,251(s7)
    2d60:	01184833          	xor	a6,a6,a7
    2d64:	ff098da3          	sb	a6,-5(s3)
    2d68:	0fcbc803          	lbu	a6,252(s7)
    2d6c:	0106c6b3          	xor	a3,a3,a6
    2d70:	fed98e23          	sb	a3,-4(s3)
    2d74:	0fdbc683          	lbu	a3,253(s7)
    2d78:	00d74733          	xor	a4,a4,a3
    2d7c:	fee98ea3          	sb	a4,-3(s3)
    2d80:	0febc703          	lbu	a4,254(s7)
    2d84:	00e7c7b3          	xor	a5,a5,a4
    2d88:	fef98f23          	sb	a5,-2(s3)
    2d8c:	0ffbc783          	lbu	a5,255(s7)
    2d90:	00fc4c33          	xor	s8,s8,a5
    2d94:	ff898fa3          	sb	s8,-1(s3)
    2d98:	264020ef          	jal	ra,4ffc <memcpy>
    2d9c:	016487b3          	add	a5,s1,s6
    2da0:	9e87ece3          	bltu	a5,s0,2798 <AES_CBC_decrypt_buffer+0x68>
    2da4:	05c12083          	lw	ra,92(sp)
    2da8:	05812403          	lw	s0,88(sp)
    2dac:	05412483          	lw	s1,84(sp)
    2db0:	05012903          	lw	s2,80(sp)
    2db4:	04c12983          	lw	s3,76(sp)
    2db8:	04812a03          	lw	s4,72(sp)
    2dbc:	04412a83          	lw	s5,68(sp)
    2dc0:	04012b03          	lw	s6,64(sp)
    2dc4:	03c12b83          	lw	s7,60(sp)
    2dc8:	03812c03          	lw	s8,56(sp)
    2dcc:	03412c83          	lw	s9,52(sp)
    2dd0:	03012d03          	lw	s10,48(sp)
    2dd4:	02c12d83          	lw	s11,44(sp)
    2dd8:	06010113          	addi	sp,sp,96
    2ddc:	00008067          	ret
    2de0:	00008067          	ret
	...

00002df0 <AES_CTR_xcrypt_buffer>:
    2df0:	f4010113          	addi	sp,sp,-192
    2df4:	00c587b3          	add	a5,a1,a2
    2df8:	0a112e23          	sw	ra,188(sp)
    2dfc:	0a812c23          	sw	s0,184(sp)
    2e00:	0a912a23          	sw	s1,180(sp)
    2e04:	0b212823          	sw	s2,176(sp)
    2e08:	0b312623          	sw	s3,172(sp)
    2e0c:	0b412423          	sw	s4,168(sp)
    2e10:	0b512223          	sw	s5,164(sp)
    2e14:	0b612023          	sw	s6,160(sp)
    2e18:	09712e23          	sw	s7,156(sp)
    2e1c:	09812c23          	sw	s8,152(sp)
    2e20:	09912a23          	sw	s9,148(sp)
    2e24:	09a12823          	sw	s10,144(sp)
    2e28:	09b12623          	sw	s11,140(sp)
    2e2c:	04b12e23          	sw	a1,92(sp)
    2e30:	06a12423          	sw	a0,104(sp)
    2e34:	06f12223          	sw	a5,100(sp)
    2e38:	04060a63          	beqz	a2,2e8c <AES_CTR_xcrypt_buffer+0x9c>
    2e3c:	0f050793          	addi	a5,a0,240
    2e40:	06f12623          	sw	a5,108(sp)
    2e44:	0e050793          	addi	a5,a0,224
    2e48:	01000713          	li	a4,16
    2e4c:	06f12023          	sw	a5,96(sp)
    2e50:	01000793          	li	a5,16
    2e54:	06f70a63          	beq	a4,a5,2ec8 <AES_CTR_xcrypt_buffer+0xd8>
    2e58:	00070793          	mv	a5,a4
    2e5c:	00170713          	addi	a4,a4,1
    2e60:	05c12603          	lw	a2,92(sp)
    2e64:	08010693          	addi	a3,sp,128
    2e68:	00f687b3          	add	a5,a3,a5
    2e6c:	ff07c783          	lbu	a5,-16(a5)
    2e70:	00064683          	lbu	a3,0(a2)
    2e74:	00f6c7b3          	xor	a5,a3,a5
    2e78:	06412683          	lw	a3,100(sp)
    2e7c:	00f60023          	sb	a5,0(a2)
    2e80:	00160793          	addi	a5,a2,1
    2e84:	04f12e23          	sw	a5,92(sp)
    2e88:	fcd794e3          	bne	a5,a3,2e50 <AES_CTR_xcrypt_buffer+0x60>
    2e8c:	0bc12083          	lw	ra,188(sp)
    2e90:	0b812403          	lw	s0,184(sp)
    2e94:	0b412483          	lw	s1,180(sp)
    2e98:	0b012903          	lw	s2,176(sp)
    2e9c:	0ac12983          	lw	s3,172(sp)
    2ea0:	0a812a03          	lw	s4,168(sp)
    2ea4:	0a412a83          	lw	s5,164(sp)
    2ea8:	0a012b03          	lw	s6,160(sp)
    2eac:	09c12b83          	lw	s7,156(sp)
    2eb0:	09812c03          	lw	s8,152(sp)
    2eb4:	09412c83          	lw	s9,148(sp)
    2eb8:	09012d03          	lw	s10,144(sp)
    2ebc:	08c12d83          	lw	s11,140(sp)
    2ec0:	0c010113          	addi	sp,sp,192
    2ec4:	00008067          	ret
    2ec8:	06c12583          	lw	a1,108(sp)
    2ecc:	01000613          	li	a2,16
    2ed0:	07010513          	addi	a0,sp,112
    2ed4:	128020ef          	jal	ra,4ffc <memcpy>
    2ed8:	06812803          	lw	a6,104(sp)
    2edc:	07014c83          	lbu	s9,112(sp)
    2ee0:	07114c03          	lbu	s8,113(sp)
    2ee4:	00084f83          	lbu	t6,0(a6)
    2ee8:	00784583          	lbu	a1,7(a6)
    2eec:	00184f03          	lbu	t5,1(a6)
    2ef0:	07b14783          	lbu	a5,123(sp)
    2ef4:	00b84283          	lbu	t0,11(a6)
    2ef8:	07714903          	lbu	s2,119(sp)
    2efc:	07214b83          	lbu	s7,114(sp)
    2f00:	00284e83          	lbu	t4,2(a6)
    2f04:	00384e03          	lbu	t3,3(a6)
    2f08:	07514a03          	lbu	s4,117(sp)
    2f0c:	00584883          	lbu	a7,5(a6)
    2f10:	00984683          	lbu	a3,9(a6)
    2f14:	07314b03          	lbu	s6,115(sp)
    2f18:	07914403          	lbu	s0,121(sp)
    2f1c:	01fccfb3          	xor	t6,s9,t6
    2f20:	07414a83          	lbu	s5,116(sp)
    2f24:	00484303          	lbu	t1,4(a6)
    2f28:	07614983          	lbu	s3,118(sp)
    2f2c:	00684503          	lbu	a0,6(a6)
    2f30:	00884603          	lbu	a2,8(a6)
    2f34:	00a84703          	lbu	a4,10(a6)
    2f38:	07814483          	lbu	s1,120(sp)
    2f3c:	07a14383          	lbu	t2,122(sp)
    2f40:	01ec4f33          	xor	t5,s8,t5
    2f44:	00b94933          	xor	s2,s2,a1
    2f48:	0057c5b3          	xor	a1,a5,t0
    2f4c:	0ffff793          	zext.b	a5,t6
    2f50:	01dbceb3          	xor	t4,s7,t4
    2f54:	04f12023          	sw	a5,64(sp)
    2f58:	0fff7793          	zext.b	a5,t5
    2f5c:	011a48b3          	xor	a7,s4,a7
    2f60:	01cb4e33          	xor	t3,s6,t3
    2f64:	00d446b3          	xor	a3,s0,a3
    2f68:	04f12423          	sw	a5,72(sp)
    2f6c:	0ffef793          	zext.b	a5,t4
    2f70:	006ac333          	xor	t1,s5,t1
    2f74:	00a9c533          	xor	a0,s3,a0
    2f78:	00c4c633          	xor	a2,s1,a2
    2f7c:	00e3c733          	xor	a4,t2,a4
    2f80:	04f12623          	sw	a5,76(sp)
    2f84:	0ff8fc13          	zext.b	s8,a7
    2f88:	0ffe7793          	zext.b	a5,t3
    2f8c:	07c14883          	lbu	a7,124(sp)
    2f90:	0ff6fd13          	zext.b	s10,a3
    2f94:	00c84683          	lbu	a3,12(a6)
    2f98:	04f12223          	sw	a5,68(sp)
    2f9c:	0ff37b93          	zext.b	s7,t1
    2fa0:	0ff57a13          	zext.b	s4,a0
    2fa4:	0ff67c93          	zext.b	s9,a2
    2fa8:	0ff77d93          	zext.b	s11,a4
    2fac:	07d14603          	lbu	a2,125(sp)
    2fb0:	00d84e03          	lbu	t3,13(a6)
    2fb4:	00f84503          	lbu	a0,15(a6)
    2fb8:	00e84303          	lbu	t1,14(a6)
    2fbc:	07e14703          	lbu	a4,126(sp)
    2fc0:	07f14783          	lbu	a5,127(sp)
    2fc4:	00d8c6b3          	xor	a3,a7,a3
    2fc8:	0ff6f893          	zext.b	a7,a3
    2fcc:	00a7c7b3          	xor	a5,a5,a0
    2fd0:	01c64633          	xor	a2,a2,t3
    2fd4:	00674733          	xor	a4,a4,t1
    2fd8:	100006b7          	lui	a3,0x10000
    2fdc:	01080a93          	addi	s5,a6,16
    2fe0:	0ff97993          	zext.b	s3,s2
    2fe4:	0ff5f593          	zext.b	a1,a1
    2fe8:	0ff67613          	zext.b	a2,a2
    2fec:	0ff77713          	zext.b	a4,a4
    2ff0:	0ff7f793          	zext.b	a5,a5
    2ff4:	00088513          	mv	a0,a7
    2ff8:	32c68813          	addi	a6,a3,812 # 1000032c <sbox>
    2ffc:	3e80006f          	j	33e4 <AES_CTR_xcrypt_buffer+0x5f4>
    3000:	01efcd33          	xor	s10,t6,t5
    3004:	03a12a23          	sw	s10,52(sp)
    3008:	016f4d33          	xor	s10,t5,s6
    300c:	0124c733          	xor	a4,s1,s2
    3010:	0176c333          	xor	t1,a3,s7
    3014:	016ecdb3          	xor	s11,t4,s6
    3018:	0116c6b3          	xor	a3,a3,a7
    301c:	05a12c23          	sw	s10,88(sp)
    3020:	0072cd33          	xor	s10,t0,t2
    3024:	01394633          	xor	a2,s2,s3
    3028:	03b12c23          	sw	s11,56(sp)
    302c:	04d12a23          	sw	a3,84(sp)
    3030:	01944db3          	xor	s11,s0,s9
    3034:	01fec6b3          	xor	a3,t4,t6
    3038:	03a12423          	sw	s10,40(sp)
    303c:	00775d13          	srli	s10,a4,0x7
    3040:	03412f83          	lw	t6,52(sp)
    3044:	02d12e23          	sw	a3,60(sp)
    3048:	03b12823          	sw	s11,48(sp)
    304c:	005446b3          	xor	a3,s0,t0
    3050:	00765d93          	srli	s11,a2,0x7
    3054:	03812283          	lw	t0,56(sp)
    3058:	003d1f13          	slli	t5,s10,0x3
    305c:	003d9e93          	slli	t4,s11,0x3
    3060:	41af0f33          	sub	t5,t5,s10
    3064:	0135ca33          	xor	s4,a1,s3
    3068:	41be8eb3          	sub	t4,t4,s11
    306c:	002f1f13          	slli	t5,t5,0x2
    3070:	01474433          	xor	s0,a4,s4
    3074:	005fc2b3          	xor	t0,t6,t0
    3078:	41af0f33          	sub	t5,t5,s10
    307c:	02812f83          	lw	t6,40(sp)
    3080:	000acd03          	lbu	s10,0(s5)
    3084:	02d12623          	sw	a3,44(sp)
    3088:	002e9e93          	slli	t4,t4,0x2
    308c:	03012683          	lw	a3,48(sp)
    3090:	00171713          	slli	a4,a4,0x1
    3094:	0095cc33          	xor	s8,a1,s1
    3098:	0193c7b3          	xor	a5,t2,s9
    309c:	41be8eb3          	sub	t4,t4,s11
    30a0:	007a5c93          	srli	s9,s4,0x7
    30a4:	001acd83          	lbu	s11,1(s5)
    30a8:	009444b3          	xor	s1,s0,s1
    30ac:	00ef4733          	xor	a4,t5,a4
    30b0:	00161613          	slli	a2,a2,0x1
    30b4:	01244933          	xor	s2,s0,s2
    30b8:	04f12823          	sw	a5,80(sp)
    30bc:	00cec633          	xor	a2,t4,a2
    30c0:	003c9793          	slli	a5,s9,0x3
    30c4:	00974733          	xor	a4,a4,s1
    30c8:	00dfcfb3          	xor	t6,t6,a3
    30cc:	419787b3          	sub	a5,a5,s9
    30d0:	017546b3          	xor	a3,a0,s7
    30d4:	01264633          	xor	a2,a2,s2
    30d8:	01a74733          	xor	a4,a4,s10
    30dc:	0076d913          	srli	s2,a3,0x7
    30e0:	01b64633          	xor	a2,a2,s11
    30e4:	0ff77713          	zext.b	a4,a4
    30e8:	00279793          	slli	a5,a5,0x2
    30ec:	00a8ce33          	xor	t3,a7,a0
    30f0:	419787b3          	sub	a5,a5,s9
    30f4:	001a1a13          	slli	s4,s4,0x1
    30f8:	007c5c93          	srli	s9,s8,0x7
    30fc:	04e12023          	sw	a4,64(sp)
    3100:	00391e93          	slli	t4,s2,0x3
    3104:	0ff67713          	zext.b	a4,a2
    3108:	0147c7b3          	xor	a5,a5,s4
    310c:	04e12423          	sw	a4,72(sp)
    3110:	007e5a13          	srli	s4,t3,0x7
    3114:	003c9713          	slli	a4,s9,0x3
    3118:	412e8eb3          	sub	t4,t4,s2
    311c:	003a1f13          	slli	t5,s4,0x3
    3120:	41970733          	sub	a4,a4,s9
    3124:	002e9e93          	slli	t4,t4,0x2
    3128:	006e43b3          	xor	t2,t3,t1
    312c:	002acd83          	lbu	s11,2(s5)
    3130:	412e8eb3          	sub	t4,t4,s2
    3134:	414f0f33          	sub	t5,t5,s4
    3138:	005ac903          	lbu	s2,5(s5)
    313c:	00271713          	slli	a4,a4,0x2
    3140:	00169693          	slli	a3,a3,0x1
    3144:	003acd03          	lbu	s10,3(s5)
    3148:	41970733          	sub	a4,a4,s9
    314c:	00a3c533          	xor	a0,t2,a0
    3150:	013449b3          	xor	s3,s0,s3
    3154:	00dec6b3          	xor	a3,t4,a3
    3158:	002f1f13          	slli	t5,t5,0x2
    315c:	001c1c13          	slli	s8,s8,0x1
    3160:	00735493          	srli	s1,t1,0x7
    3164:	414f0f33          	sub	t5,t5,s4
    3168:	0085c5b3          	xor	a1,a1,s0
    316c:	05412a03          	lw	s4,84(sp)
    3170:	01874c33          	xor	s8,a4,s8
    3174:	0137c9b3          	xor	s3,a5,s3
    3178:	00a6c6b3          	xor	a3,a3,a0
    317c:	01b9c9b3          	xor	s3,s3,s11
    3180:	0126c6b3          	xor	a3,a3,s2
    3184:	00349613          	slli	a2,s1,0x3
    3188:	03412903          	lw	s2,52(sp)
    318c:	00bc4c33          	xor	s8,s8,a1
    3190:	004acc83          	lbu	s9,4(s5)
    3194:	01ac4c33          	xor	s8,s8,s10
    3198:	0ff9f713          	zext.b	a4,s3
    319c:	40960633          	sub	a2,a2,s1
    31a0:	001e1e13          	slli	t3,t3,0x1
    31a4:	007a5e93          	srli	t4,s4,0x7
    31a8:	05812d03          	lw	s10,88(sp)
    31ac:	0113c8b3          	xor	a7,t2,a7
    31b0:	01cf4e33          	xor	t3,t5,t3
    31b4:	04e12623          	sw	a4,76(sp)
    31b8:	00261613          	slli	a2,a2,0x2
    31bc:	0ffc7713          	zext.b	a4,s8
    31c0:	40960633          	sub	a2,a2,s1
    31c4:	00131313          	slli	t1,t1,0x1
    31c8:	011e4e33          	xor	t3,t3,a7
    31cc:	04e12223          	sw	a4,68(sp)
    31d0:	003e9793          	slli	a5,t4,0x3
    31d4:	00795713          	srli	a4,s2,0x7
    31d8:	0173cbb3          	xor	s7,t2,s7
    31dc:	019e4e33          	xor	t3,t3,s9
    31e0:	00664633          	xor	a2,a2,t1
    31e4:	00371513          	slli	a0,a4,0x3
    31e8:	41d787b3          	sub	a5,a5,t4
    31ec:	03812983          	lw	s3,56(sp)
    31f0:	01764633          	xor	a2,a2,s7
    31f4:	40e50533          	sub	a0,a0,a4
    31f8:	0ffe7b93          	zext.b	s7,t3
    31fc:	00279793          	slli	a5,a5,0x2
    3200:	007d5e13          	srli	t3,s10,0x7
    3204:	001a1f13          	slli	t5,s4,0x1
    3208:	41d787b3          	sub	a5,a5,t4
    320c:	0ff6fc13          	zext.b	s8,a3
    3210:	00251513          	slli	a0,a0,0x2
    3214:	003e1693          	slli	a3,t3,0x3
    3218:	006ac483          	lbu	s1,6(s5)
    321c:	007ace83          	lbu	t4,7(s5)
    3220:	008ac403          	lbu	s0,8(s5)
    3224:	40e50533          	sub	a0,a0,a4
    3228:	03c12883          	lw	a7,60(sp)
    322c:	41c686b3          	sub	a3,a3,t3
    3230:	00191713          	slli	a4,s2,0x1
    3234:	01e7c7b3          	xor	a5,a5,t5
    3238:	009ac903          	lbu	s2,9(s5)
    323c:	00aaca03          	lbu	s4,10(s5)
    3240:	02012f03          	lw	t5,32(sp)
    3244:	0079d313          	srli	t1,s3,0x7
    3248:	00269693          	slli	a3,a3,0x2
    324c:	41c68e33          	sub	t3,a3,t3
    3250:	00331593          	slli	a1,t1,0x3
    3254:	001d1693          	slli	a3,s10,0x1
    3258:	00de46b3          	xor	a3,t3,a3
    325c:	406585b3          	sub	a1,a1,t1
    3260:	01e2ce33          	xor	t3,t0,t5
    3264:	01c6ce33          	xor	t3,a3,t3
    3268:	00259593          	slli	a1,a1,0x2
    326c:	012e4e33          	xor	t3,t3,s2
    3270:	406585b3          	sub	a1,a1,t1
    3274:	03012903          	lw	s2,48(sp)
    3278:	00199993          	slli	s3,s3,0x1
    327c:	0162cb33          	xor	s6,t0,s6
    3280:	0135c5b3          	xor	a1,a1,s3
    3284:	00964633          	xor	a2,a2,s1
    3288:	00e54733          	xor	a4,a0,a4
    328c:	0165c5b3          	xor	a1,a1,s6
    3290:	01412503          	lw	a0,20(sp)
    3294:	0145c5b3          	xor	a1,a1,s4
    3298:	0ff67a13          	zext.b	s4,a2
    329c:	00795613          	srli	a2,s2,0x7
    32a0:	0ff5fd93          	zext.b	s11,a1
    32a4:	00361593          	slli	a1,a2,0x3
    32a8:	02812483          	lw	s1,40(sp)
    32ac:	00a2c533          	xor	a0,t0,a0
    32b0:	40c585b3          	sub	a1,a1,a2
    32b4:	00a74733          	xor	a4,a4,a0
    32b8:	00259593          	slli	a1,a1,0x2
    32bc:	00874733          	xor	a4,a4,s0
    32c0:	40c58633          	sub	a2,a1,a2
    32c4:	00c12583          	lw	a1,12(sp)
    32c8:	05012b03          	lw	s6,80(sp)
    32cc:	0ff77c93          	zext.b	s9,a4
    32d0:	0074d713          	srli	a4,s1,0x7
    32d4:	00812303          	lw	t1,8(sp)
    32d8:	02c12683          	lw	a3,44(sp)
    32dc:	00371513          	slli	a0,a4,0x3
    32e0:	40e50533          	sub	a0,a0,a4
    32e4:	00b2c2b3          	xor	t0,t0,a1
    32e8:	01812583          	lw	a1,24(sp)
    32ec:	0ffe7d13          	zext.b	s10,t3
    32f0:	00251513          	slli	a0,a0,0x2
    32f4:	007b5e13          	srli	t3,s6,0x7
    32f8:	0063c3b3          	xor	t2,t2,t1
    32fc:	40e50533          	sub	a0,a0,a4
    3300:	0076d313          	srli	t1,a3,0x7
    3304:	00149713          	slli	a4,s1,0x1
    3308:	003e1693          	slli	a3,t3,0x3
    330c:	00e54733          	xor	a4,a0,a4
    3310:	41c686b3          	sub	a3,a3,t3
    3314:	00bfc533          	xor	a0,t6,a1
    3318:	01c12583          	lw	a1,28(sp)
    331c:	00269693          	slli	a3,a3,0x2
    3320:	00dac403          	lbu	s0,13(s5)
    3324:	41c68e33          	sub	t3,a3,t3
    3328:	0077c7b3          	xor	a5,a5,t2
    332c:	001b1693          	slli	a3,s6,0x1
    3330:	0078d893          	srli	a7,a7,0x7
    3334:	01d7c7b3          	xor	a5,a5,t4
    3338:	00de46b3          	xor	a3,t3,a3
    333c:	00bfce33          	xor	t3,t6,a1
    3340:	00389e93          	slli	t4,a7,0x3
    3344:	01c6ce33          	xor	t3,a3,t3
    3348:	03c12f03          	lw	t5,60(sp)
    334c:	02c12683          	lw	a3,44(sp)
    3350:	0ff7f993          	zext.b	s3,a5
    3354:	00331793          	slli	a5,t1,0x3
    3358:	02412583          	lw	a1,36(sp)
    335c:	411e8eb3          	sub	t4,t4,a7
    3360:	406787b3          	sub	a5,a5,t1
    3364:	008e4e33          	xor	t3,t3,s0
    3368:	01012403          	lw	s0,16(sp)
    336c:	002e9e93          	slli	t4,t4,0x2
    3370:	00279793          	slli	a5,a5,0x2
    3374:	00191493          	slli	s1,s2,0x1
    3378:	00cac383          	lbu	t2,12(s5)
    337c:	00eac903          	lbu	s2,14(s5)
    3380:	411e88b3          	sub	a7,t4,a7
    3384:	406787b3          	sub	a5,a5,t1
    3388:	00bace83          	lbu	t4,11(s5)
    338c:	00169313          	slli	t1,a3,0x1
    3390:	001f1f13          	slli	t5,t5,0x1
    3394:	00fac683          	lbu	a3,15(s5)
    3398:	00964633          	xor	a2,a2,s1
    339c:	01e8c8b3          	xor	a7,a7,t5
    33a0:	00bfc4b3          	xor	s1,t6,a1
    33a4:	0067c7b3          	xor	a5,a5,t1
    33a8:	008fcfb3          	xor	t6,t6,s0
    33ac:	00a74533          	xor	a0,a4,a0
    33b0:	009644b3          	xor	s1,a2,s1
    33b4:	0058c8b3          	xor	a7,a7,t0
    33b8:	01f7c7b3          	xor	a5,a5,t6
    33bc:	01d8c5b3          	xor	a1,a7,t4
    33c0:	00754533          	xor	a0,a0,t2
    33c4:	0124c933          	xor	s2,s1,s2
    33c8:	00d7c7b3          	xor	a5,a5,a3
    33cc:	0ff5f593          	zext.b	a1,a1
    33d0:	0ff57513          	zext.b	a0,a0
    33d4:	0ffe7613          	zext.b	a2,t3
    33d8:	0ff97713          	zext.b	a4,s2
    33dc:	0ff7f793          	zext.b	a5,a5
    33e0:	010a8a93          	addi	s5,s5,16
    33e4:	04012683          	lw	a3,64(sp)
    33e8:	04412883          	lw	a7,68(sp)
    33ec:	01980cb3          	add	s9,a6,s9
    33f0:	00d80fb3          	add	t6,a6,a3
    33f4:	04812683          	lw	a3,72(sp)
    33f8:	00a80533          	add	a0,a6,a0
    33fc:	00c80333          	add	t1,a6,a2
    3400:	00d80f33          	add	t5,a6,a3
    3404:	01380eb3          	add	t4,a6,s3
    3408:	018806b3          	add	a3,a6,s8
    340c:	00b805b3          	add	a1,a6,a1
    3410:	01180c33          	add	s8,a6,a7
    3414:	01480a33          	add	s4,a6,s4
    3418:	00054283          	lbu	t0,0(a0)
    341c:	000f4383          	lbu	t2,0(t5)
    3420:	0005c403          	lbu	s0,0(a1)
    3424:	00f807b3          	add	a5,a6,a5
    3428:	04c12603          	lw	a2,76(sp)
    342c:	000fc483          	lbu	s1,0(t6)
    3430:	0006c903          	lbu	s2,0(a3)
    3434:	000ccf83          	lbu	t6,0(s9)
    3438:	00034f03          	lbu	t5,0(t1)
    343c:	000a4c83          	lbu	s9,0(s4)
    3440:	000c4683          	lbu	a3,0(s8)
    3444:	000ece83          	lbu	t4,0(t4)
    3448:	0007c583          	lbu	a1,0(a5)
    344c:	06012783          	lw	a5,96(sp)
    3450:	01780e33          	add	t3,a6,s7
    3454:	01a80d33          	add	s10,a6,s10
    3458:	00c80633          	add	a2,a6,a2
    345c:	01b80db3          	add	s11,a6,s11
    3460:	00e80733          	add	a4,a6,a4
    3464:	01f12a23          	sw	t6,20(sp)
    3468:	00512c23          	sw	t0,24(sp)
    346c:	00712e23          	sw	t2,28(sp)
    3470:	03e12023          	sw	t5,32(sp)
    3474:	03912223          	sw	s9,36(sp)
    3478:	00d12423          	sw	a3,8(sp)
    347c:	01d12623          	sw	t4,12(sp)
    3480:	00812823          	sw	s0,16(sp)
    3484:	000e4883          	lbu	a7,0(t3)
    3488:	000d4503          	lbu	a0,0(s10)
    348c:	00064b03          	lbu	s6,0(a2)
    3490:	000dc983          	lbu	s3,0(s11)
    3494:	00074b83          	lbu	s7,0(a4)
    3498:	b6fa94e3          	bne	s5,a5,3000 <AES_CTR_xcrypt_buffer+0x210>
    349c:	06812a83          	lw	s5,104(sp)
    34a0:	00048c13          	mv	s8,s1
    34a4:	00088d13          	mv	s10,a7
    34a8:	0e3ac683          	lbu	a3,227(s5)
    34ac:	0e7ace83          	lbu	t4,231(s5)
    34b0:	0e8ac283          	lbu	t0,232(s5)
    34b4:	00d5c6b3          	xor	a3,a1,a3
    34b8:	00812583          	lw	a1,8(sp)
    34bc:	0e9acf83          	lbu	t6,233(s5)
    34c0:	0ebac383          	lbu	t2,235(s5)
    34c4:	01d5ceb3          	xor	t4,a1,t4
    34c8:	01412583          	lw	a1,20(sp)
    34cc:	0ecac403          	lbu	s0,236(s5)
    34d0:	0edac483          	lbu	s1,237(s5)
    34d4:	0055c2b3          	xor	t0,a1,t0
    34d8:	02012583          	lw	a1,32(sp)
    34dc:	0eeac703          	lbu	a4,238(s5)
    34e0:	0e1aca03          	lbu	s4,225(s5)
    34e4:	01f5cfb3          	xor	t6,a1,t6
    34e8:	00c12583          	lw	a1,12(sp)
    34ec:	0e2ac603          	lbu	a2,226(s5)
    34f0:	0e4ac883          	lbu	a7,228(s5)
    34f4:	0075c3b3          	xor	t2,a1,t2
    34f8:	01812583          	lw	a1,24(sp)
    34fc:	0e5ac303          	lbu	t1,229(s5)
    3500:	0e6ace03          	lbu	t3,230(s5)
    3504:	0085c433          	xor	s0,a1,s0
    3508:	01c12583          	lw	a1,28(sp)
    350c:	00098c93          	mv	s9,s3
    3510:	0e0ac983          	lbu	s3,224(s5)
    3514:	0095c4b3          	xor	s1,a1,s1
    3518:	02412583          	lw	a1,36(sp)
    351c:	0efac783          	lbu	a5,239(s5)
    3520:	0eaacf03          	lbu	t5,234(s5)
    3524:	00e5c733          	xor	a4,a1,a4
    3528:	01012583          	lw	a1,16(sp)
    352c:	013c49b3          	xor	s3,s8,s3
    3530:	01494933          	xor	s2,s2,s4
    3534:	00ccc633          	xor	a2,s9,a2
    3538:	011d48b3          	xor	a7,s10,a7
    353c:	00654333          	xor	t1,a0,t1
    3540:	01cbce33          	xor	t3,s7,t3
    3544:	00f5c7b3          	xor	a5,a1,a5
    3548:	06d109a3          	sb	a3,115(sp)
    354c:	07310823          	sb	s3,112(sp)
    3550:	072108a3          	sb	s2,113(sp)
    3554:	06c10923          	sb	a2,114(sp)
    3558:	07110a23          	sb	a7,116(sp)
    355c:	06610aa3          	sb	t1,117(sp)
    3560:	07c10b23          	sb	t3,118(sp)
    3564:	07d10ba3          	sb	t4,119(sp)
    3568:	06f10fa3          	sb	a5,127(sp)
    356c:	0ffac783          	lbu	a5,255(s5)
    3570:	01eb4f33          	xor	t5,s6,t5
    3574:	06e10f23          	sb	a4,126(sp)
    3578:	06510c23          	sb	t0,120(sp)
    357c:	07f10ca3          	sb	t6,121(sp)
    3580:	07e10d23          	sb	t5,122(sp)
    3584:	06710da3          	sb	t2,123(sp)
    3588:	06810e23          	sb	s0,124(sp)
    358c:	06910ea3          	sb	s1,125(sp)
    3590:	0ff00693          	li	a3,255
    3594:	00f00713          	li	a4,15
    3598:	02d78063          	beq	a5,a3,35b8 <AES_CTR_xcrypt_buffer+0x7c8>
    359c:	06812683          	lw	a3,104(sp)
    35a0:	00e68633          	add	a2,a3,a4
    35a4:	00178693          	addi	a3,a5,1
    35a8:	00100713          	li	a4,1
    35ac:	00000793          	li	a5,0
    35b0:	0ed60823          	sb	a3,240(a2)
    35b4:	8adff06f          	j	2e60 <AES_CTR_xcrypt_buffer+0x70>
    35b8:	0feac783          	lbu	a5,254(s5)
    35bc:	0e0a8fa3          	sb	zero,255(s5)
    35c0:	00e00713          	li	a4,14
    35c4:	fcd79ce3          	bne	a5,a3,359c <AES_CTR_xcrypt_buffer+0x7ac>
    35c8:	0fdac783          	lbu	a5,253(s5)
    35cc:	0e0a8f23          	sb	zero,254(s5)
    35d0:	00d00713          	li	a4,13
    35d4:	fcd794e3          	bne	a5,a3,359c <AES_CTR_xcrypt_buffer+0x7ac>
    35d8:	0fcac783          	lbu	a5,252(s5)
    35dc:	0e0a8ea3          	sb	zero,253(s5)
    35e0:	00c00713          	li	a4,12
    35e4:	fad79ce3          	bne	a5,a3,359c <AES_CTR_xcrypt_buffer+0x7ac>
    35e8:	0fbac783          	lbu	a5,251(s5)
    35ec:	0e0a8e23          	sb	zero,252(s5)
    35f0:	00b00713          	li	a4,11
    35f4:	fad794e3          	bne	a5,a3,359c <AES_CTR_xcrypt_buffer+0x7ac>
    35f8:	0faac783          	lbu	a5,250(s5)
    35fc:	0e0a8da3          	sb	zero,251(s5)
    3600:	00a00713          	li	a4,10
    3604:	f8d79ce3          	bne	a5,a3,359c <AES_CTR_xcrypt_buffer+0x7ac>
    3608:	0f9ac783          	lbu	a5,249(s5)
    360c:	0e0a8d23          	sb	zero,250(s5)
    3610:	00900713          	li	a4,9
    3614:	f8d794e3          	bne	a5,a3,359c <AES_CTR_xcrypt_buffer+0x7ac>
    3618:	0f8ac783          	lbu	a5,248(s5)
    361c:	0e0a8ca3          	sb	zero,249(s5)
    3620:	00800713          	li	a4,8
    3624:	f6d79ce3          	bne	a5,a3,359c <AES_CTR_xcrypt_buffer+0x7ac>
    3628:	0f7ac783          	lbu	a5,247(s5)
    362c:	0e0a8c23          	sb	zero,248(s5)
    3630:	00700713          	li	a4,7
    3634:	f6d794e3          	bne	a5,a3,359c <AES_CTR_xcrypt_buffer+0x7ac>
    3638:	0f6ac783          	lbu	a5,246(s5)
    363c:	0e0a8ba3          	sb	zero,247(s5)
    3640:	00600713          	li	a4,6
    3644:	f4d79ce3          	bne	a5,a3,359c <AES_CTR_xcrypt_buffer+0x7ac>
    3648:	0f5ac783          	lbu	a5,245(s5)
    364c:	0e0a8b23          	sb	zero,246(s5)
    3650:	00500713          	li	a4,5
    3654:	f4d794e3          	bne	a5,a3,359c <AES_CTR_xcrypt_buffer+0x7ac>
    3658:	0f4ac783          	lbu	a5,244(s5)
    365c:	0e0a8aa3          	sb	zero,245(s5)
    3660:	00400713          	li	a4,4
    3664:	f2d79ce3          	bne	a5,a3,359c <AES_CTR_xcrypt_buffer+0x7ac>
    3668:	0f3ac783          	lbu	a5,243(s5)
    366c:	0e0a8a23          	sb	zero,244(s5)
    3670:	00300713          	li	a4,3
    3674:	f2d794e3          	bne	a5,a3,359c <AES_CTR_xcrypt_buffer+0x7ac>
    3678:	0f2ac783          	lbu	a5,242(s5)
    367c:	0e0a89a3          	sb	zero,243(s5)
    3680:	00200713          	li	a4,2
    3684:	f0d79ce3          	bne	a5,a3,359c <AES_CTR_xcrypt_buffer+0x7ac>
    3688:	0f1ac783          	lbu	a5,241(s5)
    368c:	0e0a8923          	sb	zero,242(s5)
    3690:	00100713          	li	a4,1
    3694:	f0d794e3          	bne	a5,a3,359c <AES_CTR_xcrypt_buffer+0x7ac>
    3698:	0f0ac783          	lbu	a5,240(s5)
    369c:	0e0a88a3          	sb	zero,241(s5)
    36a0:	00000713          	li	a4,0
    36a4:	eed79ce3          	bne	a5,a3,359c <AES_CTR_xcrypt_buffer+0x7ac>
    36a8:	00100713          	li	a4,1
    36ac:	00000793          	li	a5,0
    36b0:	0e0a8823          	sb	zero,240(s5)
    36b4:	facff06f          	j	2e60 <AES_CTR_xcrypt_buffer+0x70>
	...

000036c0 <uart_putc>:
    36c0:	20000737          	lui	a4,0x20000
    36c4:	00472783          	lw	a5,4(a4) # 20000004 <__dual_issue_riscv_irq_stack_top+0xfffc004>
    36c8:	0017f793          	andi	a5,a5,1
    36cc:	fe079ce3          	bnez	a5,36c4 <uart_putc+0x4>
    36d0:	00a72623          	sw	a0,12(a4)
    36d4:	00008067          	ret
	...

000036f0 <uart_init>:
    36f0:	200007b7          	lui	a5,0x20000
    36f4:	00300713          	li	a4,3
    36f8:	00e7a023          	sw	a4,0(a5) # 20000000 <__dual_issue_riscv_irq_stack_top+0xfffc000>
    36fc:	000037b7          	lui	a5,0x3
    3700:	10000737          	lui	a4,0x10000
    3704:	6c078793          	addi	a5,a5,1728 # 36c0 <uart_putc>
    3708:	42f72a23          	sw	a5,1076(a4) # 10000434 <xfunc_out>
    370c:	00008067          	ret
	...

00003720 <xprintf>:
    3720:	f7010113          	addi	sp,sp,-144
    3724:	06812423          	sw	s0,104(sp)
    3728:	05812423          	sw	s8,72(sp)
    372c:	06112623          	sw	ra,108(sp)
    3730:	06912223          	sw	s1,100(sp)
    3734:	07212023          	sw	s2,96(sp)
    3738:	05312e23          	sw	s3,92(sp)
    373c:	05412c23          	sw	s4,88(sp)
    3740:	05512a23          	sw	s5,84(sp)
    3744:	05612823          	sw	s6,80(sp)
    3748:	05712623          	sw	s7,76(sp)
    374c:	05912223          	sw	s9,68(sp)
    3750:	05a12023          	sw	s10,64(sp)
    3754:	03b12e23          	sw	s11,60(sp)
    3758:	06b12a23          	sw	a1,116(sp)
    375c:	06c12c23          	sw	a2,120(sp)
    3760:	06d12e23          	sw	a3,124(sp)
    3764:	08e12023          	sw	a4,128(sp)
    3768:	08f12223          	sw	a5,132(sp)
    376c:	09012423          	sw	a6,136(sp)
    3770:	09112623          	sw	a7,140(sp)
    3774:	00050413          	mv	s0,a0
    3778:	00054503          	lbu	a0,0(a0)
    377c:	07410c13          	addi	s8,sp,116
    3780:	01812e23          	sw	s8,28(sp)
    3784:	04050463          	beqz	a0,37cc <xprintf+0xac>
    3788:	00140713          	addi	a4,s0,1
    378c:	02500993          	li	s3,37
    3790:	03000a93          	li	s5,48
    3794:	00900b13          	li	s6,9
    3798:	10000937          	lui	s2,0x10000
    379c:	100004b7          	lui	s1,0x10000
    37a0:	07350463          	beq	a0,s3,3808 <xprintf+0xe8>
    37a4:	43090613          	addi	a2,s2,1072 # 10000430 <outptr>
    37a8:	00062783          	lw	a5,0(a2)
    37ac:	40078ae3          	beqz	a5,43c0 <xprintf+0xca0>
    37b0:	00178593          	addi	a1,a5,1
    37b4:	00070413          	mv	s0,a4
    37b8:	00b62023          	sw	a1,0(a2)
    37bc:	00a78023          	sb	a0,0(a5)
    37c0:	00044503          	lbu	a0,0(s0)
    37c4:	00140713          	addi	a4,s0,1
    37c8:	fc051ce3          	bnez	a0,37a0 <xprintf+0x80>
    37cc:	06c12083          	lw	ra,108(sp)
    37d0:	06812403          	lw	s0,104(sp)
    37d4:	06412483          	lw	s1,100(sp)
    37d8:	06012903          	lw	s2,96(sp)
    37dc:	05c12983          	lw	s3,92(sp)
    37e0:	05812a03          	lw	s4,88(sp)
    37e4:	05412a83          	lw	s5,84(sp)
    37e8:	05012b03          	lw	s6,80(sp)
    37ec:	04c12b83          	lw	s7,76(sp)
    37f0:	04812c03          	lw	s8,72(sp)
    37f4:	04412c83          	lw	s9,68(sp)
    37f8:	04012d03          	lw	s10,64(sp)
    37fc:	03c12d83          	lw	s11,60(sp)
    3800:	09010113          	addi	sp,sp,144
    3804:	00008067          	ret
    3808:	00144503          	lbu	a0,1(s0)
    380c:	00240793          	addi	a5,s0,2
    3810:	3d5502e3          	beq	a0,s5,43d4 <xprintf+0xcb4>
    3814:	02d00713          	li	a4,45
    3818:	52e50ce3          	beq	a0,a4,4550 <xprintf+0xe30>
    381c:	00078413          	mv	s0,a5
    3820:	00000613          	li	a2,0
    3824:	fd050793          	addi	a5,a0,-48
    3828:	0ff7f793          	zext.b	a5,a5
    382c:	3cfb60e3          	bltu	s6,a5,43ec <xprintf+0xccc>
    3830:	00000b93          	li	s7,0
    3834:	002b9793          	slli	a5,s7,0x2
    3838:	017787b3          	add	a5,a5,s7
    383c:	00179793          	slli	a5,a5,0x1
    3840:	00140413          	addi	s0,s0,1
    3844:	00a787b3          	add	a5,a5,a0
    3848:	fff44503          	lbu	a0,-1(s0)
    384c:	fd078b93          	addi	s7,a5,-48
    3850:	fd050713          	addi	a4,a0,-48
    3854:	0ff77713          	zext.b	a4,a4
    3858:	fceb7ee3          	bgeu	s6,a4,3834 <xprintf+0x114>
    385c:	0df57793          	andi	a5,a0,223
    3860:	04c00713          	li	a4,76
    3864:	0ee782e3          	beq	a5,a4,4148 <xprintf+0xa28>
    3868:	f60502e3          	beqz	a0,37cc <xprintf+0xac>
    386c:	06000793          	li	a5,96
    3870:	00050713          	mv	a4,a0
    3874:	00a7f663          	bgeu	a5,a0,3880 <xprintf+0x160>
    3878:	fe050713          	addi	a4,a0,-32
    387c:	0ff77713          	zext.b	a4,a4
    3880:	04f00793          	li	a5,79
    3884:	72f70ce3          	beq	a4,a5,47bc <xprintf+0x109c>
    3888:	0ce7e8e3          	bltu	a5,a4,4158 <xprintf+0xa38>
    388c:	04300793          	li	a5,67
    3890:	72f70ae3          	beq	a4,a5,47c4 <xprintf+0x10a4>
    3894:	04400593          	li	a1,68
    3898:	00a00793          	li	a5,10
    389c:	2eb71ee3          	bne	a4,a1,4398 <xprintf+0xc78>
    38a0:	004c0693          	addi	a3,s8,4
    38a4:	00467593          	andi	a1,a2,4
    38a8:	00d12423          	sw	a3,8(sp)
    38ac:	34058ae3          	beqz	a1,4400 <xprintf+0xce0>
    38b0:	000c2883          	lw	a7,0(s8)
    38b4:	04400813          	li	a6,68
    38b8:	00088593          	mv	a1,a7
    38bc:	5f0708e3          	beq	a4,a6,46ac <xprintf+0xf8c>
    38c0:	00000813          	li	a6,0
    38c4:	07800593          	li	a1,120
    38c8:	00700713          	li	a4,7
    38cc:	00b51463          	bne	a0,a1,38d4 <xprintf+0x1b4>
    38d0:	02700713          	li	a4,39
    38d4:	02f8f5b3          	remu	a1,a7,a5
    38d8:	01871713          	slli	a4,a4,0x18
    38dc:	41875713          	srai	a4,a4,0x18
    38e0:	02f8d533          	divu	a0,a7,a5
    38e4:	32bb78e3          	bgeu	s6,a1,4414 <xprintf+0xcf4>
    38e8:	00b705b3          	add	a1,a4,a1
    38ec:	03058593          	addi	a1,a1,48
    38f0:	02b10023          	sb	a1,32(sp)
    38f4:	32f8eae3          	bltu	a7,a5,4428 <xprintf+0xd08>
    38f8:	02f575b3          	remu	a1,a0,a5
    38fc:	02f558b3          	divu	a7,a0,a5
    3900:	32bb7ae3          	bgeu	s6,a1,4434 <xprintf+0xd14>
    3904:	00b705b3          	add	a1,a4,a1
    3908:	03058593          	addi	a1,a1,48
    390c:	02b100a3          	sb	a1,33(sp)
    3910:	32f56ce3          	bltu	a0,a5,4448 <xprintf+0xd28>
    3914:	02f8f5b3          	remu	a1,a7,a5
    3918:	02f8d533          	divu	a0,a7,a5
    391c:	3ebb7ae3          	bgeu	s6,a1,4510 <xprintf+0xdf0>
    3920:	00b705b3          	add	a1,a4,a1
    3924:	03058593          	addi	a1,a1,48
    3928:	02b10123          	sb	a1,34(sp)
    392c:	3ef8ece3          	bltu	a7,a5,4524 <xprintf+0xe04>
    3930:	02f575b3          	remu	a1,a0,a5
    3934:	02f558b3          	divu	a7,a0,a5
    3938:	3ebb7ce3          	bgeu	s6,a1,4530 <xprintf+0xe10>
    393c:	00b705b3          	add	a1,a4,a1
    3940:	03058593          	addi	a1,a1,48
    3944:	02b101a3          	sb	a1,35(sp)
    3948:	3ef56ee3          	bltu	a0,a5,4544 <xprintf+0xe24>
    394c:	02f8f5b3          	remu	a1,a7,a5
    3950:	02f8d533          	divu	a0,a7,a5
    3954:	4ebb70e3          	bgeu	s6,a1,4634 <xprintf+0xf14>
    3958:	00b705b3          	add	a1,a4,a1
    395c:	03058593          	addi	a1,a1,48
    3960:	02b10223          	sb	a1,36(sp)
    3964:	4ef8e2e3          	bltu	a7,a5,4648 <xprintf+0xf28>
    3968:	02f575b3          	remu	a1,a0,a5
    396c:	02f558b3          	divu	a7,a0,a5
    3970:	4ebb72e3          	bgeu	s6,a1,4654 <xprintf+0xf34>
    3974:	00b705b3          	add	a1,a4,a1
    3978:	03058593          	addi	a1,a1,48
    397c:	02b102a3          	sb	a1,37(sp)
    3980:	4ef564e3          	bltu	a0,a5,4668 <xprintf+0xf48>
    3984:	02f8f5b3          	remu	a1,a7,a5
    3988:	02f8d533          	divu	a0,a7,a5
    398c:	4ebb7ce3          	bgeu	s6,a1,4684 <xprintf+0xf64>
    3990:	00b705b3          	add	a1,a4,a1
    3994:	03058593          	addi	a1,a1,48
    3998:	02b10323          	sb	a1,38(sp)
    399c:	4ef8eee3          	bltu	a7,a5,4698 <xprintf+0xf78>
    39a0:	02f575b3          	remu	a1,a0,a5
    39a4:	02f558b3          	divu	a7,a0,a5
    39a8:	50bb7ee3          	bgeu	s6,a1,46c4 <xprintf+0xfa4>
    39ac:	00b705b3          	add	a1,a4,a1
    39b0:	03058593          	addi	a1,a1,48
    39b4:	02b103a3          	sb	a1,39(sp)
    39b8:	52f560e3          	bltu	a0,a5,46d8 <xprintf+0xfb8>
    39bc:	02f8f5b3          	remu	a1,a7,a5
    39c0:	02f8d533          	divu	a0,a7,a5
    39c4:	52bb78e3          	bgeu	s6,a1,46f4 <xprintf+0xfd4>
    39c8:	00b705b3          	add	a1,a4,a1
    39cc:	03058593          	addi	a1,a1,48
    39d0:	02b10423          	sb	a1,40(sp)
    39d4:	52f8eae3          	bltu	a7,a5,4708 <xprintf+0xfe8>
    39d8:	02f575b3          	remu	a1,a0,a5
    39dc:	02f558b3          	divu	a7,a0,a5
    39e0:	54bb78e3          	bgeu	s6,a1,4730 <xprintf+0x1010>
    39e4:	00b705b3          	add	a1,a4,a1
    39e8:	03058593          	addi	a1,a1,48
    39ec:	02b104a3          	sb	a1,41(sp)
    39f0:	00f57463          	bgeu	a0,a5,39f8 <xprintf+0x2d8>
    39f4:	4a40106f          	j	4e98 <xprintf+0x1778>
    39f8:	02f8f5b3          	remu	a1,a7,a5
    39fc:	02f8d533          	divu	a0,a7,a5
    3a00:	54bb7ae3          	bgeu	s6,a1,4754 <xprintf+0x1034>
    3a04:	00b705b3          	add	a1,a4,a1
    3a08:	03058593          	addi	a1,a1,48
    3a0c:	02b10523          	sb	a1,42(sp)
    3a10:	00f8f463          	bgeu	a7,a5,3a18 <xprintf+0x2f8>
    3a14:	4900106f          	j	4ea4 <xprintf+0x1784>
    3a18:	02f575b3          	remu	a1,a0,a5
    3a1c:	02f558b3          	divu	a7,a0,a5
    3a20:	54bb7ce3          	bgeu	s6,a1,4778 <xprintf+0x1058>
    3a24:	00b705b3          	add	a1,a4,a1
    3a28:	03058593          	addi	a1,a1,48
    3a2c:	02b105a3          	sb	a1,43(sp)
    3a30:	00f57463          	bgeu	a0,a5,3a38 <xprintf+0x318>
    3a34:	47c0106f          	j	4eb0 <xprintf+0x1790>
    3a38:	02f8f5b3          	remu	a1,a7,a5
    3a3c:	02f8d533          	divu	a0,a7,a5
    3a40:	54bb72e3          	bgeu	s6,a1,4784 <xprintf+0x1064>
    3a44:	00b705b3          	add	a1,a4,a1
    3a48:	03058593          	addi	a1,a1,48
    3a4c:	02b10623          	sb	a1,44(sp)
    3a50:	00f8f463          	bgeu	a7,a5,3a58 <xprintf+0x338>
    3a54:	4680106f          	j	4ebc <xprintf+0x179c>
    3a58:	02f575b3          	remu	a1,a0,a5
    3a5c:	02f558b3          	divu	a7,a0,a5
    3a60:	58bb74e3          	bgeu	s6,a1,47e8 <xprintf+0x10c8>
    3a64:	00b705b3          	add	a1,a4,a1
    3a68:	03058593          	addi	a1,a1,48
    3a6c:	02b106a3          	sb	a1,45(sp)
    3a70:	00f57463          	bgeu	a0,a5,3a78 <xprintf+0x358>
    3a74:	4780106f          	j	4eec <xprintf+0x17cc>
    3a78:	02f8f5b3          	remu	a1,a7,a5
    3a7c:	02f8d533          	divu	a0,a7,a5
    3a80:	7abb7ce3          	bgeu	s6,a1,4a38 <xprintf+0x1318>
    3a84:	00b705b3          	add	a1,a4,a1
    3a88:	03058593          	addi	a1,a1,48
    3a8c:	02b10723          	sb	a1,46(sp)
    3a90:	00f8f463          	bgeu	a7,a5,3a98 <xprintf+0x378>
    3a94:	4640106f          	j	4ef8 <xprintf+0x17d8>
    3a98:	02f577b3          	remu	a5,a0,a5
    3a9c:	00f70733          	add	a4,a4,a5
    3aa0:	00fb6663          	bltu	s6,a5,3aac <xprintf+0x38c>
    3aa4:	01879713          	slli	a4,a5,0x18
    3aa8:	41875713          	srai	a4,a4,0x18
    3aac:	03070713          	addi	a4,a4,48
    3ab0:	01000d93          	li	s11,16
    3ab4:	00f00793          	li	a5,15
    3ab8:	02e107a3          	sb	a4,47(sp)
    3abc:	00080c63          	beqz	a6,3ad4 <xprintf+0x3b4>
    3ac0:	03010713          	addi	a4,sp,48
    3ac4:	01b70733          	add	a4,a4,s11
    3ac8:	00278d93          	addi	s11,a5,2
    3acc:	02d00793          	li	a5,45
    3ad0:	fef70823          	sb	a5,-16(a4)
    3ad4:	00167513          	andi	a0,a2,1
    3ad8:	fff50513          	addi	a0,a0,-1
    3adc:	43090c13          	addi	s8,s2,1072
    3ae0:	ff057513          	andi	a0,a0,-16
    3ae4:	00267613          	andi	a2,a2,2
    3ae8:	000c2783          	lw	a5,0(s8)
    3aec:	001d8c93          	addi	s9,s11,1
    3af0:	03050a13          	addi	s4,a0,48
    3af4:	00060463          	beqz	a2,3afc <xprintf+0x3dc>
    3af8:	38c0106f          	j	4e84 <xprintf+0x1764>
    3afc:	002d8613          	addi	a2,s11,2
    3b00:	017de463          	bltu	s11,s7,3b08 <xprintf+0x3e8>
    3b04:	3880106f          	j	4e8c <xprintf+0x176c>
    3b08:	419b8d33          	sub	s10,s7,s9
    3b0c:	001b8713          	addi	a4,s7,1
    3b10:	007d7d13          	andi	s10,s10,7
    3b14:	00e12223          	sw	a4,4(sp)
    3b18:	0e0d0463          	beqz	s10,3c00 <xprintf+0x4e0>
    3b1c:	240782e3          	beqz	a5,4560 <xprintf+0xe40>
    3b20:	00178613          	addi	a2,a5,1
    3b24:	01478023          	sb	s4,0(a5)
    3b28:	00cc2023          	sw	a2,0(s8)
    3b2c:	00060793          	mv	a5,a2
    3b30:	001c8613          	addi	a2,s9,1
    3b34:	00100813          	li	a6,1
    3b38:	00060c93          	mv	s9,a2
    3b3c:	0d0d0263          	beq	s10,a6,3c00 <xprintf+0x4e0>
    3b40:	00200813          	li	a6,2
    3b44:	0b0d0263          	beq	s10,a6,3be8 <xprintf+0x4c8>
    3b48:	00300813          	li	a6,3
    3b4c:	090d0263          	beq	s10,a6,3bd0 <xprintf+0x4b0>
    3b50:	00400813          	li	a6,4
    3b54:	070d0263          	beq	s10,a6,3bb8 <xprintf+0x498>
    3b58:	00500813          	li	a6,5
    3b5c:	050d0063          	beq	s10,a6,3b9c <xprintf+0x47c>
    3b60:	00600813          	li	a6,6
    3b64:	030d0063          	beq	s10,a6,3b84 <xprintf+0x464>
    3b68:	00079463          	bnez	a5,3b70 <xprintf+0x450>
    3b6c:	2300106f          	j	4d9c <xprintf+0x167c>
    3b70:	00178713          	addi	a4,a5,1
    3b74:	01478023          	sb	s4,0(a5)
    3b78:	00ec2023          	sw	a4,0(s8)
    3b7c:	00070793          	mv	a5,a4
    3b80:	00160c93          	addi	s9,a2,1
    3b84:	7e0782e3          	beqz	a5,4b68 <xprintf+0x1448>
    3b88:	00178613          	addi	a2,a5,1
    3b8c:	01478023          	sb	s4,0(a5)
    3b90:	00cc2023          	sw	a2,0(s8)
    3b94:	00060793          	mv	a5,a2
    3b98:	001c8c93          	addi	s9,s9,1
    3b9c:	00079463          	bnez	a5,3ba4 <xprintf+0x484>
    3ba0:	0140106f          	j	4bb4 <xprintf+0x1494>
    3ba4:	00178613          	addi	a2,a5,1
    3ba8:	01478023          	sb	s4,0(a5)
    3bac:	00cc2023          	sw	a2,0(s8)
    3bb0:	00060793          	mv	a5,a2
    3bb4:	001c8c93          	addi	s9,s9,1
    3bb8:	6a078ae3          	beqz	a5,4a6c <xprintf+0x134c>
    3bbc:	00178613          	addi	a2,a5,1
    3bc0:	01478023          	sb	s4,0(a5)
    3bc4:	00cc2023          	sw	a2,0(s8)
    3bc8:	00060793          	mv	a5,a2
    3bcc:	001c8c93          	addi	s9,s9,1
    3bd0:	3c0780e3          	beqz	a5,4790 <xprintf+0x1070>
    3bd4:	00178613          	addi	a2,a5,1
    3bd8:	01478023          	sb	s4,0(a5)
    3bdc:	00cc2023          	sw	a2,0(s8)
    3be0:	00060793          	mv	a5,a2
    3be4:	001c8c93          	addi	s9,s9,1
    3be8:	320786e3          	beqz	a5,4714 <xprintf+0xff4>
    3bec:	00178613          	addi	a2,a5,1
    3bf0:	01478023          	sb	s4,0(a5)
    3bf4:	00cc2023          	sw	a2,0(s8)
    3bf8:	00060793          	mv	a5,a2
    3bfc:	001c8c93          	addi	s9,s9,1
    3c00:	0a078863          	beqz	a5,3cb0 <xprintf+0x590>
    3c04:	00178613          	addi	a2,a5,1
    3c08:	01478023          	sb	s4,0(a5)
    3c0c:	00cc2023          	sw	a2,0(s8)
    3c10:	00060793          	mv	a5,a2
    3c14:	001c8d13          	addi	s10,s9,1
    3c18:	0b9b8a63          	beq	s7,s9,3ccc <xprintf+0x5ac>
    3c1c:	0c0786e3          	beqz	a5,44e8 <xprintf+0xdc8>
    3c20:	00178713          	addi	a4,a5,1
    3c24:	01478023          	sb	s4,0(a5)
    3c28:	00ec2023          	sw	a4,0(s8)
    3c2c:	00070793          	mv	a5,a4
    3c30:	0a0780e3          	beqz	a5,44d0 <xprintf+0xdb0>
    3c34:	00178713          	addi	a4,a5,1
    3c38:	01478023          	sb	s4,0(a5)
    3c3c:	00ec2023          	sw	a4,0(s8)
    3c40:	00070793          	mv	a5,a4
    3c44:	06078ae3          	beqz	a5,44b8 <xprintf+0xd98>
    3c48:	00178713          	addi	a4,a5,1
    3c4c:	01478023          	sb	s4,0(a5)
    3c50:	00ec2023          	sw	a4,0(s8)
    3c54:	00070793          	mv	a5,a4
    3c58:	040784e3          	beqz	a5,44a0 <xprintf+0xd80>
    3c5c:	00178713          	addi	a4,a5,1
    3c60:	01478023          	sb	s4,0(a5)
    3c64:	00ec2023          	sw	a4,0(s8)
    3c68:	00070793          	mv	a5,a4
    3c6c:	00078ee3          	beqz	a5,4488 <xprintf+0xd68>
    3c70:	00178713          	addi	a4,a5,1
    3c74:	01478023          	sb	s4,0(a5)
    3c78:	00ec2023          	sw	a4,0(s8)
    3c7c:	00070793          	mv	a5,a4
    3c80:	7e078863          	beqz	a5,4470 <xprintf+0xd50>
    3c84:	00178713          	addi	a4,a5,1
    3c88:	01478023          	sb	s4,0(a5)
    3c8c:	00ec2023          	sw	a4,0(s8)
    3c90:	00070793          	mv	a5,a4
    3c94:	7c078063          	beqz	a5,4454 <xprintf+0xd34>
    3c98:	00178713          	addi	a4,a5,1
    3c9c:	01478023          	sb	s4,0(a5)
    3ca0:	00ec2023          	sw	a4,0(s8)
    3ca4:	00070793          	mv	a5,a4
    3ca8:	007d0c93          	addi	s9,s10,7
    3cac:	f4079ce3          	bnez	a5,3c04 <xprintf+0x4e4>
    3cb0:	4344a603          	lw	a2,1076(s1) # 10000434 <xfunc_out>
    3cb4:	f60600e3          	beqz	a2,3c14 <xprintf+0x4f4>
    3cb8:	000a0513          	mv	a0,s4
    3cbc:	000600e7          	jalr	a2
    3cc0:	000c2783          	lw	a5,0(s8)
    3cc4:	001c8d13          	addi	s10,s9,1
    3cc8:	f59b9ae3          	bne	s7,s9,3c1c <xprintf+0x4fc>
    3ccc:	002b8c93          	addi	s9,s7,2
    3cd0:	fffd8d13          	addi	s10,s11,-1
    3cd4:	03010713          	addi	a4,sp,48
    3cd8:	01a70633          	add	a2,a4,s10
    3cdc:	ff064503          	lbu	a0,-16(a2)
    3ce0:	020780e3          	beqz	a5,4500 <xprintf+0xde0>
    3ce4:	00178613          	addi	a2,a5,1
    3ce8:	00cc2023          	sw	a2,0(s8)
    3cec:	00a78023          	sb	a0,0(a5)
    3cf0:	240d0a63          	beqz	s10,3f44 <xprintf+0x824>
    3cf4:	000c2783          	lw	a5,0(s8)
    3cf8:	ffed8d13          	addi	s10,s11,-2
    3cfc:	03010713          	addi	a4,sp,48
    3d00:	01a70633          	add	a2,a4,s10
    3d04:	ff064503          	lbu	a0,-16(a2)
    3d08:	080782e3          	beqz	a5,458c <xprintf+0xe6c>
    3d0c:	00178613          	addi	a2,a5,1
    3d10:	00cc2023          	sw	a2,0(s8)
    3d14:	00a78023          	sb	a0,0(a5)
    3d18:	220d0663          	beqz	s10,3f44 <xprintf+0x824>
    3d1c:	000c2783          	lw	a5,0(s8)
    3d20:	ffdd8d13          	addi	s10,s11,-3
    3d24:	03010713          	addi	a4,sp,48
    3d28:	01a70633          	add	a2,a4,s10
    3d2c:	ff064503          	lbu	a0,-16(a2)
    3d30:	140782e3          	beqz	a5,4674 <xprintf+0xf54>
    3d34:	00178613          	addi	a2,a5,1
    3d38:	00cc2023          	sw	a2,0(s8)
    3d3c:	00a78023          	sb	a0,0(a5)
    3d40:	200d0263          	beqz	s10,3f44 <xprintf+0x824>
    3d44:	000c2783          	lw	a5,0(s8)
    3d48:	ffcd8d13          	addi	s10,s11,-4
    3d4c:	03010713          	addi	a4,sp,48
    3d50:	01a70633          	add	a2,a4,s10
    3d54:	ff064503          	lbu	a0,-16(a2)
    3d58:	180786e3          	beqz	a5,46e4 <xprintf+0xfc4>
    3d5c:	00178613          	addi	a2,a5,1
    3d60:	00cc2023          	sw	a2,0(s8)
    3d64:	00a78023          	sb	a0,0(a5)
    3d68:	1c0d0e63          	beqz	s10,3f44 <xprintf+0x824>
    3d6c:	000c2783          	lw	a5,0(s8)
    3d70:	ffbd8d13          	addi	s10,s11,-5
    3d74:	03010713          	addi	a4,sp,48
    3d78:	01a70633          	add	a2,a4,s10
    3d7c:	ff064503          	lbu	a0,-16(a2)
    3d80:	1c0782e3          	beqz	a5,4744 <xprintf+0x1024>
    3d84:	00178613          	addi	a2,a5,1
    3d88:	00cc2023          	sw	a2,0(s8)
    3d8c:	00a78023          	sb	a0,0(a5)
    3d90:	1a0d0a63          	beqz	s10,3f44 <xprintf+0x824>
    3d94:	000c2783          	lw	a5,0(s8)
    3d98:	ffad8d13          	addi	s10,s11,-6
    3d9c:	03010713          	addi	a4,sp,48
    3da0:	01a70633          	add	a2,a4,s10
    3da4:	ff064503          	lbu	a0,-16(a2)
    3da8:	200782e3          	beqz	a5,47ac <xprintf+0x108c>
    3dac:	00178613          	addi	a2,a5,1
    3db0:	00cc2023          	sw	a2,0(s8)
    3db4:	00a78023          	sb	a0,0(a5)
    3db8:	180d0663          	beqz	s10,3f44 <xprintf+0x824>
    3dbc:	000c2783          	lw	a5,0(s8)
    3dc0:	ff9d8d13          	addi	s10,s11,-7
    3dc4:	03010713          	addi	a4,sp,48
    3dc8:	01a70633          	add	a2,a4,s10
    3dcc:	ff064503          	lbu	a0,-16(a2)
    3dd0:	46078ae3          	beqz	a5,4a44 <xprintf+0x1324>
    3dd4:	00178613          	addi	a2,a5,1
    3dd8:	00cc2023          	sw	a2,0(s8)
    3ddc:	00a78023          	sb	a0,0(a5)
    3de0:	160d0263          	beqz	s10,3f44 <xprintf+0x824>
    3de4:	000c2783          	lw	a5,0(s8)
    3de8:	ff8d8d13          	addi	s10,s11,-8
    3dec:	03010713          	addi	a4,sp,48
    3df0:	01a70633          	add	a2,a4,s10
    3df4:	ff064503          	lbu	a0,-16(a2)
    3df8:	480788e3          	beqz	a5,4a88 <xprintf+0x1368>
    3dfc:	00178613          	addi	a2,a5,1
    3e00:	00cc2023          	sw	a2,0(s8)
    3e04:	00a78023          	sb	a0,0(a5)
    3e08:	120d0e63          	beqz	s10,3f44 <xprintf+0x824>
    3e0c:	000c2783          	lw	a5,0(s8)
    3e10:	ff7d8d13          	addi	s10,s11,-9
    3e14:	03010713          	addi	a4,sp,48
    3e18:	01a70633          	add	a2,a4,s10
    3e1c:	ff064503          	lbu	a0,-16(a2)
    3e20:	480788e3          	beqz	a5,4ab0 <xprintf+0x1390>
    3e24:	00178613          	addi	a2,a5,1
    3e28:	00cc2023          	sw	a2,0(s8)
    3e2c:	00a78023          	sb	a0,0(a5)
    3e30:	100d0a63          	beqz	s10,3f44 <xprintf+0x824>
    3e34:	000c2783          	lw	a5,0(s8)
    3e38:	ff6d8d13          	addi	s10,s11,-10
    3e3c:	03010713          	addi	a4,sp,48
    3e40:	01a70633          	add	a2,a4,s10
    3e44:	ff064503          	lbu	a0,-16(a2)
    3e48:	54078ee3          	beqz	a5,4ba4 <xprintf+0x1484>
    3e4c:	00178613          	addi	a2,a5,1
    3e50:	00cc2023          	sw	a2,0(s8)
    3e54:	00a78023          	sb	a0,0(a5)
    3e58:	0e0d0663          	beqz	s10,3f44 <xprintf+0x824>
    3e5c:	000c2783          	lw	a5,0(s8)
    3e60:	ff5d8d13          	addi	s10,s11,-11
    3e64:	03010713          	addi	a4,sp,48
    3e68:	01a70633          	add	a2,a4,s10
    3e6c:	ff064503          	lbu	a0,-16(a2)
    3e70:	440788e3          	beqz	a5,4ac0 <xprintf+0x13a0>
    3e74:	00178613          	addi	a2,a5,1
    3e78:	00cc2023          	sw	a2,0(s8)
    3e7c:	00a78023          	sb	a0,0(a5)
    3e80:	0c0d0263          	beqz	s10,3f44 <xprintf+0x824>
    3e84:	000c2783          	lw	a5,0(s8)
    3e88:	ff4d8d13          	addi	s10,s11,-12
    3e8c:	03010713          	addi	a4,sp,48
    3e90:	01a70633          	add	a2,a4,s10
    3e94:	ff064503          	lbu	a0,-16(a2)
    3e98:	52078ee3          	beqz	a5,4bd4 <xprintf+0x14b4>
    3e9c:	00178613          	addi	a2,a5,1
    3ea0:	00cc2023          	sw	a2,0(s8)
    3ea4:	00a78023          	sb	a0,0(a5)
    3ea8:	080d0e63          	beqz	s10,3f44 <xprintf+0x824>
    3eac:	000c2783          	lw	a5,0(s8)
    3eb0:	ff3d8d13          	addi	s10,s11,-13
    3eb4:	03010713          	addi	a4,sp,48
    3eb8:	01a70633          	add	a2,a4,s10
    3ebc:	ff064503          	lbu	a0,-16(a2)
    3ec0:	520782e3          	beqz	a5,4be4 <xprintf+0x14c4>
    3ec4:	00178613          	addi	a2,a5,1
    3ec8:	00cc2023          	sw	a2,0(s8)
    3ecc:	00a78023          	sb	a0,0(a5)
    3ed0:	060d0a63          	beqz	s10,3f44 <xprintf+0x824>
    3ed4:	000c2783          	lw	a5,0(s8)
    3ed8:	ff2d8d13          	addi	s10,s11,-14
    3edc:	03010713          	addi	a4,sp,48
    3ee0:	01a70633          	add	a2,a4,s10
    3ee4:	ff064503          	lbu	a0,-16(a2)
    3ee8:	640786e3          	beqz	a5,4d34 <xprintf+0x1614>
    3eec:	00178613          	addi	a2,a5,1
    3ef0:	00cc2023          	sw	a2,0(s8)
    3ef4:	00a78023          	sb	a0,0(a5)
    3ef8:	040d0663          	beqz	s10,3f44 <xprintf+0x824>
    3efc:	000c2783          	lw	a5,0(s8)
    3f00:	ff1d8d13          	addi	s10,s11,-15
    3f04:	03010713          	addi	a4,sp,48
    3f08:	01a70633          	add	a2,a4,s10
    3f0c:	ff064503          	lbu	a0,-16(a2)
    3f10:	62078ae3          	beqz	a5,4d44 <xprintf+0x1624>
    3f14:	00178613          	addi	a2,a5,1
    3f18:	00cc2023          	sw	a2,0(s8)
    3f1c:	00a78023          	sb	a0,0(a5)
    3f20:	020d0263          	beqz	s10,3f44 <xprintf+0x824>
    3f24:	000c2783          	lw	a5,0(s8)
    3f28:	03010713          	addi	a4,sp,48
    3f2c:	01b705b3          	add	a1,a4,s11
    3f30:	fe05c503          	lbu	a0,-32(a1)
    3f34:	620780e3          	beqz	a5,4d54 <xprintf+0x1634>
    3f38:	00178613          	addi	a2,a5,1
    3f3c:	00cc2023          	sw	a2,0(s8)
    3f40:	00a78023          	sb	a0,0(a5)
    3f44:	00412783          	lw	a5,4(sp)
    3f48:	5377fee3          	bgeu	a5,s7,4c84 <xprintf+0x1564>
    3f4c:	419b8d33          	sub	s10,s7,s9
    3f50:	007d7d13          	andi	s10,s10,7
    3f54:	100d0063          	beqz	s10,4054 <xprintf+0x934>
    3f58:	000c2783          	lw	a5,0(s8)
    3f5c:	60078e63          	beqz	a5,4578 <xprintf+0xe58>
    3f60:	00178613          	addi	a2,a5,1
    3f64:	00cc2023          	sw	a2,0(s8)
    3f68:	02000613          	li	a2,32
    3f6c:	00c78023          	sb	a2,0(a5)
    3f70:	001c8d93          	addi	s11,s9,1
    3f74:	1d7cf663          	bgeu	s9,s7,4140 <xprintf+0xa20>
    3f78:	00100793          	li	a5,1
    3f7c:	000d8c93          	mv	s9,s11
    3f80:	0cfd0a63          	beq	s10,a5,4054 <xprintf+0x934>
    3f84:	00200793          	li	a5,2
    3f88:	0afd0863          	beq	s10,a5,4038 <xprintf+0x918>
    3f8c:	00300793          	li	a5,3
    3f90:	08fd0663          	beq	s10,a5,401c <xprintf+0x8fc>
    3f94:	00400793          	li	a5,4
    3f98:	06fd0463          	beq	s10,a5,4000 <xprintf+0x8e0>
    3f9c:	00500793          	li	a5,5
    3fa0:	04fd0263          	beq	s10,a5,3fe4 <xprintf+0x8c4>
    3fa4:	00600793          	li	a5,6
    3fa8:	02fd0063          	beq	s10,a5,3fc8 <xprintf+0x8a8>
    3fac:	000c2783          	lw	a5,0(s8)
    3fb0:	62078ae3          	beqz	a5,4de4 <xprintf+0x16c4>
    3fb4:	00178713          	addi	a4,a5,1
    3fb8:	00ec2023          	sw	a4,0(s8)
    3fbc:	02000713          	li	a4,32
    3fc0:	00e78023          	sb	a4,0(a5)
    3fc4:	001d8c93          	addi	s9,s11,1
    3fc8:	000c2783          	lw	a5,0(s8)
    3fcc:	3a078ce3          	beqz	a5,4b84 <xprintf+0x1464>
    3fd0:	00178613          	addi	a2,a5,1
    3fd4:	00cc2023          	sw	a2,0(s8)
    3fd8:	02000613          	li	a2,32
    3fdc:	00c78023          	sb	a2,0(a5)
    3fe0:	001c8c93          	addi	s9,s9,1
    3fe4:	000c2783          	lw	a5,0(s8)
    3fe8:	2e0784e3          	beqz	a5,4ad0 <xprintf+0x13b0>
    3fec:	00178613          	addi	a2,a5,1
    3ff0:	00cc2023          	sw	a2,0(s8)
    3ff4:	02000613          	li	a2,32
    3ff8:	00c78023          	sb	a2,0(a5)
    3ffc:	001c8c93          	addi	s9,s9,1
    4000:	000c2783          	lw	a5,0(s8)
    4004:	28078ae3          	beqz	a5,4a98 <xprintf+0x1378>
    4008:	00178613          	addi	a2,a5,1
    400c:	00cc2023          	sw	a2,0(s8)
    4010:	02000613          	li	a2,32
    4014:	00c78023          	sb	a2,0(a5)
    4018:	001c8c93          	addi	s9,s9,1
    401c:	000c2783          	lw	a5,0(s8)
    4020:	22078ae3          	beqz	a5,4a54 <xprintf+0x1334>
    4024:	00178613          	addi	a2,a5,1
    4028:	00cc2023          	sw	a2,0(s8)
    402c:	02000613          	li	a2,32
    4030:	00c78023          	sb	a2,0(a5)
    4034:	001c8c93          	addi	s9,s9,1
    4038:	000c2783          	lw	a5,0(s8)
    403c:	72078263          	beqz	a5,4760 <xprintf+0x1040>
    4040:	00178613          	addi	a2,a5,1
    4044:	00cc2023          	sw	a2,0(s8)
    4048:	02000613          	li	a2,32
    404c:	00c78023          	sb	a2,0(a5)
    4050:	001c8c93          	addi	s9,s9,1
    4054:	000c2783          	lw	a5,0(s8)
    4058:	0c078863          	beqz	a5,4128 <xprintf+0xa08>
    405c:	00178613          	addi	a2,a5,1
    4060:	00cc2023          	sw	a2,0(s8)
    4064:	02000613          	li	a2,32
    4068:	00c78023          	sb	a2,0(a5)
    406c:	001c8d13          	addi	s10,s9,1
    4070:	0d7cf863          	bgeu	s9,s7,4140 <xprintf+0xa20>
    4074:	000c2783          	lw	a5,0(s8)
    4078:	5a078463          	beqz	a5,4620 <xprintf+0xf00>
    407c:	00178713          	addi	a4,a5,1
    4080:	00ec2023          	sw	a4,0(s8)
    4084:	02000713          	li	a4,32
    4088:	00e78023          	sb	a4,0(a5)
    408c:	000c2783          	lw	a5,0(s8)
    4090:	56078e63          	beqz	a5,460c <xprintf+0xeec>
    4094:	00178713          	addi	a4,a5,1
    4098:	00ec2023          	sw	a4,0(s8)
    409c:	02000713          	li	a4,32
    40a0:	00e78023          	sb	a4,0(a5)
    40a4:	000c2783          	lw	a5,0(s8)
    40a8:	54078863          	beqz	a5,45f8 <xprintf+0xed8>
    40ac:	00178713          	addi	a4,a5,1
    40b0:	00ec2023          	sw	a4,0(s8)
    40b4:	02000713          	li	a4,32
    40b8:	00e78023          	sb	a4,0(a5)
    40bc:	000c2783          	lw	a5,0(s8)
    40c0:	52078263          	beqz	a5,45e4 <xprintf+0xec4>
    40c4:	00178713          	addi	a4,a5,1
    40c8:	00ec2023          	sw	a4,0(s8)
    40cc:	02000713          	li	a4,32
    40d0:	00e78023          	sb	a4,0(a5)
    40d4:	000c2783          	lw	a5,0(s8)
    40d8:	4c078263          	beqz	a5,459c <xprintf+0xe7c>
    40dc:	00178713          	addi	a4,a5,1
    40e0:	00ec2023          	sw	a4,0(s8)
    40e4:	02000713          	li	a4,32
    40e8:	00e78023          	sb	a4,0(a5)
    40ec:	000c2783          	lw	a5,0(s8)
    40f0:	4c078263          	beqz	a5,45b4 <xprintf+0xe94>
    40f4:	00178713          	addi	a4,a5,1
    40f8:	00ec2023          	sw	a4,0(s8)
    40fc:	02000713          	li	a4,32
    4100:	00e78023          	sb	a4,0(a5)
    4104:	000c2783          	lw	a5,0(s8)
    4108:	4c078263          	beqz	a5,45cc <xprintf+0xeac>
    410c:	00178713          	addi	a4,a5,1
    4110:	00ec2023          	sw	a4,0(s8)
    4114:	02000713          	li	a4,32
    4118:	00e78023          	sb	a4,0(a5)
    411c:	007d0c93          	addi	s9,s10,7
    4120:	000c2783          	lw	a5,0(s8)
    4124:	f2079ce3          	bnez	a5,405c <xprintf+0x93c>
    4128:	4344a783          	lw	a5,1076(s1)
    412c:	f40780e3          	beqz	a5,406c <xprintf+0x94c>
    4130:	02000513          	li	a0,32
    4134:	000780e7          	jalr	a5
    4138:	001c8d13          	addi	s10,s9,1
    413c:	f37cece3          	bltu	s9,s7,4074 <xprintf+0x954>
    4140:	00812c03          	lw	s8,8(sp)
    4144:	e7cff06f          	j	37c0 <xprintf+0xa0>
    4148:	00044503          	lbu	a0,0(s0)
    414c:	00466613          	ori	a2,a2,4
    4150:	00140413          	addi	s0,s0,1
    4154:	f14ff06f          	j	3868 <xprintf+0x148>
    4158:	05500793          	li	a5,85
    415c:	5ef70063          	beq	a4,a5,473c <xprintf+0x101c>
    4160:	05800593          	li	a1,88
    4164:	01000793          	li	a5,16
    4168:	f2b70c63          	beq	a4,a1,38a0 <xprintf+0x180>
    416c:	05300793          	li	a5,83
    4170:	22f71a63          	bne	a4,a5,43a4 <xprintf+0xc84>
    4174:	000c2c83          	lw	s9,0(s8)
    4178:	004c0a13          	addi	s4,s8,4
    417c:	000cc503          	lbu	a0,0(s9)
    4180:	540504e3          	beqz	a0,4ec8 <xprintf+0x17a8>
    4184:	00000793          	li	a5,0
    4188:	00078593          	mv	a1,a5
    418c:	00178793          	addi	a5,a5,1
    4190:	00fc8733          	add	a4,s9,a5
    4194:	00074703          	lbu	a4,0(a4)
    4198:	00258c13          	addi	s8,a1,2
    419c:	fe0716e3          	bnez	a4,4188 <xprintf+0xa68>
    41a0:	00267613          	andi	a2,a2,2
    41a4:	5c0618e3          	bnez	a2,4f74 <xprintf+0x1854>
    41a8:	001c0d93          	addi	s11,s8,1
    41ac:	6777f263          	bgeu	a5,s7,4810 <xprintf+0x10f0>
    41b0:	418b8d33          	sub	s10,s7,s8
    41b4:	007d7d13          	andi	s10,s10,7
    41b8:	000c0793          	mv	a5,s8
    41bc:	43090d93          	addi	s11,s2,1072
    41c0:	100d0063          	beqz	s10,42c0 <xprintf+0xba0>
    41c4:	000da783          	lw	a5,0(s11)
    41c8:	16078ce3          	beqz	a5,4b40 <xprintf+0x1420>
    41cc:	00178713          	addi	a4,a5,1
    41d0:	00eda023          	sw	a4,0(s11)
    41d4:	02000713          	li	a4,32
    41d8:	00e78023          	sb	a4,0(a5)
    41dc:	001c0713          	addi	a4,s8,1
    41e0:	617c7a63          	bgeu	s8,s7,47f4 <xprintf+0x10d4>
    41e4:	00100613          	li	a2,1
    41e8:	00070793          	mv	a5,a4
    41ec:	0ccd0a63          	beq	s10,a2,42c0 <xprintf+0xba0>
    41f0:	00200613          	li	a2,2
    41f4:	0acd0863          	beq	s10,a2,42a4 <xprintf+0xb84>
    41f8:	00300613          	li	a2,3
    41fc:	08cd0663          	beq	s10,a2,4288 <xprintf+0xb68>
    4200:	00400613          	li	a2,4
    4204:	06cd0463          	beq	s10,a2,426c <xprintf+0xb4c>
    4208:	00500613          	li	a2,5
    420c:	04cd0263          	beq	s10,a2,4250 <xprintf+0xb30>
    4210:	00600613          	li	a2,6
    4214:	02cd0063          	beq	s10,a2,4234 <xprintf+0xb14>
    4218:	000da783          	lw	a5,0(s11)
    421c:	52078ce3          	beqz	a5,4f54 <xprintf+0x1834>
    4220:	00178613          	addi	a2,a5,1
    4224:	00cda023          	sw	a2,0(s11)
    4228:	02000613          	li	a2,32
    422c:	00c78023          	sb	a2,0(a5)
    4230:	00170793          	addi	a5,a4,1
    4234:	000da703          	lw	a4,0(s11)
    4238:	4c0706e3          	beqz	a4,4f04 <xprintf+0x17e4>
    423c:	00170613          	addi	a2,a4,1
    4240:	00cda023          	sw	a2,0(s11)
    4244:	02000613          	li	a2,32
    4248:	00c70023          	sb	a2,0(a4)
    424c:	00178793          	addi	a5,a5,1
    4250:	000da703          	lw	a4,0(s11)
    4254:	3c0700e3          	beqz	a4,4e14 <xprintf+0x16f4>
    4258:	00170613          	addi	a2,a4,1
    425c:	00cda023          	sw	a2,0(s11)
    4260:	02000613          	li	a2,32
    4264:	00c70023          	sb	a2,0(a4)
    4268:	00178793          	addi	a5,a5,1
    426c:	000da703          	lw	a4,0(s11)
    4270:	34070ae3          	beqz	a4,4dc4 <xprintf+0x16a4>
    4274:	00170613          	addi	a2,a4,1
    4278:	00cda023          	sw	a2,0(s11)
    427c:	02000613          	li	a2,32
    4280:	00c70023          	sb	a2,0(a4)
    4284:	00178793          	addi	a5,a5,1
    4288:	000da703          	lw	a4,0(s11)
    428c:	3c070ce3          	beqz	a4,4e64 <xprintf+0x1744>
    4290:	00170613          	addi	a2,a4,1
    4294:	00cda023          	sw	a2,0(s11)
    4298:	02000613          	li	a2,32
    429c:	00c70023          	sb	a2,0(a4)
    42a0:	00178793          	addi	a5,a5,1
    42a4:	000da703          	lw	a4,0(s11)
    42a8:	2a070ee3          	beqz	a4,4d64 <xprintf+0x1644>
    42ac:	00170613          	addi	a2,a4,1
    42b0:	00cda023          	sw	a2,0(s11)
    42b4:	02000613          	li	a2,32
    42b8:	00c70023          	sb	a2,0(a4)
    42bc:	00178793          	addi	a5,a5,1
    42c0:	000da703          	lw	a4,0(s11)
    42c4:	020702e3          	beqz	a4,4ae8 <xprintf+0x13c8>
    42c8:	00170613          	addi	a2,a4,1
    42cc:	00cda023          	sw	a2,0(s11)
    42d0:	02000613          	li	a2,32
    42d4:	00c70023          	sb	a2,0(a4)
    42d8:	00178d13          	addi	s10,a5,1
    42dc:	5177fc63          	bgeu	a5,s7,47f4 <xprintf+0x10d4>
    42e0:	000da783          	lw	a5,0(s11)
    42e4:	180786e3          	beqz	a5,4c70 <xprintf+0x1550>
    42e8:	00178713          	addi	a4,a5,1
    42ec:	00eda023          	sw	a4,0(s11)
    42f0:	02000713          	li	a4,32
    42f4:	00e78023          	sb	a4,0(a5)
    42f8:	000da783          	lw	a5,0(s11)
    42fc:	160780e3          	beqz	a5,4c5c <xprintf+0x153c>
    4300:	00178713          	addi	a4,a5,1
    4304:	00eda023          	sw	a4,0(s11)
    4308:	02000713          	li	a4,32
    430c:	00e78023          	sb	a4,0(a5)
    4310:	000da783          	lw	a5,0(s11)
    4314:	12078ae3          	beqz	a5,4c48 <xprintf+0x1528>
    4318:	00178713          	addi	a4,a5,1
    431c:	00eda023          	sw	a4,0(s11)
    4320:	02000713          	li	a4,32
    4324:	00e78023          	sb	a4,0(a5)
    4328:	000da783          	lw	a5,0(s11)
    432c:	100784e3          	beqz	a5,4c34 <xprintf+0x1514>
    4330:	00178713          	addi	a4,a5,1
    4334:	00eda023          	sw	a4,0(s11)
    4338:	02000713          	li	a4,32
    433c:	00e78023          	sb	a4,0(a5)
    4340:	000da783          	lw	a5,0(s11)
    4344:	0c078ee3          	beqz	a5,4c20 <xprintf+0x1500>
    4348:	00178713          	addi	a4,a5,1
    434c:	00eda023          	sw	a4,0(s11)
    4350:	02000713          	li	a4,32
    4354:	00e78023          	sb	a4,0(a5)
    4358:	000da783          	lw	a5,0(s11)
    435c:	0a0788e3          	beqz	a5,4c0c <xprintf+0x14ec>
    4360:	00178713          	addi	a4,a5,1
    4364:	00eda023          	sw	a4,0(s11)
    4368:	02000713          	li	a4,32
    436c:	00e78023          	sb	a4,0(a5)
    4370:	000da783          	lw	a5,0(s11)
    4374:	080780e3          	beqz	a5,4bf4 <xprintf+0x14d4>
    4378:	00178713          	addi	a4,a5,1
    437c:	00eda023          	sw	a4,0(s11)
    4380:	02000713          	li	a4,32
    4384:	00e78023          	sb	a4,0(a5)
    4388:	007d0793          	addi	a5,s10,7
    438c:	000da703          	lw	a4,0(s11)
    4390:	f2071ce3          	bnez	a4,42c8 <xprintf+0xba8>
    4394:	7540006f          	j	4ae8 <xprintf+0x13c8>
    4398:	04200593          	li	a1,66
    439c:	00200793          	li	a5,2
    43a0:	d0b70063          	beq	a4,a1,38a0 <xprintf+0x180>
    43a4:	43090713          	addi	a4,s2,1072
    43a8:	00072783          	lw	a5,0(a4)
    43ac:	74078c63          	beqz	a5,4b04 <xprintf+0x13e4>
    43b0:	00178613          	addi	a2,a5,1
    43b4:	00c72023          	sw	a2,0(a4)
    43b8:	00a78023          	sb	a0,0(a5)
    43bc:	c04ff06f          	j	37c0 <xprintf+0xa0>
    43c0:	4344a783          	lw	a5,1076(s1)
    43c4:	00070413          	mv	s0,a4
    43c8:	be078c63          	beqz	a5,37c0 <xprintf+0xa0>
    43cc:	000780e7          	jalr	a5
    43d0:	bf0ff06f          	j	37c0 <xprintf+0xa0>
    43d4:	00244503          	lbu	a0,2(s0)
    43d8:	00100613          	li	a2,1
    43dc:	00340413          	addi	s0,s0,3
    43e0:	fd050793          	addi	a5,a0,-48
    43e4:	0ff7f793          	zext.b	a5,a5
    43e8:	c4fb7463          	bgeu	s6,a5,3830 <xprintf+0x110>
    43ec:	0df57793          	andi	a5,a0,223
    43f0:	04c00713          	li	a4,76
    43f4:	00000b93          	li	s7,0
    43f8:	c6e79863          	bne	a5,a4,3868 <xprintf+0x148>
    43fc:	d4dff06f          	j	4148 <xprintf+0xa28>
    4400:	04400593          	li	a1,68
    4404:	2ab70063          	beq	a4,a1,46a4 <xprintf+0xf84>
    4408:	000c2883          	lw	a7,0(s8)
    440c:	00000813          	li	a6,0
    4410:	cb4ff06f          	j	38c4 <xprintf+0x1a4>
    4414:	01859593          	slli	a1,a1,0x18
    4418:	4185d593          	srai	a1,a1,0x18
    441c:	03058593          	addi	a1,a1,48
    4420:	02b10023          	sb	a1,32(sp)
    4424:	ccf8fa63          	bgeu	a7,a5,38f8 <xprintf+0x1d8>
    4428:	00100d93          	li	s11,1
    442c:	00000793          	li	a5,0
    4430:	e8cff06f          	j	3abc <xprintf+0x39c>
    4434:	01859593          	slli	a1,a1,0x18
    4438:	4185d593          	srai	a1,a1,0x18
    443c:	03058593          	addi	a1,a1,48
    4440:	02b100a3          	sb	a1,33(sp)
    4444:	ccf57863          	bgeu	a0,a5,3914 <xprintf+0x1f4>
    4448:	00200d93          	li	s11,2
    444c:	00100793          	li	a5,1
    4450:	e6cff06f          	j	3abc <xprintf+0x39c>
    4454:	4344a703          	lw	a4,1076(s1)
    4458:	840708e3          	beqz	a4,3ca8 <xprintf+0x588>
    445c:	000a0513          	mv	a0,s4
    4460:	000700e7          	jalr	a4
    4464:	000c2783          	lw	a5,0(s8)
    4468:	007d0c93          	addi	s9,s10,7
    446c:	841ff06f          	j	3cac <xprintf+0x58c>
    4470:	4344a703          	lw	a4,1076(s1)
    4474:	fe0700e3          	beqz	a4,4454 <xprintf+0xd34>
    4478:	000a0513          	mv	a0,s4
    447c:	000700e7          	jalr	a4
    4480:	000c2783          	lw	a5,0(s8)
    4484:	811ff06f          	j	3c94 <xprintf+0x574>
    4488:	4344a703          	lw	a4,1076(s1)
    448c:	fe0702e3          	beqz	a4,4470 <xprintf+0xd50>
    4490:	000a0513          	mv	a0,s4
    4494:	000700e7          	jalr	a4
    4498:	000c2783          	lw	a5,0(s8)
    449c:	fe4ff06f          	j	3c80 <xprintf+0x560>
    44a0:	4344a703          	lw	a4,1076(s1)
    44a4:	fe0702e3          	beqz	a4,4488 <xprintf+0xd68>
    44a8:	000a0513          	mv	a0,s4
    44ac:	000700e7          	jalr	a4
    44b0:	000c2783          	lw	a5,0(s8)
    44b4:	fb8ff06f          	j	3c6c <xprintf+0x54c>
    44b8:	4344a703          	lw	a4,1076(s1)
    44bc:	fe0702e3          	beqz	a4,44a0 <xprintf+0xd80>
    44c0:	000a0513          	mv	a0,s4
    44c4:	000700e7          	jalr	a4
    44c8:	000c2783          	lw	a5,0(s8)
    44cc:	f8cff06f          	j	3c58 <xprintf+0x538>
    44d0:	4344a703          	lw	a4,1076(s1)
    44d4:	fe0702e3          	beqz	a4,44b8 <xprintf+0xd98>
    44d8:	000a0513          	mv	a0,s4
    44dc:	000700e7          	jalr	a4
    44e0:	000c2783          	lw	a5,0(s8)
    44e4:	f60ff06f          	j	3c44 <xprintf+0x524>
    44e8:	4344a703          	lw	a4,1076(s1)
    44ec:	fe0702e3          	beqz	a4,44d0 <xprintf+0xdb0>
    44f0:	000a0513          	mv	a0,s4
    44f4:	000700e7          	jalr	a4
    44f8:	000c2783          	lw	a5,0(s8)
    44fc:	f34ff06f          	j	3c30 <xprintf+0x510>
    4500:	4344a783          	lw	a5,1076(s1)
    4504:	fe078663          	beqz	a5,3cf0 <xprintf+0x5d0>
    4508:	000780e7          	jalr	a5
    450c:	fe4ff06f          	j	3cf0 <xprintf+0x5d0>
    4510:	01859593          	slli	a1,a1,0x18
    4514:	4185d593          	srai	a1,a1,0x18
    4518:	03058593          	addi	a1,a1,48
    451c:	02b10123          	sb	a1,34(sp)
    4520:	c0f8f863          	bgeu	a7,a5,3930 <xprintf+0x210>
    4524:	00300d93          	li	s11,3
    4528:	00200793          	li	a5,2
    452c:	d90ff06f          	j	3abc <xprintf+0x39c>
    4530:	01859593          	slli	a1,a1,0x18
    4534:	4185d593          	srai	a1,a1,0x18
    4538:	03058593          	addi	a1,a1,48
    453c:	02b101a3          	sb	a1,35(sp)
    4540:	c0f57663          	bgeu	a0,a5,394c <xprintf+0x22c>
    4544:	00400d93          	li	s11,4
    4548:	00300793          	li	a5,3
    454c:	d70ff06f          	j	3abc <xprintf+0x39c>
    4550:	00244503          	lbu	a0,2(s0)
    4554:	00200613          	li	a2,2
    4558:	00340413          	addi	s0,s0,3
    455c:	ac8ff06f          	j	3824 <xprintf+0x104>
    4560:	4344a603          	lw	a2,1076(s1)
    4564:	dc060663          	beqz	a2,3b30 <xprintf+0x410>
    4568:	000a0513          	mv	a0,s4
    456c:	000600e7          	jalr	a2
    4570:	000c2783          	lw	a5,0(s8)
    4574:	dbcff06f          	j	3b30 <xprintf+0x410>
    4578:	4344a783          	lw	a5,1076(s1)
    457c:	9e078ae3          	beqz	a5,3f70 <xprintf+0x850>
    4580:	02000513          	li	a0,32
    4584:	000780e7          	jalr	a5
    4588:	9e9ff06f          	j	3f70 <xprintf+0x850>
    458c:	4344a783          	lw	a5,1076(s1)
    4590:	f8078463          	beqz	a5,3d18 <xprintf+0x5f8>
    4594:	000780e7          	jalr	a5
    4598:	f80ff06f          	j	3d18 <xprintf+0x5f8>
    459c:	4344a783          	lw	a5,1076(s1)
    45a0:	b40786e3          	beqz	a5,40ec <xprintf+0x9cc>
    45a4:	02000513          	li	a0,32
    45a8:	000780e7          	jalr	a5
    45ac:	000c2783          	lw	a5,0(s8)
    45b0:	b40792e3          	bnez	a5,40f4 <xprintf+0x9d4>
    45b4:	4344a783          	lw	a5,1076(s1)
    45b8:	b40786e3          	beqz	a5,4104 <xprintf+0x9e4>
    45bc:	02000513          	li	a0,32
    45c0:	000780e7          	jalr	a5
    45c4:	000c2783          	lw	a5,0(s8)
    45c8:	b40792e3          	bnez	a5,410c <xprintf+0x9ec>
    45cc:	4344a783          	lw	a5,1076(s1)
    45d0:	b40786e3          	beqz	a5,411c <xprintf+0x9fc>
    45d4:	02000513          	li	a0,32
    45d8:	000780e7          	jalr	a5
    45dc:	007d0c93          	addi	s9,s10,7
    45e0:	b41ff06f          	j	4120 <xprintf+0xa00>
    45e4:	4344a783          	lw	a5,1076(s1)
    45e8:	ae0786e3          	beqz	a5,40d4 <xprintf+0x9b4>
    45ec:	02000513          	li	a0,32
    45f0:	000780e7          	jalr	a5
    45f4:	ae1ff06f          	j	40d4 <xprintf+0x9b4>
    45f8:	4344a783          	lw	a5,1076(s1)
    45fc:	ac0780e3          	beqz	a5,40bc <xprintf+0x99c>
    4600:	02000513          	li	a0,32
    4604:	000780e7          	jalr	a5
    4608:	ab5ff06f          	j	40bc <xprintf+0x99c>
    460c:	4344a783          	lw	a5,1076(s1)
    4610:	a8078ae3          	beqz	a5,40a4 <xprintf+0x984>
    4614:	02000513          	li	a0,32
    4618:	000780e7          	jalr	a5
    461c:	a89ff06f          	j	40a4 <xprintf+0x984>
    4620:	4344a783          	lw	a5,1076(s1)
    4624:	a60784e3          	beqz	a5,408c <xprintf+0x96c>
    4628:	02000513          	li	a0,32
    462c:	000780e7          	jalr	a5
    4630:	a5dff06f          	j	408c <xprintf+0x96c>
    4634:	01859593          	slli	a1,a1,0x18
    4638:	4185d593          	srai	a1,a1,0x18
    463c:	03058593          	addi	a1,a1,48
    4640:	02b10223          	sb	a1,36(sp)
    4644:	b2f8f263          	bgeu	a7,a5,3968 <xprintf+0x248>
    4648:	00500d93          	li	s11,5
    464c:	00400793          	li	a5,4
    4650:	c6cff06f          	j	3abc <xprintf+0x39c>
    4654:	01859593          	slli	a1,a1,0x18
    4658:	4185d593          	srai	a1,a1,0x18
    465c:	03058593          	addi	a1,a1,48
    4660:	02b102a3          	sb	a1,37(sp)
    4664:	b2f57063          	bgeu	a0,a5,3984 <xprintf+0x264>
    4668:	00600d93          	li	s11,6
    466c:	00500793          	li	a5,5
    4670:	c4cff06f          	j	3abc <xprintf+0x39c>
    4674:	4344a783          	lw	a5,1076(s1)
    4678:	ec078463          	beqz	a5,3d40 <xprintf+0x620>
    467c:	000780e7          	jalr	a5
    4680:	ec0ff06f          	j	3d40 <xprintf+0x620>
    4684:	01859593          	slli	a1,a1,0x18
    4688:	4185d593          	srai	a1,a1,0x18
    468c:	03058593          	addi	a1,a1,48
    4690:	02b10323          	sb	a1,38(sp)
    4694:	b0f8f663          	bgeu	a7,a5,39a0 <xprintf+0x280>
    4698:	00700d93          	li	s11,7
    469c:	00600793          	li	a5,6
    46a0:	c1cff06f          	j	3abc <xprintf+0x39c>
    46a4:	000c2583          	lw	a1,0(s8)
    46a8:	00058893          	mv	a7,a1
    46ac:	00000813          	li	a6,0
    46b0:	a005da63          	bgez	a1,38c4 <xprintf+0x1a4>
    46b4:	00800813          	li	a6,8
    46b8:	411008b3          	neg	a7,a7
    46bc:	00866613          	ori	a2,a2,8
    46c0:	a04ff06f          	j	38c4 <xprintf+0x1a4>
    46c4:	01859593          	slli	a1,a1,0x18
    46c8:	4185d593          	srai	a1,a1,0x18
    46cc:	03058593          	addi	a1,a1,48
    46d0:	02b103a3          	sb	a1,39(sp)
    46d4:	aef57463          	bgeu	a0,a5,39bc <xprintf+0x29c>
    46d8:	00800d93          	li	s11,8
    46dc:	00700793          	li	a5,7
    46e0:	bdcff06f          	j	3abc <xprintf+0x39c>
    46e4:	4344a783          	lw	a5,1076(s1)
    46e8:	e8078063          	beqz	a5,3d68 <xprintf+0x648>
    46ec:	000780e7          	jalr	a5
    46f0:	e78ff06f          	j	3d68 <xprintf+0x648>
    46f4:	01859593          	slli	a1,a1,0x18
    46f8:	4185d593          	srai	a1,a1,0x18
    46fc:	03058593          	addi	a1,a1,48
    4700:	02b10423          	sb	a1,40(sp)
    4704:	acf8fa63          	bgeu	a7,a5,39d8 <xprintf+0x2b8>
    4708:	00800793          	li	a5,8
    470c:	00900d93          	li	s11,9
    4710:	bacff06f          	j	3abc <xprintf+0x39c>
    4714:	4344a603          	lw	a2,1076(s1)
    4718:	ce060263          	beqz	a2,3bfc <xprintf+0x4dc>
    471c:	000a0513          	mv	a0,s4
    4720:	000600e7          	jalr	a2
    4724:	000c2783          	lw	a5,0(s8)
    4728:	001c8c93          	addi	s9,s9,1
    472c:	cd4ff06f          	j	3c00 <xprintf+0x4e0>
    4730:	01859593          	slli	a1,a1,0x18
    4734:	4185d593          	srai	a1,a1,0x18
    4738:	ab0ff06f          	j	39e8 <xprintf+0x2c8>
    473c:	00a00793          	li	a5,10
    4740:	960ff06f          	j	38a0 <xprintf+0x180>
    4744:	4344a783          	lw	a5,1076(s1)
    4748:	e4078463          	beqz	a5,3d90 <xprintf+0x670>
    474c:	000780e7          	jalr	a5
    4750:	e40ff06f          	j	3d90 <xprintf+0x670>
    4754:	01859593          	slli	a1,a1,0x18
    4758:	4185d593          	srai	a1,a1,0x18
    475c:	aacff06f          	j	3a08 <xprintf+0x2e8>
    4760:	4344a783          	lw	a5,1076(s1)
    4764:	8e0786e3          	beqz	a5,4050 <xprintf+0x930>
    4768:	02000513          	li	a0,32
    476c:	000780e7          	jalr	a5
    4770:	001c8c93          	addi	s9,s9,1
    4774:	8e1ff06f          	j	4054 <xprintf+0x934>
    4778:	01859593          	slli	a1,a1,0x18
    477c:	4185d593          	srai	a1,a1,0x18
    4780:	aa8ff06f          	j	3a28 <xprintf+0x308>
    4784:	01859593          	slli	a1,a1,0x18
    4788:	4185d593          	srai	a1,a1,0x18
    478c:	abcff06f          	j	3a48 <xprintf+0x328>
    4790:	4344a603          	lw	a2,1076(s1)
    4794:	c4060863          	beqz	a2,3be4 <xprintf+0x4c4>
    4798:	000a0513          	mv	a0,s4
    479c:	000600e7          	jalr	a2
    47a0:	000c2783          	lw	a5,0(s8)
    47a4:	001c8c93          	addi	s9,s9,1
    47a8:	c40ff06f          	j	3be8 <xprintf+0x4c8>
    47ac:	4344a783          	lw	a5,1076(s1)
    47b0:	e0078463          	beqz	a5,3db8 <xprintf+0x698>
    47b4:	000780e7          	jalr	a5
    47b8:	e00ff06f          	j	3db8 <xprintf+0x698>
    47bc:	00800793          	li	a5,8
    47c0:	8e0ff06f          	j	38a0 <xprintf+0x180>
    47c4:	43090713          	addi	a4,s2,1072
    47c8:	00072783          	lw	a5,0(a4)
    47cc:	000c4503          	lbu	a0,0(s8)
    47d0:	004c0c13          	addi	s8,s8,4
    47d4:	34078c63          	beqz	a5,4b2c <xprintf+0x140c>
    47d8:	00178613          	addi	a2,a5,1
    47dc:	00c72023          	sw	a2,0(a4)
    47e0:	00a78023          	sb	a0,0(a5)
    47e4:	fddfe06f          	j	37c0 <xprintf+0xa0>
    47e8:	01859593          	slli	a1,a1,0x18
    47ec:	4185d593          	srai	a1,a1,0x18
    47f0:	a78ff06f          	j	3a68 <xprintf+0x348>
    47f4:	00000d93          	li	s11,0
    47f8:	018be463          	bltu	s7,s8,4800 <xprintf+0x10e0>
    47fc:	418b8db3          	sub	s11,s7,s8
    4800:	000cc503          	lbu	a0,0(s9)
    4804:	018d8db3          	add	s11,s11,s8
    4808:	001d8c13          	addi	s8,s11,1
    480c:	002d8d93          	addi	s11,s11,2
    4810:	04050063          	beqz	a0,4850 <xprintf+0x1130>
    4814:	43090d13          	addi	s10,s2,1072
    4818:	0180006f          	j	4830 <xprintf+0x1110>
    481c:	00178713          	addi	a4,a5,1
    4820:	00ed2023          	sw	a4,0(s10)
    4824:	00a78023          	sb	a0,0(a5)
    4828:	000cc503          	lbu	a0,0(s9)
    482c:	02050263          	beqz	a0,4850 <xprintf+0x1130>
    4830:	000d2783          	lw	a5,0(s10)
    4834:	4344a703          	lw	a4,1076(s1)
    4838:	001c8c93          	addi	s9,s9,1
    483c:	fe0790e3          	bnez	a5,481c <xprintf+0x10fc>
    4840:	fe0704e3          	beqz	a4,4828 <xprintf+0x1108>
    4844:	000700e7          	jalr	a4
    4848:	000cc503          	lbu	a0,0(s9)
    484c:	fe0512e3          	bnez	a0,4830 <xprintf+0x1110>
    4850:	43090c93          	addi	s9,s2,1072
    4854:	697c7863          	bgeu	s8,s7,4ee4 <xprintf+0x17c4>
    4858:	41bb8d33          	sub	s10,s7,s11
    485c:	007d7d13          	andi	s10,s10,7
    4860:	100d0063          	beqz	s10,4960 <xprintf+0x1240>
    4864:	000ca783          	lw	a5,0(s9)
    4868:	2e078663          	beqz	a5,4b54 <xprintf+0x1434>
    486c:	00178713          	addi	a4,a5,1
    4870:	00eca023          	sw	a4,0(s9)
    4874:	02000713          	li	a4,32
    4878:	00e78023          	sb	a4,0(a5)
    487c:	001d8c13          	addi	s8,s11,1
    4880:	317dfe63          	bgeu	s11,s7,4b9c <xprintf+0x147c>
    4884:	00100713          	li	a4,1
    4888:	000c0d93          	mv	s11,s8
    488c:	0ced0a63          	beq	s10,a4,4960 <xprintf+0x1240>
    4890:	00200713          	li	a4,2
    4894:	0aed0863          	beq	s10,a4,4944 <xprintf+0x1224>
    4898:	00300713          	li	a4,3
    489c:	08ed0663          	beq	s10,a4,4928 <xprintf+0x1208>
    48a0:	00400713          	li	a4,4
    48a4:	06ed0463          	beq	s10,a4,490c <xprintf+0x11ec>
    48a8:	00500713          	li	a4,5
    48ac:	04ed0263          	beq	s10,a4,48f0 <xprintf+0x11d0>
    48b0:	00600713          	li	a4,6
    48b4:	02ed0063          	beq	s10,a4,48d4 <xprintf+0x11b4>
    48b8:	000ca703          	lw	a4,0(s9)
    48bc:	68070063          	beqz	a4,4f3c <xprintf+0x181c>
    48c0:	00170613          	addi	a2,a4,1
    48c4:	00cca023          	sw	a2,0(s9)
    48c8:	02000613          	li	a2,32
    48cc:	00c70023          	sb	a2,0(a4)
    48d0:	001c0d93          	addi	s11,s8,1
    48d4:	000ca783          	lw	a5,0(s9)
    48d8:	64078663          	beqz	a5,4f24 <xprintf+0x1804>
    48dc:	00178713          	addi	a4,a5,1
    48e0:	00eca023          	sw	a4,0(s9)
    48e4:	02000713          	li	a4,32
    48e8:	00e78023          	sb	a4,0(a5)
    48ec:	001d8d93          	addi	s11,s11,1
    48f0:	000ca783          	lw	a5,0(s9)
    48f4:	54078063          	beqz	a5,4e34 <xprintf+0x1714>
    48f8:	00178713          	addi	a4,a5,1
    48fc:	00eca023          	sw	a4,0(s9)
    4900:	02000713          	li	a4,32
    4904:	00e78023          	sb	a4,0(a5)
    4908:	001d8d93          	addi	s11,s11,1
    490c:	000ca783          	lw	a5,0(s9)
    4910:	4e078663          	beqz	a5,4dfc <xprintf+0x16dc>
    4914:	00178713          	addi	a4,a5,1
    4918:	00eca023          	sw	a4,0(s9)
    491c:	02000713          	li	a4,32
    4920:	00e78023          	sb	a4,0(a5)
    4924:	001d8d93          	addi	s11,s11,1
    4928:	000ca783          	lw	a5,0(s9)
    492c:	44078c63          	beqz	a5,4d84 <xprintf+0x1664>
    4930:	00178713          	addi	a4,a5,1
    4934:	00eca023          	sw	a4,0(s9)
    4938:	02000713          	li	a4,32
    493c:	00e78023          	sb	a4,0(a5)
    4940:	001d8d93          	addi	s11,s11,1
    4944:	000ca783          	lw	a5,0(s9)
    4948:	50078263          	beqz	a5,4e4c <xprintf+0x172c>
    494c:	00178713          	addi	a4,a5,1
    4950:	00eca023          	sw	a4,0(s9)
    4954:	02000713          	li	a4,32
    4958:	00e78023          	sb	a4,0(a5)
    495c:	001d8d93          	addi	s11,s11,1
    4960:	000ca783          	lw	a5,0(s9)
    4964:	1a078a63          	beqz	a5,4b18 <xprintf+0x13f8>
    4968:	00178713          	addi	a4,a5,1
    496c:	00eca023          	sw	a4,0(s9)
    4970:	02000713          	li	a4,32
    4974:	00e78023          	sb	a4,0(a5)
    4978:	001d8d13          	addi	s10,s11,1
    497c:	237df063          	bgeu	s11,s7,4b9c <xprintf+0x147c>
    4980:	000ca783          	lw	a5,0(s9)
    4984:	30078463          	beqz	a5,4c8c <xprintf+0x156c>
    4988:	00178713          	addi	a4,a5,1
    498c:	00eca023          	sw	a4,0(s9)
    4990:	02000713          	li	a4,32
    4994:	00e78023          	sb	a4,0(a5)
    4998:	000ca783          	lw	a5,0(s9)
    499c:	30078463          	beqz	a5,4ca4 <xprintf+0x1584>
    49a0:	00178713          	addi	a4,a5,1
    49a4:	00eca023          	sw	a4,0(s9)
    49a8:	02000713          	li	a4,32
    49ac:	00e78023          	sb	a4,0(a5)
    49b0:	000ca783          	lw	a5,0(s9)
    49b4:	30078463          	beqz	a5,4cbc <xprintf+0x159c>
    49b8:	00178713          	addi	a4,a5,1
    49bc:	00eca023          	sw	a4,0(s9)
    49c0:	02000713          	li	a4,32
    49c4:	00e78023          	sb	a4,0(a5)
    49c8:	000ca783          	lw	a5,0(s9)
    49cc:	30078463          	beqz	a5,4cd4 <xprintf+0x15b4>
    49d0:	00178713          	addi	a4,a5,1
    49d4:	00eca023          	sw	a4,0(s9)
    49d8:	02000713          	li	a4,32
    49dc:	00e78023          	sb	a4,0(a5)
    49e0:	000ca783          	lw	a5,0(s9)
    49e4:	30078463          	beqz	a5,4cec <xprintf+0x15cc>
    49e8:	00178713          	addi	a4,a5,1
    49ec:	00eca023          	sw	a4,0(s9)
    49f0:	02000713          	li	a4,32
    49f4:	00e78023          	sb	a4,0(a5)
    49f8:	000ca783          	lw	a5,0(s9)
    49fc:	30078463          	beqz	a5,4d04 <xprintf+0x15e4>
    4a00:	00178713          	addi	a4,a5,1
    4a04:	00eca023          	sw	a4,0(s9)
    4a08:	02000713          	li	a4,32
    4a0c:	00e78023          	sb	a4,0(a5)
    4a10:	000ca783          	lw	a5,0(s9)
    4a14:	30078463          	beqz	a5,4d1c <xprintf+0x15fc>
    4a18:	00178713          	addi	a4,a5,1
    4a1c:	00eca023          	sw	a4,0(s9)
    4a20:	02000713          	li	a4,32
    4a24:	00e78023          	sb	a4,0(a5)
    4a28:	007d0d93          	addi	s11,s10,7
    4a2c:	000ca783          	lw	a5,0(s9)
    4a30:	f2079ce3          	bnez	a5,4968 <xprintf+0x1248>
    4a34:	0e40006f          	j	4b18 <xprintf+0x13f8>
    4a38:	01859593          	slli	a1,a1,0x18
    4a3c:	4185d593          	srai	a1,a1,0x18
    4a40:	848ff06f          	j	3a88 <xprintf+0x368>
    4a44:	4344a783          	lw	a5,1076(s1)
    4a48:	b8078c63          	beqz	a5,3de0 <xprintf+0x6c0>
    4a4c:	000780e7          	jalr	a5
    4a50:	b90ff06f          	j	3de0 <xprintf+0x6c0>
    4a54:	4344a783          	lw	a5,1076(s1)
    4a58:	dc078e63          	beqz	a5,4034 <xprintf+0x914>
    4a5c:	02000513          	li	a0,32
    4a60:	000780e7          	jalr	a5
    4a64:	001c8c93          	addi	s9,s9,1
    4a68:	dd0ff06f          	j	4038 <xprintf+0x918>
    4a6c:	4344a603          	lw	a2,1076(s1)
    4a70:	94060e63          	beqz	a2,3bcc <xprintf+0x4ac>
    4a74:	000a0513          	mv	a0,s4
    4a78:	000600e7          	jalr	a2
    4a7c:	000c2783          	lw	a5,0(s8)
    4a80:	001c8c93          	addi	s9,s9,1
    4a84:	94cff06f          	j	3bd0 <xprintf+0x4b0>
    4a88:	4344a783          	lw	a5,1076(s1)
    4a8c:	b6078e63          	beqz	a5,3e08 <xprintf+0x6e8>
    4a90:	000780e7          	jalr	a5
    4a94:	b74ff06f          	j	3e08 <xprintf+0x6e8>
    4a98:	4344a783          	lw	a5,1076(s1)
    4a9c:	d6078e63          	beqz	a5,4018 <xprintf+0x8f8>
    4aa0:	02000513          	li	a0,32
    4aa4:	000780e7          	jalr	a5
    4aa8:	001c8c93          	addi	s9,s9,1
    4aac:	d70ff06f          	j	401c <xprintf+0x8fc>
    4ab0:	4344a783          	lw	a5,1076(s1)
    4ab4:	b6078e63          	beqz	a5,3e30 <xprintf+0x710>
    4ab8:	000780e7          	jalr	a5
    4abc:	b74ff06f          	j	3e30 <xprintf+0x710>
    4ac0:	4344a783          	lw	a5,1076(s1)
    4ac4:	ba078e63          	beqz	a5,3e80 <xprintf+0x760>
    4ac8:	000780e7          	jalr	a5
    4acc:	bb4ff06f          	j	3e80 <xprintf+0x760>
    4ad0:	4344a783          	lw	a5,1076(s1)
    4ad4:	d2078463          	beqz	a5,3ffc <xprintf+0x8dc>
    4ad8:	02000513          	li	a0,32
    4adc:	000780e7          	jalr	a5
    4ae0:	001c8c93          	addi	s9,s9,1
    4ae4:	d1cff06f          	j	4000 <xprintf+0x8e0>
    4ae8:	4344a703          	lw	a4,1076(s1)
    4aec:	fe070663          	beqz	a4,42d8 <xprintf+0xbb8>
    4af0:	02000513          	li	a0,32
    4af4:	00f12223          	sw	a5,4(sp)
    4af8:	000700e7          	jalr	a4
    4afc:	00412783          	lw	a5,4(sp)
    4b00:	fd8ff06f          	j	42d8 <xprintf+0xbb8>
    4b04:	4344a783          	lw	a5,1076(s1)
    4b08:	00079463          	bnez	a5,4b10 <xprintf+0x13f0>
    4b0c:	cb5fe06f          	j	37c0 <xprintf+0xa0>
    4b10:	000780e7          	jalr	a5
    4b14:	cadfe06f          	j	37c0 <xprintf+0xa0>
    4b18:	4344a783          	lw	a5,1076(s1)
    4b1c:	e4078ee3          	beqz	a5,4978 <xprintf+0x1258>
    4b20:	02000513          	li	a0,32
    4b24:	000780e7          	jalr	a5
    4b28:	e51ff06f          	j	4978 <xprintf+0x1258>
    4b2c:	4344a783          	lw	a5,1076(s1)
    4b30:	00079463          	bnez	a5,4b38 <xprintf+0x1418>
    4b34:	c8dfe06f          	j	37c0 <xprintf+0xa0>
    4b38:	000780e7          	jalr	a5
    4b3c:	c85fe06f          	j	37c0 <xprintf+0xa0>
    4b40:	4344a783          	lw	a5,1076(s1)
    4b44:	e8078c63          	beqz	a5,41dc <xprintf+0xabc>
    4b48:	02000513          	li	a0,32
    4b4c:	000780e7          	jalr	a5
    4b50:	e8cff06f          	j	41dc <xprintf+0xabc>
    4b54:	4344a783          	lw	a5,1076(s1)
    4b58:	d20782e3          	beqz	a5,487c <xprintf+0x115c>
    4b5c:	02000513          	li	a0,32
    4b60:	000780e7          	jalr	a5
    4b64:	d19ff06f          	j	487c <xprintf+0x115c>
    4b68:	4344a603          	lw	a2,1076(s1)
    4b6c:	82060663          	beqz	a2,3b98 <xprintf+0x478>
    4b70:	000a0513          	mv	a0,s4
    4b74:	000600e7          	jalr	a2
    4b78:	000c2783          	lw	a5,0(s8)
    4b7c:	001c8c93          	addi	s9,s9,1
    4b80:	81cff06f          	j	3b9c <xprintf+0x47c>
    4b84:	4344a783          	lw	a5,1076(s1)
    4b88:	c4078c63          	beqz	a5,3fe0 <xprintf+0x8c0>
    4b8c:	02000513          	li	a0,32
    4b90:	000780e7          	jalr	a5
    4b94:	001c8c93          	addi	s9,s9,1
    4b98:	c4cff06f          	j	3fe4 <xprintf+0x8c4>
    4b9c:	000a0c13          	mv	s8,s4
    4ba0:	c21fe06f          	j	37c0 <xprintf+0xa0>
    4ba4:	4344a783          	lw	a5,1076(s1)
    4ba8:	aa078863          	beqz	a5,3e58 <xprintf+0x738>
    4bac:	000780e7          	jalr	a5
    4bb0:	aa8ff06f          	j	3e58 <xprintf+0x738>
    4bb4:	4344a603          	lw	a2,1076(s1)
    4bb8:	00061463          	bnez	a2,4bc0 <xprintf+0x14a0>
    4bbc:	ff9fe06f          	j	3bb4 <xprintf+0x494>
    4bc0:	000a0513          	mv	a0,s4
    4bc4:	000600e7          	jalr	a2
    4bc8:	000c2783          	lw	a5,0(s8)
    4bcc:	001c8c93          	addi	s9,s9,1
    4bd0:	fe9fe06f          	j	3bb8 <xprintf+0x498>
    4bd4:	4344a783          	lw	a5,1076(s1)
    4bd8:	ac078863          	beqz	a5,3ea8 <xprintf+0x788>
    4bdc:	000780e7          	jalr	a5
    4be0:	ac8ff06f          	j	3ea8 <xprintf+0x788>
    4be4:	4344a783          	lw	a5,1076(s1)
    4be8:	ae078463          	beqz	a5,3ed0 <xprintf+0x7b0>
    4bec:	000780e7          	jalr	a5
    4bf0:	ae0ff06f          	j	3ed0 <xprintf+0x7b0>
    4bf4:	4344a783          	lw	a5,1076(s1)
    4bf8:	f8078863          	beqz	a5,4388 <xprintf+0xc68>
    4bfc:	02000513          	li	a0,32
    4c00:	000780e7          	jalr	a5
    4c04:	007d0793          	addi	a5,s10,7
    4c08:	f84ff06f          	j	438c <xprintf+0xc6c>
    4c0c:	4344a783          	lw	a5,1076(s1)
    4c10:	f6078063          	beqz	a5,4370 <xprintf+0xc50>
    4c14:	02000513          	li	a0,32
    4c18:	000780e7          	jalr	a5
    4c1c:	f54ff06f          	j	4370 <xprintf+0xc50>
    4c20:	4344a783          	lw	a5,1076(s1)
    4c24:	f2078a63          	beqz	a5,4358 <xprintf+0xc38>
    4c28:	02000513          	li	a0,32
    4c2c:	000780e7          	jalr	a5
    4c30:	f28ff06f          	j	4358 <xprintf+0xc38>
    4c34:	4344a783          	lw	a5,1076(s1)
    4c38:	f0078463          	beqz	a5,4340 <xprintf+0xc20>
    4c3c:	02000513          	li	a0,32
    4c40:	000780e7          	jalr	a5
    4c44:	efcff06f          	j	4340 <xprintf+0xc20>
    4c48:	4344a783          	lw	a5,1076(s1)
    4c4c:	ec078e63          	beqz	a5,4328 <xprintf+0xc08>
    4c50:	02000513          	li	a0,32
    4c54:	000780e7          	jalr	a5
    4c58:	ed0ff06f          	j	4328 <xprintf+0xc08>
    4c5c:	4344a783          	lw	a5,1076(s1)
    4c60:	ea078863          	beqz	a5,4310 <xprintf+0xbf0>
    4c64:	02000513          	li	a0,32
    4c68:	000780e7          	jalr	a5
    4c6c:	ea4ff06f          	j	4310 <xprintf+0xbf0>
    4c70:	4344a783          	lw	a5,1076(s1)
    4c74:	e8078263          	beqz	a5,42f8 <xprintf+0xbd8>
    4c78:	02000513          	li	a0,32
    4c7c:	000780e7          	jalr	a5
    4c80:	e78ff06f          	j	42f8 <xprintf+0xbd8>
    4c84:	00812c03          	lw	s8,8(sp)
    4c88:	b39fe06f          	j	37c0 <xprintf+0xa0>
    4c8c:	4344a783          	lw	a5,1076(s1)
    4c90:	d00784e3          	beqz	a5,4998 <xprintf+0x1278>
    4c94:	02000513          	li	a0,32
    4c98:	000780e7          	jalr	a5
    4c9c:	000ca783          	lw	a5,0(s9)
    4ca0:	d00790e3          	bnez	a5,49a0 <xprintf+0x1280>
    4ca4:	4344a783          	lw	a5,1076(s1)
    4ca8:	d00784e3          	beqz	a5,49b0 <xprintf+0x1290>
    4cac:	02000513          	li	a0,32
    4cb0:	000780e7          	jalr	a5
    4cb4:	000ca783          	lw	a5,0(s9)
    4cb8:	d00790e3          	bnez	a5,49b8 <xprintf+0x1298>
    4cbc:	4344a783          	lw	a5,1076(s1)
    4cc0:	d00784e3          	beqz	a5,49c8 <xprintf+0x12a8>
    4cc4:	02000513          	li	a0,32
    4cc8:	000780e7          	jalr	a5
    4ccc:	000ca783          	lw	a5,0(s9)
    4cd0:	d00790e3          	bnez	a5,49d0 <xprintf+0x12b0>
    4cd4:	4344a783          	lw	a5,1076(s1)
    4cd8:	d00784e3          	beqz	a5,49e0 <xprintf+0x12c0>
    4cdc:	02000513          	li	a0,32
    4ce0:	000780e7          	jalr	a5
    4ce4:	000ca783          	lw	a5,0(s9)
    4ce8:	d00790e3          	bnez	a5,49e8 <xprintf+0x12c8>
    4cec:	4344a783          	lw	a5,1076(s1)
    4cf0:	d00784e3          	beqz	a5,49f8 <xprintf+0x12d8>
    4cf4:	02000513          	li	a0,32
    4cf8:	000780e7          	jalr	a5
    4cfc:	000ca783          	lw	a5,0(s9)
    4d00:	d00790e3          	bnez	a5,4a00 <xprintf+0x12e0>
    4d04:	4344a783          	lw	a5,1076(s1)
    4d08:	d00784e3          	beqz	a5,4a10 <xprintf+0x12f0>
    4d0c:	02000513          	li	a0,32
    4d10:	000780e7          	jalr	a5
    4d14:	000ca783          	lw	a5,0(s9)
    4d18:	d00790e3          	bnez	a5,4a18 <xprintf+0x12f8>
    4d1c:	4344a783          	lw	a5,1076(s1)
    4d20:	d00784e3          	beqz	a5,4a28 <xprintf+0x1308>
    4d24:	02000513          	li	a0,32
    4d28:	000780e7          	jalr	a5
    4d2c:	007d0d93          	addi	s11,s10,7
    4d30:	cfdff06f          	j	4a2c <xprintf+0x130c>
    4d34:	4344a783          	lw	a5,1076(s1)
    4d38:	9c078063          	beqz	a5,3ef8 <xprintf+0x7d8>
    4d3c:	000780e7          	jalr	a5
    4d40:	9b8ff06f          	j	3ef8 <xprintf+0x7d8>
    4d44:	4344a783          	lw	a5,1076(s1)
    4d48:	9c078c63          	beqz	a5,3f20 <xprintf+0x800>
    4d4c:	000780e7          	jalr	a5
    4d50:	9d0ff06f          	j	3f20 <xprintf+0x800>
    4d54:	4344a783          	lw	a5,1076(s1)
    4d58:	9e078663          	beqz	a5,3f44 <xprintf+0x824>
    4d5c:	000780e7          	jalr	a5
    4d60:	9e4ff06f          	j	3f44 <xprintf+0x824>
    4d64:	4344a703          	lw	a4,1076(s1)
    4d68:	d4070a63          	beqz	a4,42bc <xprintf+0xb9c>
    4d6c:	02000513          	li	a0,32
    4d70:	00f12223          	sw	a5,4(sp)
    4d74:	000700e7          	jalr	a4
    4d78:	00412783          	lw	a5,4(sp)
    4d7c:	00178793          	addi	a5,a5,1
    4d80:	d40ff06f          	j	42c0 <xprintf+0xba0>
    4d84:	4344a783          	lw	a5,1076(s1)
    4d88:	ba078ce3          	beqz	a5,4940 <xprintf+0x1220>
    4d8c:	02000513          	li	a0,32
    4d90:	000780e7          	jalr	a5
    4d94:	001d8d93          	addi	s11,s11,1
    4d98:	badff06f          	j	4944 <xprintf+0x1224>
    4d9c:	4344a703          	lw	a4,1076(s1)
    4da0:	00071463          	bnez	a4,4da8 <xprintf+0x1688>
    4da4:	dddfe06f          	j	3b80 <xprintf+0x460>
    4da8:	000a0513          	mv	a0,s4
    4dac:	00c12623          	sw	a2,12(sp)
    4db0:	000700e7          	jalr	a4
    4db4:	00c12603          	lw	a2,12(sp)
    4db8:	000c2783          	lw	a5,0(s8)
    4dbc:	00160c93          	addi	s9,a2,1
    4dc0:	dc5fe06f          	j	3b84 <xprintf+0x464>
    4dc4:	4344a703          	lw	a4,1076(s1)
    4dc8:	ca070e63          	beqz	a4,4284 <xprintf+0xb64>
    4dcc:	02000513          	li	a0,32
    4dd0:	00f12223          	sw	a5,4(sp)
    4dd4:	000700e7          	jalr	a4
    4dd8:	00412783          	lw	a5,4(sp)
    4ddc:	00178793          	addi	a5,a5,1
    4de0:	ca8ff06f          	j	4288 <xprintf+0xb68>
    4de4:	4344a783          	lw	a5,1076(s1)
    4de8:	9c078e63          	beqz	a5,3fc4 <xprintf+0x8a4>
    4dec:	02000513          	li	a0,32
    4df0:	000780e7          	jalr	a5
    4df4:	001d8c93          	addi	s9,s11,1
    4df8:	9d0ff06f          	j	3fc8 <xprintf+0x8a8>
    4dfc:	4344a783          	lw	a5,1076(s1)
    4e00:	b20782e3          	beqz	a5,4924 <xprintf+0x1204>
    4e04:	02000513          	li	a0,32
    4e08:	000780e7          	jalr	a5
    4e0c:	001d8d93          	addi	s11,s11,1
    4e10:	b19ff06f          	j	4928 <xprintf+0x1208>
    4e14:	4344a703          	lw	a4,1076(s1)
    4e18:	c4070863          	beqz	a4,4268 <xprintf+0xb48>
    4e1c:	02000513          	li	a0,32
    4e20:	00f12223          	sw	a5,4(sp)
    4e24:	000700e7          	jalr	a4
    4e28:	00412783          	lw	a5,4(sp)
    4e2c:	00178793          	addi	a5,a5,1
    4e30:	c3cff06f          	j	426c <xprintf+0xb4c>
    4e34:	4344a783          	lw	a5,1076(s1)
    4e38:	ac0788e3          	beqz	a5,4908 <xprintf+0x11e8>
    4e3c:	02000513          	li	a0,32
    4e40:	000780e7          	jalr	a5
    4e44:	001d8d93          	addi	s11,s11,1
    4e48:	ac5ff06f          	j	490c <xprintf+0x11ec>
    4e4c:	4344a783          	lw	a5,1076(s1)
    4e50:	b00786e3          	beqz	a5,495c <xprintf+0x123c>
    4e54:	02000513          	li	a0,32
    4e58:	000780e7          	jalr	a5
    4e5c:	001d8d93          	addi	s11,s11,1
    4e60:	b01ff06f          	j	4960 <xprintf+0x1240>
    4e64:	4344a703          	lw	a4,1076(s1)
    4e68:	c2070c63          	beqz	a4,42a0 <xprintf+0xb80>
    4e6c:	02000513          	li	a0,32
    4e70:	00f12223          	sw	a5,4(sp)
    4e74:	000700e7          	jalr	a4
    4e78:	00412783          	lw	a5,4(sp)
    4e7c:	00178793          	addi	a5,a5,1
    4e80:	c24ff06f          	j	42a4 <xprintf+0xb84>
    4e84:	01b12223          	sw	s11,4(sp)
    4e88:	e49fe06f          	j	3cd0 <xprintf+0x5b0>
    4e8c:	01912223          	sw	s9,4(sp)
    4e90:	00060c93          	mv	s9,a2
    4e94:	e3dfe06f          	j	3cd0 <xprintf+0x5b0>
    4e98:	00a00d93          	li	s11,10
    4e9c:	00900793          	li	a5,9
    4ea0:	c1dfe06f          	j	3abc <xprintf+0x39c>
    4ea4:	00b00d93          	li	s11,11
    4ea8:	00a00793          	li	a5,10
    4eac:	c11fe06f          	j	3abc <xprintf+0x39c>
    4eb0:	00c00d93          	li	s11,12
    4eb4:	00b00793          	li	a5,11
    4eb8:	c05fe06f          	j	3abc <xprintf+0x39c>
    4ebc:	00d00d93          	li	s11,13
    4ec0:	00c00793          	li	a5,12
    4ec4:	bf9fe06f          	j	3abc <xprintf+0x39c>
    4ec8:	00267613          	andi	a2,a2,2
    4ecc:	00000793          	li	a5,0
    4ed0:	00100c13          	li	s8,1
    4ed4:	ac060a63          	beqz	a2,41a8 <xprintf+0xa88>
    4ed8:	00000c13          	li	s8,0
    4edc:	00100d93          	li	s11,1
    4ee0:	971ff06f          	j	4850 <xprintf+0x1130>
    4ee4:	000a0c13          	mv	s8,s4
    4ee8:	8d9fe06f          	j	37c0 <xprintf+0xa0>
    4eec:	00e00d93          	li	s11,14
    4ef0:	00d00793          	li	a5,13
    4ef4:	bc9fe06f          	j	3abc <xprintf+0x39c>
    4ef8:	00f00d93          	li	s11,15
    4efc:	00e00793          	li	a5,14
    4f00:	bbdfe06f          	j	3abc <xprintf+0x39c>
    4f04:	4344a703          	lw	a4,1076(s1)
    4f08:	b4070263          	beqz	a4,424c <xprintf+0xb2c>
    4f0c:	02000513          	li	a0,32
    4f10:	00f12223          	sw	a5,4(sp)
    4f14:	000700e7          	jalr	a4
    4f18:	00412783          	lw	a5,4(sp)
    4f1c:	00178793          	addi	a5,a5,1
    4f20:	b30ff06f          	j	4250 <xprintf+0xb30>
    4f24:	4344a783          	lw	a5,1076(s1)
    4f28:	9c0782e3          	beqz	a5,48ec <xprintf+0x11cc>
    4f2c:	02000513          	li	a0,32
    4f30:	000780e7          	jalr	a5
    4f34:	001d8d93          	addi	s11,s11,1
    4f38:	9b9ff06f          	j	48f0 <xprintf+0x11d0>
    4f3c:	4344a703          	lw	a4,1076(s1)
    4f40:	980708e3          	beqz	a4,48d0 <xprintf+0x11b0>
    4f44:	02000513          	li	a0,32
    4f48:	000700e7          	jalr	a4
    4f4c:	001c0d93          	addi	s11,s8,1
    4f50:	985ff06f          	j	48d4 <xprintf+0x11b4>
    4f54:	4344a783          	lw	a5,1076(s1)
    4f58:	ac078c63          	beqz	a5,4230 <xprintf+0xb10>
    4f5c:	02000513          	li	a0,32
    4f60:	00e12223          	sw	a4,4(sp)
    4f64:	000780e7          	jalr	a5
    4f68:	00412703          	lw	a4,4(sp)
    4f6c:	00170793          	addi	a5,a4,1
    4f70:	ac4ff06f          	j	4234 <xprintf+0xb14>
    4f74:	000c0d93          	mv	s11,s8
    4f78:	00078c13          	mv	s8,a5
    4f7c:	899ff06f          	j	4814 <xprintf+0x10f4>
    4f80:	0000                	unimp
	...

00004f84 <memcmp>:
    4f84:	00300793          	li	a5,3
    4f88:	02c7f863          	bgeu	a5,a2,4fb8 <memcmp+0x34>
    4f8c:	00b567b3          	or	a5,a0,a1
    4f90:	0037f793          	andi	a5,a5,3
    4f94:	00300693          	li	a3,3
    4f98:	04079e63          	bnez	a5,4ff4 <memcmp+0x70>
    4f9c:	00052703          	lw	a4,0(a0)
    4fa0:	0005a783          	lw	a5,0(a1)
    4fa4:	04f71863          	bne	a4,a5,4ff4 <memcmp+0x70>
    4fa8:	ffc60613          	addi	a2,a2,-4
    4fac:	00450513          	addi	a0,a0,4
    4fb0:	00458593          	addi	a1,a1,4
    4fb4:	fec6e4e3          	bltu	a3,a2,4f9c <memcmp+0x18>
    4fb8:	fff60693          	addi	a3,a2,-1
    4fbc:	02060863          	beqz	a2,4fec <memcmp+0x68>
    4fc0:	00168693          	addi	a3,a3,1
    4fc4:	00d506b3          	add	a3,a0,a3
    4fc8:	0080006f          	j	4fd0 <memcmp+0x4c>
    4fcc:	02d50063          	beq	a0,a3,4fec <memcmp+0x68>
    4fd0:	00054783          	lbu	a5,0(a0)
    4fd4:	0005c703          	lbu	a4,0(a1)
    4fd8:	00150513          	addi	a0,a0,1
    4fdc:	00158593          	addi	a1,a1,1
    4fe0:	fee786e3          	beq	a5,a4,4fcc <memcmp+0x48>
    4fe4:	40e78533          	sub	a0,a5,a4
    4fe8:	00008067          	ret
    4fec:	00000513          	li	a0,0
    4ff0:	00008067          	ret
    4ff4:	fff60693          	addi	a3,a2,-1
    4ff8:	fc9ff06f          	j	4fc0 <memcmp+0x3c>

00004ffc <memcpy>:
    4ffc:	00a5c7b3          	xor	a5,a1,a0
    5000:	0037f793          	andi	a5,a5,3
    5004:	00c508b3          	add	a7,a0,a2
    5008:	06079663          	bnez	a5,5074 <memcpy+0x78>
    500c:	00300793          	li	a5,3
    5010:	06c7f263          	bgeu	a5,a2,5074 <memcpy+0x78>
    5014:	00357793          	andi	a5,a0,3
    5018:	00050713          	mv	a4,a0
    501c:	0c079a63          	bnez	a5,50f0 <memcpy+0xf4>
    5020:	ffc8f613          	andi	a2,a7,-4
    5024:	40e606b3          	sub	a3,a2,a4
    5028:	02000793          	li	a5,32
    502c:	02000293          	li	t0,32
    5030:	06d7c263          	blt	a5,a3,5094 <memcpy+0x98>
    5034:	00058693          	mv	a3,a1
    5038:	00070793          	mv	a5,a4
    503c:	02c77863          	bgeu	a4,a2,506c <memcpy+0x70>
    5040:	0006a803          	lw	a6,0(a3)
    5044:	00478793          	addi	a5,a5,4
    5048:	00468693          	addi	a3,a3,4
    504c:	ff07ae23          	sw	a6,-4(a5)
    5050:	fec7e8e3          	bltu	a5,a2,5040 <memcpy+0x44>
    5054:	fff60793          	addi	a5,a2,-1
    5058:	40e787b3          	sub	a5,a5,a4
    505c:	ffc7f793          	andi	a5,a5,-4
    5060:	00478793          	addi	a5,a5,4
    5064:	00f70733          	add	a4,a4,a5
    5068:	00f585b3          	add	a1,a1,a5
    506c:	01176863          	bltu	a4,a7,507c <memcpy+0x80>
    5070:	00008067          	ret
    5074:	00050713          	mv	a4,a0
    5078:	ff157ce3          	bgeu	a0,a7,5070 <memcpy+0x74>
    507c:	0005c783          	lbu	a5,0(a1)
    5080:	00170713          	addi	a4,a4,1
    5084:	00158593          	addi	a1,a1,1
    5088:	fef70fa3          	sb	a5,-1(a4)
    508c:	ff1768e3          	bltu	a4,a7,507c <memcpy+0x80>
    5090:	00008067          	ret
    5094:	0045a683          	lw	a3,4(a1)
    5098:	01c5a783          	lw	a5,28(a1)
    509c:	0005af83          	lw	t6,0(a1)
    50a0:	0085af03          	lw	t5,8(a1)
    50a4:	00c5ae83          	lw	t4,12(a1)
    50a8:	0105ae03          	lw	t3,16(a1)
    50ac:	0145a303          	lw	t1,20(a1)
    50b0:	0185a803          	lw	a6,24(a1)
    50b4:	00d72223          	sw	a3,4(a4)
    50b8:	0205a683          	lw	a3,32(a1)
    50bc:	01f72023          	sw	t6,0(a4)
    50c0:	01e72423          	sw	t5,8(a4)
    50c4:	01d72623          	sw	t4,12(a4)
    50c8:	01c72823          	sw	t3,16(a4)
    50cc:	00672a23          	sw	t1,20(a4)
    50d0:	01072c23          	sw	a6,24(a4)
    50d4:	00f72e23          	sw	a5,28(a4)
    50d8:	02470713          	addi	a4,a4,36
    50dc:	40e607b3          	sub	a5,a2,a4
    50e0:	fed72e23          	sw	a3,-4(a4)
    50e4:	02458593          	addi	a1,a1,36
    50e8:	faf2c6e3          	blt	t0,a5,5094 <memcpy+0x98>
    50ec:	f49ff06f          	j	5034 <memcpy+0x38>
    50f0:	0005c683          	lbu	a3,0(a1)
    50f4:	00170713          	addi	a4,a4,1
    50f8:	00377793          	andi	a5,a4,3
    50fc:	fed70fa3          	sb	a3,-1(a4)
    5100:	00158593          	addi	a1,a1,1
    5104:	f0078ee3          	beqz	a5,5020 <memcpy+0x24>
    5108:	0005c683          	lbu	a3,0(a1)
    510c:	00170713          	addi	a4,a4,1
    5110:	00377793          	andi	a5,a4,3
    5114:	fed70fa3          	sb	a3,-1(a4)
    5118:	00158593          	addi	a1,a1,1
    511c:	fc079ae3          	bnez	a5,50f0 <memcpy+0xf4>
    5120:	f01ff06f          	j	5020 <memcpy+0x24>
